EXPORTS 
	?$TSS0@?1??_GetStaticAmbientSchedulerStorage@details@Concurrency@@YAPEAV?$shared_ptr@Uscheduler_interface@Concurrency@@@std@@XZ@4HA 	 DATA
	??_R0?AU_Crt_new_delete@std@@@8 	 DATA
	??_R0?AV<lambda_052e919cc0e5399df76dff3972c0cac1>@@@8 	 DATA
	??_R0?AV<lambda_2fa3e3d11fb97352afa77a4a13bfb543>@@@8 	 DATA
	??_R0?AV<lambda_763529b0c7473cbc215a52d189ac9b18>@@@8 	 DATA
	??_R0?AV<lambda_f25c37099038263181b5186a3fa41b37>@@@8 	 DATA
	??_R0?AV?$_Node_class@DV?$regex_traits@D@std@@@std@@@8 	 DATA
	??_R0?AV?$_Node_class@_WV?$regex_traits@_W@std@@@std@@@8 	 DATA
	??_R0?AV?$_Node_str@D@std@@@8 	 DATA
	??_R0?AV?$_Node_str@_W@std@@@8 	 DATA
	??_R0?AV?$codecvt@_WDU_Mbstatet@@@std@@@8 	 DATA
	??_R0?AV?$codecvt_utf8@_W$0BAPPPP@$0A@@std@@@8 	 DATA
	??_R0?AV?$collate@D@std@@@8 	 DATA
	??_R0?AV?$collate@_W@std@@@8 	 DATA
	??_R0?AV?$wstring_convert@V?$codecvt_utf8@_W$0BAPPPP@$0A@@std@@_WV?$allocator@_W@2@V?$allocator@D@2@@std@@@8 	 DATA
	??_R0?AV_Facet_base@std@@@8 	 DATA
	??_R0?AV_Interruption_exception@details@Concurrency@@@8 	 DATA
	??_R0?AV_Node_assert@std@@@8 	 DATA
	??_R0?AV_Node_back@std@@@8 	 DATA
	??_R0?AV_Node_base@std@@@8 	 DATA
	??_R0?AV_Node_capture@std@@@8 	 DATA
	??_R0?AV_Node_end_group@std@@@8 	 DATA
	??_R0?AV_Node_end_rep@std@@@8 	 DATA
	??_R0?AV_Node_endif@std@@@8 	 DATA
	??_R0?AV_Node_if@std@@@8 	 DATA
	??_R0?AV_Node_rep@std@@@8 	 DATA
	??_R0?AV_Root_node@std@@@8 	 DATA
	??_R0?AV_System_error@std@@@8 	 DATA
	??_R0?AVbad_alloc@std@@@8 	 DATA
	??_R0?AVbad_array_new_length@std@@@8 	 DATA
	??_R0?AVbad_cast@std@@@8 	 DATA
	??_R0?AVcodecvt_base@std@@@8 	 DATA
	??_R0?AVexception@std@@@8 	 DATA
	??_R0?AVfacet@locale@std@@@8 	 DATA
	??_R0?AVfuture_error@std@@@8 	 DATA
	??_R0?AVinvalid_argument@std@@@8 	 DATA
	??_R0?AVinvalid_operation@Concurrency@@@8 	 DATA
	??_R0?AVlogic_error@std@@@8 	 DATA
	??_R0?AVout_of_range@std@@@8 	 DATA
	??_R0?AVrange_error@std@@@8 	 DATA
	??_R0?AVregex_error@std@@@8 	 DATA
	??_R0?AVruntime_error@std@@@8 	 DATA
	??_R0?AVsystem_error@std@@@8 	 DATA
	??_R0?AVtask_canceled@Concurrency@@@8 	 DATA
	?_Flag@?1??_GetStaticAmbientSchedulerRef@details@Concurrency@@YAAEAV?$shared_ptr@Uscheduler_interface@Concurrency@@@std@@XZ@4Uonce_flag@5@A 	 DATA
	?_OptionsStorage@?1??__local_stdio_printf_options@@9@4_KA 	 DATA
	?_OptionsStorage@?1??__local_stdio_scanf_options@@9@4_KA 	 DATA
	?_Psave@?$_Facetptr@V?$codecvt@DDU_Mbstatet@@@std@@@std@@2PEBVfacet@locale@2@EB 	 DATA
	?_Psave@?$_Facetptr@V?$collate@D@std@@@std@@2PEBVfacet@locale@2@EB 	 DATA
	?_Psave@?$_Facetptr@V?$collate@_W@std@@@std@@2PEBVfacet@locale@2@EB 	 DATA
	?_Psave@?$_Facetptr@V?$ctype@D@std@@@std@@2PEBVfacet@locale@2@EB 	 DATA
	?_Psave@?$_Facetptr@V?$ctype@_W@std@@@std@@2PEBVfacet@locale@2@EB 	 DATA
	?_S_scheduler@?1??_GetStaticAmbientSchedulerStorage@details@Concurrency@@YAPEAV?$shared_ptr@Uscheduler_interface@Concurrency@@@std@@XZ@4V45@A 	 DATA
	?_S_scheduler_address@?1??_GetStaticAmbientSchedulerRef@details@Concurrency@@YAAEAV?$shared_ptr@Uscheduler_interface@Concurrency@@@std@@XZ@4PEAV45@EA 	 DATA
	?_Static@?1???$_Immortalize_memcpy_image@V_Future_error_category2@std@@@std@@YAAEBV_Future_error_category2@1@XZ@4U?$_Constexpr_immortalize_impl@V_Future_error_category2@std@@@1@A 	 DATA
	?_Static@?1???$_Immortalize_memcpy_image@V_Generic_error_category@std@@@std@@YAAEBV_Generic_error_category@1@XZ@4U?$_Constexpr_immortalize_impl@V_Generic_error_category@std@@@1@A 	 DATA
	?_Stinit@?1??_Init@?$basic_filebuf@DU?$char_traits@D@std@@@std@@IEAAXPEAU_iobuf@@W4_Initfl@23@@Z@4U_Mbstatet@@A 	 DATA
	?unicode_map_lowercase@@3V?$unordered_map@IIU?$hash@I@std@@U?$equal_to@I@2@V?$allocator@U?$pair@$$CBII@std@@@2@@std@@B 	 DATA
	?unicode_map_uppercase@@3V?$unordered_map@IIU?$hash@I@std@@U?$equal_to@I@2@V?$allocator@U?$pair@$$CBII@std@@@2@@std@@B 	 DATA
	?unicode_ranges_flags@@3V?$vector@U?$pair@IG@std@@V?$allocator@U?$pair@IG@std@@@2@@std@@B 	 DATA
	?unicode_ranges_nfd@@3V?$vector@Urange_nfd@@V?$allocator@Urange_nfd@@@std@@@std@@B 	 DATA
	?unicode_set_whitespace@@3V?$unordered_set@IU?$hash@I@std@@U?$equal_to@I@2@V?$allocator@I@2@@std@@B 	 DATA
	??$?0$$CBW4llm_arch@@V?$map@W4llm_tensor@@V?$basic_string@DU?$char_traits@D@std@@V?$allocator@D@2@@std@@U?$less@W4llm_tensor@@@3@V?$allocator@U?$pair@$$CBW4llm_tensor@@V?$basic_string@DU?$char_traits@D@std@@V?$allocator@D@2@@std@@@std@@@3@@std@@$0A@@?$pair@$$CBW4llm_arch@@V?$map@W4llm_tensor@@V?$basic_string@DU?$char_traits@D@std@@V?$allocator@D@2@@std@@U?$less@W4llm_tensor@@@3@V?$allocator@U?$pair@$$CBW4llm_tensor@@V?$basic_string@DU?$char_traits@D@std@@V?$allocator@D@2@@std@@@std@@@3@@std@@@std@@QEAA@AEBW4llm_arch@@AEBV?$map@W4llm_tensor@@V?$basic_string@DU?$char_traits@D@std@@V?$allocator@D@2@@std@@U?$less@W4llm_tensor@@@3@V?$allocator@U?$pair@$$CBW4llm_tensor@@V?$basic_string@DU?$char_traits@D@std@@V?$allocator@D@2@@std@@@std@@@3@@1@@Z
	??$?0$$QEAE$$Z$$V@?$pair@$$CBEV?$basic_string@DU?$char_traits@D@std@@V?$allocator@D@2@@std@@@std@@QEAA@Upiecewise_construct_t@1@V?$tuple@$$QEAE@1@V?$tuple@$$V@1@@Z
	??$?0$$QEAPEAUggml_backend_buffer_type@@$$Z$$V@?$pair@QEAUggml_backend_buffer_type@@H@std@@QEAA@Upiecewise_construct_t@1@V?$tuple@$$QEAPEAUggml_backend_buffer_type@@@1@V?$tuple@$$V@1@@Z
	??$?0$$QEAV?$basic_string@DU?$char_traits@D@std@@V?$allocator@D@2@@std@@$$Z$$V@?$pair@$$CBV?$basic_string@DU?$char_traits@D@std@@V?$allocator@D@2@@std@@E@std@@QEAA@Upiecewise_construct_t@1@V?$tuple@$$QEAV?$basic_string@DU?$char_traits@D@std@@V?$allocator@D@2@@std@@@1@V?$tuple@$$V@1@@Z
	??$?0$$V@?$_Compressed_pair@V?$allocator@C@std@@V?$_Vector_val@U?$_Simple_types@C@std@@@2@$00@std@@QEAA@U_Zero_then_variadic_args_t@1@@Z
	??$?0$$V@?$_Compressed_pair@V?$allocator@D@std@@V?$_String_val@U?$_Simple_types@D@std@@@2@$00@std@@QEAA@U_Zero_then_variadic_args_t@1@@Z
	??$?0$$V@?$_Compressed_pair@V?$allocator@D@std@@V?$_Vector_val@U?$_Simple_types@D@std@@@2@$00@std@@QEAA@U_Zero_then_variadic_args_t@1@@Z
	??$?0$$V@?$_Compressed_pair@V?$allocator@E@std@@V?$_Vector_val@U?$_Simple_types@E@std@@@2@$00@std@@QEAA@U_Zero_then_variadic_args_t@1@@Z
	??$?0$$V@?$_Compressed_pair@V?$allocator@H@std@@V?$_Vector_val@U?$_Simple_types@H@std@@@2@$00@std@@QEAA@U_Zero_then_variadic_args_t@1@@Z
	??$?0$$V@?$_Compressed_pair@V?$allocator@I@std@@V?$_Vector_val@U?$_Simple_types@I@std@@@2@$00@std@@QEAA@U_Zero_then_variadic_args_t@1@@Z
	??$?0$$V@?$_Compressed_pair@V?$allocator@M@std@@V?$_Vector_val@U?$_Simple_types@M@std@@@2@$00@std@@QEAA@U_Zero_then_variadic_args_t@1@@Z
	??$?0$$V@?$_Compressed_pair@V?$allocator@N@std@@V?$_Vector_val@U?$_Simple_types@N@std@@@2@$00@std@@QEAA@U_Zero_then_variadic_args_t@1@@Z
	??$?0$$V@?$_Compressed_pair@V?$allocator@PEAH@std@@V?$_Vector_val@U?$_Simple_types@PEAH@std@@@2@$00@std@@QEAA@U_Zero_then_variadic_args_t@1@@Z
	??$?0$$V@?$_Compressed_pair@V?$allocator@PEAUggml_backend@@@std@@V?$_Vector_val@U?$_Simple_types@PEAUggml_backend@@@std@@@2@$00@std@@QEAA@U_Zero_then_variadic_args_t@1@@Z
	??$?0$$V@?$_Compressed_pair@V?$allocator@PEAUggml_backend_buffer@@@std@@V?$_Vector_val@U?$_Simple_types@PEAUggml_backend_buffer@@@std@@@2@$00@std@@QEAA@U_Zero_then_variadic_args_t@1@@Z
	??$?0$$V@?$_Compressed_pair@V?$allocator@PEAUggml_backend_buffer_type@@@std@@V?$_Vector_val@U?$_Simple_types@PEAUggml_backend_buffer_type@@@std@@@2@$00@std@@QEAA@U_Zero_then_variadic_args_t@1@@Z
	??$?0$$V@?$_Compressed_pair@V?$allocator@PEAUggml_context@@@std@@V?$_Vector_val@U?$_Simple_types@PEAUggml_context@@@std@@@2@$00@std@@QEAA@U_Zero_then_variadic_args_t@1@@Z
	??$?0$$V@?$_Compressed_pair@V?$allocator@PEAUggml_tensor@@@std@@V?$_Vector_val@U?$_Simple_types@PEAUggml_tensor@@@std@@@2@$00@std@@QEAA@U_Zero_then_variadic_args_t@1@@Z
	??$?0$$V@?$_Compressed_pair@V?$allocator@PEAUllama_token_data@@@std@@V?$_Vector_val@U?$_Simple_types@PEAUllama_token_data@@@std@@@2@$00@std@@QEAA@U_Zero_then_variadic_args_t@1@@Z
	??$?0$$V@?$_Compressed_pair@V?$allocator@PEAX@std@@V?$_Vector_val@U?$_Simple_types@PEAX@std@@@2@$00@std@@QEAA@U_Zero_then_variadic_args_t@1@@Z
	??$?0$$V@?$_Compressed_pair@V?$allocator@PEBUllama_chat_message@@@std@@V?$_Vector_val@U?$_Simple_types@PEBUllama_chat_message@@@std@@@2@$00@std@@QEAA@U_Zero_then_variadic_args_t@1@@Z
	??$?0$$V@?$_Compressed_pair@V?$allocator@PEBUllama_grammar_element@@@std@@V?$_Vector_val@U?$_Simple_types@PEBUllama_grammar_element@@@std@@@2@$00@std@@QEAA@U_Zero_then_variadic_args_t@1@@Z
	??$?0$$V@?$_Compressed_pair@V?$allocator@U?$_Flist_node@Ufragment_buffer_variant@@PEAX@std@@@std@@V?$_Flist_val@U?$_Flist_simple_types@Ufragment_buffer_variant@@@std@@@2@$00@std@@QEAA@U_Zero_then_variadic_args_t@1@@Z
	??$?0$$V@?$_Compressed_pair@V?$allocator@U?$_Tree_node@HPEAX@std@@@std@@V?$_Tree_val@U?$_Tree_simple_types@H@std@@@2@$00@std@@QEAA@U_Zero_then_variadic_args_t@1@@Z
	??$?0$$V@?$_Compressed_pair@V?$allocator@U?$_Tree_node@PEAUllama_lora_adapter@@PEAX@std@@@std@@V?$_Tree_val@U?$_Tree_simple_types@PEAUllama_lora_adapter@@@std@@@2@$00@std@@QEAA@U_Zero_then_variadic_args_t@1@@Z
	??$?0$$V@?$_Compressed_pair@V?$allocator@U?$_Tree_node@U?$pair@$$CBDUnaive_trie@@@std@@PEAX@std@@@std@@V?$_Tree_val@U?$_Tree_simple_types@U?$pair@$$CBDUnaive_trie@@@std@@@std@@@2@$00@std@@QEAA@U_Zero_then_variadic_args_t@1@@Z
	??$?0$$V@?$_Compressed_pair@V?$allocator@U?$_Tree_node@U?$pair@$$CBHH@std@@PEAX@std@@@std@@V?$_Tree_val@U?$_Tree_simple_types@U?$pair@$$CBHH@std@@@std@@@2@$00@std@@QEAA@U_Zero_then_variadic_args_t@1@@Z
	??$?0$$V@?$_Compressed_pair@V?$allocator@U?$_Tree_node@U?$pair@$$CBHV?$basic_string@DU?$char_traits@D@std@@V?$allocator@D@2@@std@@@std@@PEAX@std@@@std@@V?$_Tree_val@U?$_Tree_simple_types@U?$pair@$$CBHV?$basic_string@DU?$char_traits@D@std@@V?$allocator@D@2@@std@@@std@@@std@@@2@$00@std@@QEAA@U_Zero_then_variadic_args_t@1@@Z
	??$?0$$V@?$_Compressed_pair@V?$allocator@U?$_Tree_node@U?$pair@$$CBHV?$vector@MV?$allocator@M@std@@@std@@@std@@PEAX@std@@@std@@V?$_Tree_val@U?$_Tree_simple_types@U?$pair@$$CBHV?$vector@MV?$allocator@M@std@@@std@@@std@@@std@@@2@$00@std@@QEAA@U_Zero_then_variadic_args_t@1@@Z
	??$?0$$V@?$_Compressed_pair@V?$allocator@U?$_Tree_node@U?$pair@$$CBU?$pair@V?$basic_string@DU?$char_traits@D@std@@V?$allocator@D@2@@std@@V12@@std@@H@std@@PEAX@std@@@std@@V?$_Tree_val@U?$_Tree_simple_types@U?$pair@$$CBU?$pair@V?$basic_string@DU?$char_traits@D@std@@V?$allocator@D@2@@std@@V12@@std@@H@std@@@std@@@2@$00@std@@QEAA@U_Zero_then_variadic_args_t@1@@Z
	??$?0$$V@?$_Compressed_pair@V?$allocator@U?$_Tree_node@U?$pair@$$CBV?$basic_string@DU?$char_traits@D@std@@V?$allocator@D@2@@std@@H@std@@PEAX@std@@@std@@V?$_Tree_val@U?$_Tree_simple_types@U?$pair@$$CBV?$basic_string@DU?$char_traits@D@std@@V?$allocator@D@2@@std@@H@std@@@std@@@2@$00@std@@QEAA@U_Zero_then_variadic_args_t@1@@Z
	??$?0$$V@?$_Compressed_pair@V?$allocator@U?$_Tree_node@U?$pair@$$CBV?$basic_string@DU?$char_traits@D@std@@V?$allocator@D@2@@std@@U?$pair@HH@2@@std@@PEAX@std@@@std@@V?$_Tree_val@U?$_Tree_simple_types@U?$pair@$$CBV?$basic_string@DU?$char_traits@D@std@@V?$allocator@D@2@@std@@U?$pair@HH@2@@std@@@std@@@2@$00@std@@QEAA@U_Zero_then_variadic_args_t@1@@Z
	??$?0$$V@?$_Compressed_pair@V?$allocator@U?$_Tree_node@U?$pair@$$CBV?$basic_string@DU?$char_traits@D@std@@V?$allocator@D@2@@std@@Ullama_lora_weight@@@std@@PEAX@std@@@std@@V?$_Tree_val@U?$_Tree_simple_types@U?$pair@$$CBV?$basic_string@DU?$char_traits@D@std@@V?$allocator@D@2@@std@@Ullama_lora_weight@@@std@@@std@@@2@$00@std@@QEAA@U_Zero_then_variadic_args_t@1@@Z
	??$?0$$V@?$_Compressed_pair@V?$allocator@U?$_Tree_node@U?$pair@$$CBW4ggml_type@@I@std@@PEAX@std@@@std@@V?$_Tree_val@U?$_Tree_simple_types@U?$pair@$$CBW4ggml_type@@I@std@@@std@@@2@$00@std@@QEAA@U_Zero_then_variadic_args_t@1@@Z
	??$?0$$V@?$_Compressed_pair@V?$allocator@U?$_Tree_node@U?$pair@$$CBW4llama_rope_scaling_type@@PEBD@std@@PEAX@std@@@std@@V?$_Tree_val@U?$_Tree_simple_types@U?$pair@$$CBW4llama_rope_scaling_type@@PEBD@std@@@std@@@2@$00@std@@QEAA@U_Zero_then_variadic_args_t@1@@Z
	??$?0$$V@?$_Compressed_pair@V?$allocator@U?$_Tree_node@U?$pair@$$CBW4llm_arch@@PEBD@std@@PEAX@std@@@std@@V?$_Tree_val@U?$_Tree_simple_types@U?$pair@$$CBW4llm_arch@@PEBD@std@@@std@@@2@$00@std@@QEAA@U_Zero_then_variadic_args_t@1@@Z
	??$?0$$V@?$_Compressed_pair@V?$allocator@U?$_Tree_node@U?$pair@$$CBW4llm_arch@@V?$map@W4llm_tensor@@V?$basic_string@DU?$char_traits@D@std@@V?$allocator@D@2@@std@@U?$less@W4llm_tensor@@@3@V?$allocator@U?$pair@$$CBW4llm_tensor@@V?$basic_string@DU?$char_traits@D@std@@V?$allocator@D@2@@std@@@std@@@3@@std@@@std@@PEAX@std@@@std@@V?$_Tree_val@U?$_Tree_simple_types@U?$pair@$$CBW4llm_arch@@V?$map@W4llm_tensor@@V?$basic_string@DU?$char_traits@D@std@@V?$allocator@D@2@@std@@U?$less@W4llm_tensor@@@3@V?$allocator@U?$pair@$$CBW4llm_tensor@@V?$basic_string@DU?$char_traits@D@std@@V?$allocator@D@2@@std@@@std@@@3@@std@@@std@@@std@@@2@$00@std@@QEAA@U_Zero_then_variadic_args_t@1@@Z
	??$?0$$V@?$_Compressed_pair@V?$allocator@U?$_Tree_node@U?$pair@$$CBW4llm_kv@@PEBD@std@@PEAX@std@@@std@@V?$_Tree_val@U?$_Tree_simple_types@U?$pair@$$CBW4llm_kv@@PEBD@std@@@std@@@2@$00@std@@QEAA@U_Zero_then_variadic_args_t@1@@Z
	??$?0$$V@?$_Compressed_pair@V?$allocator@U?$_Tree_node@U?$pair@$$CBW4llm_tensor@@V?$basic_string@DU?$char_traits@D@std@@V?$allocator@D@2@@std@@@std@@PEAX@std@@@std@@V?$_Tree_val@U?$_Tree_simple_types@U?$pair@$$CBW4llm_tensor@@V?$basic_string@DU?$char_traits@D@std@@V?$allocator@D@2@@std@@@std@@@std@@@2@$00@std@@QEAA@U_Zero_then_variadic_args_t@1@@Z
	??$?0$$V@?$_Compressed_pair@V?$allocator@U?$_Tree_node@U?$pair@QEAUggml_backend_buffer_type@@H@std@@PEAX@std@@@std@@V?$_Tree_val@U?$_Tree_simple_types@U?$pair@QEAUggml_backend_buffer_type@@H@std@@@std@@@2@$00@std@@QEAA@U_Zero_then_variadic_args_t@1@@Z
	??$?0$$V@?$_Compressed_pair@V?$allocator@U?$_Tree_node@U?$pair@QEAUggml_backend_buffer_type@@PEAUggml_context@@@std@@PEAX@std@@@std@@V?$_Tree_val@U?$_Tree_simple_types@U?$pair@QEAUggml_backend_buffer_type@@PEAUggml_context@@@std@@@std@@@2@$00@std@@QEAA@U_Zero_then_variadic_args_t@1@@Z
	??$?0$$V@?$_Compressed_pair@V?$allocator@U?$_Tree_node@V?$basic_string@DU?$char_traits@D@std@@V?$allocator@D@2@@std@@PEAX@std@@@std@@V?$_Tree_val@U?$_Tree_simple_types@V?$basic_string@DU?$char_traits@D@std@@V?$allocator@D@2@@std@@@std@@@2@$00@std@@QEAA@U_Zero_then_variadic_args_t@1@@Z
	??$?0$$V@?$_Compressed_pair@V?$allocator@U?$no_init@E@@@std@@V?$_Vector_val@U?$_Simple_types@U?$no_init@E@@@std@@@2@$00@std@@QEAA@U_Zero_then_variadic_args_t@1@@Z
	??$?0$$V@?$_Compressed_pair@V?$allocator@U?$no_init@M@@@std@@V?$_Vector_val@U?$_Simple_types@U?$no_init@M@@@std@@@2@$00@std@@QEAA@U_Zero_then_variadic_args_t@1@@Z
	??$?0$$V@?$_Compressed_pair@V?$allocator@U?$pair@II@std@@@std@@V?$_Vector_val@U?$_Simple_types@U?$pair@II@std@@@std@@@2@$00@std@@QEAA@U_Zero_then_variadic_args_t@1@@Z
	??$?0$$V@?$_Compressed_pair@V?$allocator@U?$pair@PEAUggml_context@@V?$unordered_map@IPEAUggml_backend_buffer@@U?$hash@I@std@@U?$equal_to@I@3@V?$allocator@U?$pair@$$CBIPEAUggml_backend_buffer@@@std@@@3@@std@@@std@@@std@@V?$_Vector_val@U?$_Simple_types@U?$pair@PEAUggml_context@@V?$unordered_map@IPEAUggml_backend_buffer@@U?$hash@I@std@@U?$equal_to@I@3@V?$allocator@U?$pair@$$CBIPEAUggml_backend_buffer@@@std@@@3@@std@@@std@@@std@@@2@$00@std@@QEAA@U_Zero_then_variadic_args_t@1@@Z
	??$?0$$V@?$_Compressed_pair@V?$allocator@U?$pair@V?$basic_string@DU?$char_traits@D@std@@V?$allocator@D@2@@std@@PEAUggml_tensor@@@std@@@std@@V?$_Vector_val@U?$_Simple_types@U?$pair@V?$basic_string@DU?$char_traits@D@std@@V?$allocator@D@2@@std@@PEAUggml_tensor@@@std@@@std@@@2@$00@std@@QEAA@U_Zero_then_variadic_args_t@1@@Z
	??$?0$$V@?$_Compressed_pair@V?$allocator@U?$pair@V?$vector@IV?$allocator@I@std@@@std@@Ullama_partial_utf8@@@std@@@std@@V?$_Vector_val@U?$_Simple_types@U?$pair@V?$vector@IV?$allocator@I@std@@@std@@Ullama_partial_utf8@@@std@@@std@@@2@$00@std@@QEAA@U_Zero_then_variadic_args_t@1@@Z
	??$?0$$V@?$_Compressed_pair@V?$allocator@U?$pair@_K_K@std@@@std@@V?$_Vector_val@U?$_Simple_types@U?$pair@_K_K@std@@@std@@@2@$00@std@@QEAA@U_Zero_then_variadic_args_t@1@@Z
	??$?0$$V@?$_Compressed_pair@V?$allocator@U_Grp_t@?$_Tgt_state_t@PEBD@std@@@std@@V?$_Vector_val@U?$_Simple_types@U_Grp_t@?$_Tgt_state_t@PEBD@std@@@std@@@2@$00@std@@QEAA@U_Zero_then_variadic_args_t@1@@Z
	??$?0$$V@?$_Compressed_pair@V?$allocator@U_Grp_t@?$_Tgt_state_t@PEB_W@std@@@std@@V?$_Vector_val@U?$_Simple_types@U_Grp_t@?$_Tgt_state_t@PEB_W@std@@@std@@@2@$00@std@@QEAA@U_Zero_then_variadic_args_t@1@@Z
	??$?0$$V@?$_Compressed_pair@V?$allocator@U_Loop_vals_t@std@@@std@@V?$_Vector_val@U?$_Simple_types@U_Loop_vals_t@std@@@std@@@2@$00@std@@QEAA@U_Zero_then_variadic_args_t@1@@Z
	??$?0$$V@?$_Compressed_pair@V?$allocator@Ulayer_buft@llama_model@@@std@@V?$_Vector_val@U?$_Simple_types@Ulayer_buft@llama_model@@@std@@@2@$00@std@@QEAA@U_Zero_then_variadic_args_t@1@@Z
	??$?0$$V@?$_Compressed_pair@V?$allocator@Ullama_grammar_candidate@@@std@@V?$_Vector_val@U?$_Simple_types@Ullama_grammar_candidate@@@std@@@2@$00@std@@QEAA@U_Zero_then_variadic_args_t@1@@Z
	??$?0$$V@?$_Compressed_pair@V?$allocator@Ullama_grammar_element@@@std@@V?$_Vector_val@U?$_Simple_types@Ullama_grammar_element@@@std@@@2@$00@std@@QEAA@U_Zero_then_variadic_args_t@1@@Z
	??$?0$$V@?$_Compressed_pair@V?$allocator@Ullama_kv_cell@@@std@@V?$_Vector_val@U?$_Simple_types@Ullama_kv_cell@@@std@@@2@$00@std@@QEAA@U_Zero_then_variadic_args_t@1@@Z
	??$?0$$V@?$_Compressed_pair@V?$allocator@Ullama_layer@@@std@@V?$_Vector_val@U?$_Simple_types@Ullama_layer@@@std@@@2@$00@std@@QEAA@U_Zero_then_variadic_args_t@1@@Z
	??$?0$$V@?$_Compressed_pair@V?$allocator@Ullama_sbatch_seq@@@std@@V?$_Vector_val@U?$_Simple_types@Ullama_sbatch_seq@@@std@@@2@$00@std@@QEAA@U_Zero_then_variadic_args_t@1@@Z
	??$?0$$V@?$_Compressed_pair@V?$allocator@Ullama_tensor_weight@llama_model_loader@@@std@@V?$_Vector_val@U?$_Simple_types@Ullama_tensor_weight@llama_model_loader@@@std@@@2@$00@std@@QEAA@U_Zero_then_variadic_args_t@1@@Z
	??$?0$$V@?$_Compressed_pair@V?$allocator@Ullama_token_data@@@std@@V?$_Vector_val@U?$_Simple_types@Ullama_token_data@@@std@@@2@$00@std@@QEAA@U_Zero_then_variadic_args_t@1@@Z
	??$?0$$V@?$_Compressed_pair@V?$allocator@Ullm_bigram_bpe@@@std@@V?$_Vector_val@U?$_Simple_types@Ullm_bigram_bpe@@@std@@@2@$00@std@@QEAA@U_Zero_then_variadic_args_t@1@@Z
	??$?0$$V@?$_Compressed_pair@V?$allocator@Ullm_bigram_spm@@@std@@V?$_Vector_val@U?$_Simple_types@Ullm_bigram_spm@@@std@@@2@$00@std@@QEAA@U_Zero_then_variadic_args_t@1@@Z
	??$?0$$V@?$_Compressed_pair@V?$allocator@Ullm_symbol@@@std@@V?$_Vector_val@U?$_Simple_types@Ullm_symbol@@@std@@@2@$00@std@@QEAA@U_Zero_then_variadic_args_t@1@@Z
	??$?0$$V@?$_Compressed_pair@V?$allocator@Utoken_data@llama_vocab@@@std@@V?$_Vector_val@U?$_Simple_types@Utoken_data@llama_vocab@@@std@@@2@$00@std@@QEAA@U_Zero_then_variadic_args_t@1@@Z
	??$?0$$V@?$_Compressed_pair@V?$allocator@V?$basic_string@DU?$char_traits@D@std@@V?$allocator@D@2@@std@@@std@@V?$_Vector_val@U?$_Simple_types@V?$basic_string@DU?$char_traits@D@std@@V?$allocator@D@2@@std@@@std@@@2@$00@std@@QEAA@U_Zero_then_variadic_args_t@1@@Z
	??$?0$$V@?$_Compressed_pair@V?$allocator@V?$future@U?$pair@PEAUggml_tensor@@_N@std@@@std@@@std@@V?$_Vector_val@U?$_Simple_types@V?$future@U?$pair@PEAUggml_tensor@@_N@std@@@std@@@std@@@2@$00@std@@QEAA@U_Zero_then_variadic_args_t@1@@Z
	??$?0$$V@?$_Compressed_pair@V?$allocator@V?$set@HU?$less@H@std@@V?$allocator@H@2@@std@@@std@@V?$_Vector_val@U?$_Simple_types@V?$set@HU?$less@H@std@@V?$allocator@H@2@@std@@@std@@@2@$00@std@@QEAA@U_Zero_then_variadic_args_t@1@@Z
	??$?0$$V@?$_Compressed_pair@V?$allocator@V?$sub_match@PEBD@std@@@std@@V?$_Vector_val@U?$_Simple_types@V?$sub_match@PEBD@std@@@std@@@2@$00@std@@QEAA@U_Zero_then_variadic_args_t@1@@Z
	??$?0$$V@?$_Compressed_pair@V?$allocator@V?$sub_match@PEB_W@std@@@std@@V?$_Vector_val@U?$_Simple_types@V?$sub_match@PEB_W@std@@@std@@@2@$00@std@@QEAA@U_Zero_then_variadic_args_t@1@@Z
	??$?0$$V@?$_Compressed_pair@V?$allocator@V?$unique_ptr@Ullama_file@@U?$default_delete@Ullama_file@@@std@@@std@@@std@@V?$_Vector_val@U?$_Simple_types@V?$unique_ptr@Ullama_file@@U?$default_delete@Ullama_file@@@std@@@std@@@std@@@2@$00@std@@QEAA@U_Zero_then_variadic_args_t@1@@Z
	??$?0$$V@?$_Compressed_pair@V?$allocator@V?$unique_ptr@Ullama_mlock@@U?$default_delete@Ullama_mlock@@@std@@@std@@@std@@V?$_Vector_val@U?$_Simple_types@V?$unique_ptr@Ullama_mlock@@U?$default_delete@Ullama_mlock@@@std@@@std@@@std@@@2@$00@std@@QEAA@U_Zero_then_variadic_args_t@1@@Z
	??$?0$$V@?$_Compressed_pair@V?$allocator@V?$unique_ptr@Ullama_mmap@@U?$default_delete@Ullama_mmap@@@std@@@std@@@std@@V?$_Vector_val@U?$_Simple_types@V?$unique_ptr@Ullama_mmap@@U?$default_delete@Ullama_mmap@@@std@@@std@@@std@@@2@$00@std@@QEAA@U_Zero_then_variadic_args_t@1@@Z
	??$?0$$V@?$_Compressed_pair@V?$allocator@V?$vector@PEBUllama_grammar_element@@V?$allocator@PEBUllama_grammar_element@@@std@@@std@@@std@@V?$_Vector_val@U?$_Simple_types@V?$vector@PEBUllama_grammar_element@@V?$allocator@PEBUllama_grammar_element@@@std@@@std@@@std@@@2@$00@std@@QEAA@U_Zero_then_variadic_args_t@1@@Z
	??$?0$$V@?$_Compressed_pair@V?$allocator@Vthread@std@@@std@@V?$_Vector_val@U?$_Simple_types@Vthread@std@@@std@@@2@$00@std@@QEAA@U_Zero_then_variadic_args_t@1@@Z
	??$?0$$V@?$_Compressed_pair@V?$allocator@_K@std@@V?$_Vector_val@U?$_Simple_types@_K@std@@@2@$00@std@@QEAA@U_Zero_then_variadic_args_t@1@@Z
	??$?0$$V@?$_Compressed_pair@V?$allocator@_W@std@@V?$_String_val@U?$_Simple_types@_W@std@@@2@$00@std@@QEAA@U_Zero_then_variadic_args_t@1@@Z
	??$?0AEADUnaive_trie@@$0A@@?$pair@DUnaive_trie@@@std@@QEAA@AEAD$$QEAUnaive_trie@@@Z
	??$?0AEAHAEAH$0A@@?$pair@HH@std@@QEAA@AEAH0@Z
	??$?0AEAIAEAI$0A@@?$pair@II@std@@QEAA@AEAI0@Z
	??$?0AEAIAEAPEAUggml_backend_buffer@@$0A@@?$pair@$$CBIPEAUggml_backend_buffer@@@std@@QEAA@AEAIAEAPEAUggml_backend_buffer@@@Z
	??$?0AEAIAEAPEAUggml_backend_buffer@@@?$_List_node_emplace_op2@V?$allocator@U?$_List_node@U?$pair@$$CBIPEAUggml_backend_buffer@@@std@@PEAX@std@@@std@@@std@@QEAA@AEAV?$allocator@U?$_List_node@U?$pair@$$CBIPEAUggml_backend_buffer@@@std@@PEAX@std@@@1@AEAIAEAPEAUggml_backend_buffer@@@Z
	??$?0AEAIAEBI$0A@@?$pair@II@std@@QEAA@AEAIAEBI@Z
	??$?0AEAPEAHAEAPEAH$0A@@?$pair@PEAHPEAH@std@@QEAA@AEAPEAH0@Z
	??$?0AEAPEAU?$_List_node@U?$pair@$$CBEV?$basic_string@DU?$char_traits@D@std@@V?$allocator@D@2@@std@@@std@@PEAX@std@@_N$0A@@?$pair@PEAU?$_List_node@U?$pair@$$CBEV?$basic_string@DU?$char_traits@D@std@@V?$allocator@D@2@@std@@@std@@PEAX@std@@_N@std@@QEAA@AEAPEAU?$_List_node@U?$pair@$$CBEV?$basic_string@DU?$char_traits@D@std@@V?$allocator@D@2@@std@@@std@@PEAX@1@$$QEA_N@Z
	??$?0AEAPEAU?$_List_node@U?$pair@$$CBHH@std@@PEAX@std@@_N$0A@@?$pair@PEAU?$_List_node@U?$pair@$$CBHH@std@@PEAX@std@@_N@std@@QEAA@AEAPEAU?$_List_node@U?$pair@$$CBHH@std@@PEAX@1@$$QEA_N@Z
	??$?0AEAPEAU?$_List_node@U?$pair@$$CBV?$basic_string@DU?$char_traits@D@std@@V?$allocator@D@2@@std@@E@std@@PEAX@std@@_N$0A@@?$pair@PEAU?$_List_node@U?$pair@$$CBV?$basic_string@DU?$char_traits@D@std@@V?$allocator@D@2@@std@@E@std@@PEAX@std@@_N@std@@QEAA@AEAPEAU?$_List_node@U?$pair@$$CBV?$basic_string@DU?$char_traits@D@std@@V?$allocator@D@2@@std@@E@std@@PEAX@1@$$QEA_N@Z
	??$?0AEAPEAU?$_List_node@U?$pair@$$CBV?$basic_string@DU?$char_traits@D@std@@V?$allocator@D@2@@std@@H@std@@PEAX@std@@_N$0A@@?$pair@PEAU?$_List_node@U?$pair@$$CBV?$basic_string@DU?$char_traits@D@std@@V?$allocator@D@2@@std@@H@std@@PEAX@std@@_N@std@@QEAA@AEAPEAU?$_List_node@U?$pair@$$CBV?$basic_string@DU?$char_traits@D@std@@V?$allocator@D@2@@std@@H@std@@PEAX@1@$$QEA_N@Z
	??$?0AEAPEAU?$_List_node@U?$pair@$$CBV?$basic_string@DU?$char_traits@D@std@@V?$allocator@D@2@@std@@Ullama_lora_weight@@@std@@PEAX@std@@_N$0A@@?$pair@PEAU?$_List_node@U?$pair@$$CBV?$basic_string@DU?$char_traits@D@std@@V?$allocator@D@2@@std@@Ullama_lora_weight@@@std@@PEAX@std@@_N@std@@QEAA@AEAPEAU?$_List_node@U?$pair@$$CBV?$basic_string@DU?$char_traits@D@std@@V?$allocator@D@2@@std@@Ullama_lora_weight@@@std@@PEAX@1@$$QEA_N@Z
	??$?0AEAPEAU?$_List_node@U?$pair@QEAUllama_lora_adapter@@M@std@@PEAX@std@@_N$0A@@?$pair@PEAU?$_List_node@U?$pair@QEAUllama_lora_adapter@@M@std@@PEAX@std@@_N@std@@QEAA@AEAPEAU?$_List_node@U?$pair@QEAUllama_lora_adapter@@M@std@@PEAX@1@$$QEA_N@Z
	??$?0AEAPEAU?$_Tree_node@HPEAX@std@@AEAPEAU01@$0A@@?$pair@PEAU?$_Tree_node@HPEAX@std@@PEAU12@@std@@QEAA@AEAPEAU?$_Tree_node@HPEAX@1@0@Z
	??$?0AEAPEAU?$_Tree_node@HPEAX@std@@_N$0A@@?$pair@PEAU?$_Tree_node@HPEAX@std@@_N@std@@QEAA@AEAPEAU?$_Tree_node@HPEAX@1@$$QEA_N@Z
	??$?0AEAPEAU?$_Tree_node@PEAUllama_lora_adapter@@PEAX@std@@_N$0A@@?$pair@PEAU?$_Tree_node@PEAUllama_lora_adapter@@PEAX@std@@_N@std@@QEAA@AEAPEAU?$_Tree_node@PEAUllama_lora_adapter@@PEAX@1@$$QEA_N@Z
	??$?0AEAPEAU?$_Tree_node@U?$pair@$$CBDUnaive_trie@@@std@@PEAX@std@@_N$0A@@?$pair@PEAU?$_Tree_node@U?$pair@$$CBDUnaive_trie@@@std@@PEAX@std@@_N@std@@QEAA@AEAPEAU?$_Tree_node@U?$pair@$$CBDUnaive_trie@@@std@@PEAX@1@$$QEA_N@Z
	??$?0AEAPEAU?$_Tree_node@U?$pair@$$CBU?$pair@V?$basic_string@DU?$char_traits@D@std@@V?$allocator@D@2@@std@@V12@@std@@H@std@@PEAX@std@@_N$0A@@?$pair@PEAU?$_Tree_node@U?$pair@$$CBU?$pair@V?$basic_string@DU?$char_traits@D@std@@V?$allocator@D@2@@std@@V12@@std@@H@std@@PEAX@std@@_N@std@@QEAA@AEAPEAU?$_Tree_node@U?$pair@$$CBU?$pair@V?$basic_string@DU?$char_traits@D@std@@V?$allocator@D@2@@std@@V12@@std@@H@std@@PEAX@1@$$QEA_N@Z
	??$?0AEAPEAU?$_Tree_node@V?$basic_string@DU?$char_traits@D@std@@V?$allocator@D@2@@std@@PEAX@std@@_N$0A@@?$pair@PEAU?$_Tree_node@V?$basic_string@DU?$char_traits@D@std@@V?$allocator@D@2@@std@@PEAX@std@@_N@std@@QEAA@AEAPEAU?$_Tree_node@V?$basic_string@DU?$char_traits@D@std@@V?$allocator@D@2@@std@@PEAX@1@$$QEA_N@Z
	??$?0AEAPEAU_TaskProcHandle@details@Concurrency@@@?$_Compressed_pair@U?$default_delete@U_TaskProcHandle@details@Concurrency@@@std@@PEAU_TaskProcHandle@details@Concurrency@@$00@std@@QEAA@U_Zero_then_variadic_args_t@1@AEAPEAU_TaskProcHandle@details@Concurrency@@@Z
	??$?0AEAPEAUggml_context@@AEAV?$unordered_map@IPEAUggml_backend_buffer@@U?$hash@I@std@@U?$equal_to@I@3@V?$allocator@U?$pair@$$CBIPEAUggml_backend_buffer@@@std@@@3@@std@@$0A@@?$pair@PEAUggml_context@@V?$unordered_map@IPEAUggml_backend_buffer@@U?$hash@I@std@@U?$equal_to@I@3@V?$allocator@U?$pair@$$CBIPEAUggml_backend_buffer@@@std@@@3@@std@@@std@@QEAA@AEAPEAUggml_context@@AEAV?$unordered_map@IPEAUggml_backend_buffer@@U?$hash@I@std@@U?$equal_to@I@3@V?$allocator@U?$pair@$$CBIPEAUggml_backend_buffer@@@std@@@3@@1@@Z
	??$?0AEAPEAUllama_file@@@?$_Compressed_pair@U?$default_delete@Ullama_file@@@std@@PEAUllama_file@@$00@std@@QEAA@U_Zero_then_variadic_args_t@1@AEAPEAUllama_file@@@Z
	??$?0AEAPEAUllama_mlock@@@?$_Compressed_pair@U?$default_delete@Ullama_mlock@@@std@@PEAUllama_mlock@@$00@std@@QEAA@U_Zero_then_variadic_args_t@1@AEAPEAUllama_mlock@@@Z
	??$?0AEAPEAUllama_mmap@@@?$_Compressed_pair@U?$default_delete@Ullama_mmap@@@std@@PEAUllama_mmap@@$00@std@@QEAA@U_Zero_then_variadic_args_t@1@AEAPEAUllama_mmap@@@Z
	??$?0AEAPEAUllama_sbatch_seq@@AEAPEAU0@$0A@@?$pair@PEAUllama_sbatch_seq@@PEAU1@@std@@QEAA@AEAPEAUllama_sbatch_seq@@0@Z
	??$?0AEAPEAUllama_token_data@@AEAPEAU0@$0A@@?$pair@PEAUllama_token_data@@PEAU1@@std@@QEAA@AEAPEAUllama_token_data@@0@Z
	??$?0AEAPEAV_CancellationTokenState@details@Concurrency@@AEAUscheduler_ptr@2@@?$_Ref_count_obj2@U?$_Task_impl@E@details@Concurrency@@@std@@QEAA@AEAPEAV_CancellationTokenState@details@Concurrency@@AEAUscheduler_ptr@4@@Z
	??$?0AEAPEAV_Facet_base@std@@@?$_Compressed_pair@U?$default_delete@V_Facet_base@std@@@std@@PEAV_Facet_base@2@$00@std@@QEAA@U_Zero_then_variadic_args_t@1@AEAPEAV_Facet_base@1@@Z
	??$?0AEAPEAV_Node_assert@std@@@?$_Compressed_pair@U?$default_delete@V_Node_assert@std@@@std@@PEAV_Node_assert@2@$00@std@@QEAA@U_Zero_then_variadic_args_t@1@AEAPEAV_Node_assert@1@@Z
	??$?0AEAPEAV_PPLTaskChore@_DefaultPPLTaskScheduler@details@Concurrency@@@?$_Compressed_pair@U?$default_delete@V_PPLTaskChore@_DefaultPPLTaskScheduler@details@Concurrency@@@std@@PEAV_PPLTaskChore@_DefaultPPLTaskScheduler@details@Concurrency@@$00@std@@QEAA@U_Zero_then_variadic_args_t@1@AEAPEAV_PPLTaskChore@_DefaultPPLTaskScheduler@details@Concurrency@@@Z
	??$?0AEAPEA_KAEAPEA_K$0A@@?$pair@PEA_KPEA_K@std@@QEAA@AEAPEA_K0@Z
	??$?0AEAPEBDAEA_K$0A@@?$pair@PEBD_K@std@@QEAA@AEAPEBDAEA_K@Z
	??$?0AEAPEBDAEBV?$basic_string@DU?$char_traits@D@std@@V?$allocator@D@2@@std@@$0A@@?$pair@$$CBV?$basic_string@DU?$char_traits@D@std@@V?$allocator@D@2@@std@@V12@@std@@QEAA@AEAPEBDAEBV?$basic_string@DU?$char_traits@D@std@@V?$allocator@D@2@@1@@Z
	??$?0AEAPEBDAEBV?$basic_string@DU?$char_traits@D@std@@V?$allocator@D@2@@std@@@?$_List_node_emplace_op2@V?$allocator@U?$_List_node@U?$pair@$$CBV?$basic_string@DU?$char_traits@D@std@@V?$allocator@D@2@@std@@V12@@std@@PEAX@std@@@std@@@std@@QEAA@AEAV?$allocator@U?$_List_node@U?$pair@$$CBV?$basic_string@DU?$char_traits@D@std@@V?$allocator@D@2@@std@@V12@@std@@PEAX@std@@@1@AEAPEBDAEBV?$basic_string@DU?$char_traits@D@std@@V?$allocator@D@2@@1@@Z
	??$?0AEAV?$basic_string@DU?$char_traits@D@std@@V?$allocator@D@2@@std@@AEAV01@$0A@@?$pair@V?$basic_string@DU?$char_traits@D@std@@V?$allocator@D@2@@std@@V12@@std@@QEAA@AEAV?$basic_string@DU?$char_traits@D@std@@V?$allocator@D@2@@1@0@Z
	??$?0AEAW4ggml_type@@@?$_Tuple_val@W4ggml_type@@@std@@QEAA@AEAW4ggml_type@@@Z
	??$?0AEAY05$$CBDW4<unnamed-enum-UNDEFINED>@codepoint_flags@@$0A@@?$pair@$$CBV?$basic_string@DU?$char_traits@D@std@@V?$allocator@D@2@@std@@H@std@@QEAA@AEAY05$$CBD$$QEAW4<unnamed-enum-UNDEFINED>@codepoint_flags@@@Z
	??$?0AEA_K@?$_Tuple_val@_K@std@@QEAA@AEA_K@Z
	??$?0AEA_KH$0A@@?$pair@_K_K@std@@QEAA@AEA_K$$QEAH@Z
	??$?0AEBH$$Z$$V@?$pair@$$CBHH@std@@QEAA@Upiecewise_construct_t@1@V?$tuple@AEBH@1@V?$tuple@$$V@1@@Z
	??$?0AEBH$$Z$$V@?$pair@$$CBHV?$vector@MV?$allocator@M@std@@@std@@@std@@QEAA@Upiecewise_construct_t@1@V?$tuple@AEBH@1@V?$tuple@$$V@1@@Z
	??$?0AEBH$0A@@?$tuple@AEBH@std@@QEAA@AEBH@Z
	??$?0AEBH@?$_Tree_temp_node@V?$allocator@U?$_Tree_node@HPEAX@std@@@std@@@std@@QEAA@AEAV?$allocator@U?$_Tree_node@HPEAX@std@@@1@PEAU?$_Tree_node@HPEAX@1@AEBH@Z
	??$?0AEBH@?$_Tuple_val@AEBH@std@@QEAA@AEBH@Z
	??$?0AEBI@?$_List_node_emplace_op2@V?$allocator@U?$_List_node@IPEAX@std@@@std@@@std@@QEAA@AEAV?$allocator@U?$_List_node@IPEAX@std@@@1@AEBI@Z
	??$?0AEBQEAU?$_Tree_node@U?$pair@$$CBHV?$vector@MV?$allocator@M@std@@@std@@@std@@PEAX@std@@_N$0A@@?$pair@PEAU?$_Tree_node@U?$pair@$$CBHV?$vector@MV?$allocator@M@std@@@std@@@std@@PEAX@std@@_N@std@@QEAA@AEBQEAU?$_Tree_node@U?$pair@$$CBHV?$vector@MV?$allocator@M@std@@@std@@@std@@PEAX@1@$$QEA_N@Z
	??$?0AEBQEAU?$_Tree_node@U?$pair@$$CBV?$basic_string@DU?$char_traits@D@std@@V?$allocator@D@2@@std@@U?$pair@HH@2@@std@@PEAX@std@@_N$0A@@?$pair@PEAU?$_Tree_node@U?$pair@$$CBV?$basic_string@DU?$char_traits@D@std@@V?$allocator@D@2@@std@@U?$pair@HH@2@@std@@PEAX@std@@_N@std@@QEAA@AEBQEAU?$_Tree_node@U?$pair@$$CBV?$basic_string@DU?$char_traits@D@std@@V?$allocator@D@2@@std@@U?$pair@HH@2@@std@@PEAX@1@$$QEA_N@Z
	??$?0AEBQEAU?$_Tree_node@U?$pair@$$CBV?$basic_string@DU?$char_traits@D@std@@V?$allocator@D@2@@std@@Ullama_lora_weight@@@std@@PEAX@std@@_N$0A@@?$pair@PEAU?$_Tree_node@U?$pair@$$CBV?$basic_string@DU?$char_traits@D@std@@V?$allocator@D@2@@std@@Ullama_lora_weight@@@std@@PEAX@std@@_N@std@@QEAA@AEBQEAU?$_Tree_node@U?$pair@$$CBV?$basic_string@DU?$char_traits@D@std@@V?$allocator@D@2@@std@@Ullama_lora_weight@@@std@@PEAX@1@$$QEA_N@Z
	??$?0AEBQEAU?$_Tree_node@U?$pair@$$CBW4ggml_type@@I@std@@PEAX@std@@_N$0A@@?$pair@PEAU?$_Tree_node@U?$pair@$$CBW4ggml_type@@I@std@@PEAX@std@@_N@std@@QEAA@AEBQEAU?$_Tree_node@U?$pair@$$CBW4ggml_type@@I@std@@PEAX@1@$$QEA_N@Z
	??$?0AEBQEAU?$_Tree_node@U?$pair@QEAUggml_backend_buffer_type@@H@std@@PEAX@std@@_N$0A@@?$pair@PEAU?$_Tree_node@U?$pair@QEAUggml_backend_buffer_type@@H@std@@PEAX@std@@_N@std@@QEAA@AEBQEAU?$_Tree_node@U?$pair@QEAUggml_backend_buffer_type@@H@std@@PEAX@1@$$QEA_N@Z
	??$?0AEBQEAU?$_Tree_node@U?$pair@QEAUggml_backend_buffer_type@@PEAUggml_context@@@std@@PEAX@std@@_N$0A@@?$pair@PEAU?$_Tree_node@U?$pair@QEAUggml_backend_buffer_type@@PEAUggml_context@@@std@@PEAX@std@@_N@std@@QEAA@AEBQEAU?$_Tree_node@U?$pair@QEAUggml_backend_buffer_type@@PEAUggml_context@@@std@@PEAX@1@$$QEA_N@Z
	??$?0AEBQEAUggml_backend_buffer_type@@$$Z$$V@?$pair@QEAUggml_backend_buffer_type@@H@std@@QEAA@Upiecewise_construct_t@1@V?$tuple@AEBQEAUggml_backend_buffer_type@@@1@V?$tuple@$$V@1@@Z
	??$?0AEBQEAUggml_backend_buffer_type@@$$Z$$V@?$pair@QEAUggml_backend_buffer_type@@PEAUggml_context@@@std@@QEAA@Upiecewise_construct_t@1@V?$tuple@AEBQEAUggml_backend_buffer_type@@@1@V?$tuple@$$V@1@@Z
	??$?0AEBQEAUggml_backend_buffer_type@@$0A@@?$tuple@AEBQEAUggml_backend_buffer_type@@@std@@QEAA@AEBQEAUggml_backend_buffer_type@@@Z
	??$?0AEBQEAUggml_backend_buffer_type@@@?$_Tuple_val@AEBQEAUggml_backend_buffer_type@@@std@@QEAA@AEBQEAUggml_backend_buffer_type@@@Z
	??$?0AEBQEAUggml_tensor@@_N$0A@@?$pair@PEAUggml_tensor@@_N@std@@QEAA@AEBQEAUggml_tensor@@$$QEA_N@Z
	??$?0AEBQEAUllama_lora_adapter@@$$Z$$V@?$pair@QEAUllama_lora_adapter@@M@std@@QEAA@Upiecewise_construct_t@1@V?$tuple@AEBQEAUllama_lora_adapter@@@1@V?$tuple@$$V@1@@Z
	??$?0AEBQEAUllama_lora_adapter@@$0A@@?$tuple@AEBQEAUllama_lora_adapter@@@std@@QEAA@AEBQEAUllama_lora_adapter@@@Z
	??$?0AEBQEAUllama_lora_adapter@@@?$_Tuple_val@AEBQEAUllama_lora_adapter@@@std@@QEAA@AEBQEAUllama_lora_adapter@@@Z
	??$?0AEBU?$less@D@std@@U_Zero_then_variadic_args_t@1@@?$_Compressed_pair@U?$less@D@std@@V?$_Compressed_pair@V?$allocator@U?$_Tree_node@U?$pair@$$CBDUnaive_trie@@@std@@PEAX@std@@@std@@V?$_Tree_val@U?$_Tree_simple_types@U?$pair@$$CBDUnaive_trie@@@std@@@std@@@2@$00@2@$00@std@@QEAA@U_One_then_variadic_args_t@1@AEBU?$less@D@1@$$QEAU_Zero_then_variadic_args_t@1@@Z
	??$?0AEBU?$less@H@std@@U_Zero_then_variadic_args_t@1@@?$_Compressed_pair@U?$less@H@std@@V?$_Compressed_pair@V?$allocator@U?$_Tree_node@HPEAX@std@@@std@@V?$_Tree_val@U?$_Tree_simple_types@H@std@@@2@$00@2@$00@std@@QEAA@U_One_then_variadic_args_t@1@AEBU?$less@H@1@$$QEAU_Zero_then_variadic_args_t@1@@Z
	??$?0AEBU?$less@H@std@@U_Zero_then_variadic_args_t@1@@?$_Compressed_pair@U?$less@H@std@@V?$_Compressed_pair@V?$allocator@U?$_Tree_node@U?$pair@$$CBHH@std@@PEAX@std@@@std@@V?$_Tree_val@U?$_Tree_simple_types@U?$pair@$$CBHH@std@@@std@@@2@$00@2@$00@std@@QEAA@U_One_then_variadic_args_t@1@AEBU?$less@H@1@$$QEAU_Zero_then_variadic_args_t@1@@Z
	??$?0AEBU?$less@H@std@@U_Zero_then_variadic_args_t@1@@?$_Compressed_pair@U?$less@H@std@@V?$_Compressed_pair@V?$allocator@U?$_Tree_node@U?$pair@$$CBHV?$basic_string@DU?$char_traits@D@std@@V?$allocator@D@2@@std@@@std@@PEAX@std@@@std@@V?$_Tree_val@U?$_Tree_simple_types@U?$pair@$$CBHV?$basic_string@DU?$char_traits@D@std@@V?$allocator@D@2@@std@@@std@@@std@@@2@$00@2@$00@std@@QEAA@U_One_then_variadic_args_t@1@AEBU?$less@H@1@$$QEAU_Zero_then_variadic_args_t@1@@Z
	??$?0AEBU?$less@H@std@@U_Zero_then_variadic_args_t@1@@?$_Compressed_pair@U?$less@H@std@@V?$_Compressed_pair@V?$allocator@U?$_Tree_node@U?$pair@$$CBHV?$vector@MV?$allocator@M@std@@@std@@@std@@PEAX@std@@@std@@V?$_Tree_val@U?$_Tree_simple_types@U?$pair@$$CBHV?$vector@MV?$allocator@M@std@@@std@@@std@@@std@@@2@$00@2@$00@std@@QEAA@U_One_then_variadic_args_t@1@AEBU?$less@H@1@$$QEAU_Zero_then_variadic_args_t@1@@Z
	??$?0AEBU?$less@PEAUggml_backend_buffer_type@@@std@@U_Zero_then_variadic_args_t@1@@?$_Compressed_pair@U?$less@PEAUggml_backend_buffer_type@@@std@@V?$_Compressed_pair@V?$allocator@U?$_Tree_node@U?$pair@QEAUggml_backend_buffer_type@@H@std@@PEAX@std@@@std@@V?$_Tree_val@U?$_Tree_simple_types@U?$pair@QEAUggml_backend_buffer_type@@H@std@@@std@@@2@$00@2@$00@std@@QEAA@U_One_then_variadic_args_t@1@AEBU?$less@PEAUggml_backend_buffer_type@@@1@$$QEAU_Zero_then_variadic_args_t@1@@Z
	??$?0AEBU?$less@PEAUggml_backend_buffer_type@@@std@@U_Zero_then_variadic_args_t@1@@?$_Compressed_pair@U?$less@PEAUggml_backend_buffer_type@@@std@@V?$_Compressed_pair@V?$allocator@U?$_Tree_node@U?$pair@QEAUggml_backend_buffer_type@@PEAUggml_context@@@std@@PEAX@std@@@std@@V?$_Tree_val@U?$_Tree_simple_types@U?$pair@QEAUggml_backend_buffer_type@@PEAUggml_context@@@std@@@std@@@2@$00@2@$00@std@@QEAA@U_One_then_variadic_args_t@1@AEBU?$less@PEAUggml_backend_buffer_type@@@1@$$QEAU_Zero_then_variadic_args_t@1@@Z
	??$?0AEBU?$less@PEAUllama_lora_adapter@@@std@@U_Zero_then_variadic_args_t@1@@?$_Compressed_pair@U?$less@PEAUllama_lora_adapter@@@std@@V?$_Compressed_pair@V?$allocator@U?$_Tree_node@PEAUllama_lora_adapter@@PEAX@std@@@std@@V?$_Tree_val@U?$_Tree_simple_types@PEAUllama_lora_adapter@@@std@@@2@$00@2@$00@std@@QEAA@U_One_then_variadic_args_t@1@AEBU?$less@PEAUllama_lora_adapter@@@1@$$QEAU_Zero_then_variadic_args_t@1@@Z
	??$?0AEBU?$less@U?$pair@V?$basic_string@DU?$char_traits@D@std@@V?$allocator@D@2@@std@@V12@@std@@@std@@U_Zero_then_variadic_args_t@1@@?$_Compressed_pair@U?$less@U?$pair@V?$basic_string@DU?$char_traits@D@std@@V?$allocator@D@2@@std@@V12@@std@@@std@@V?$_Compressed_pair@V?$allocator@U?$_Tree_node@U?$pair@$$CBU?$pair@V?$basic_string@DU?$char_traits@D@std@@V?$allocator@D@2@@std@@V12@@std@@H@std@@PEAX@std@@@std@@V?$_Tree_val@U?$_Tree_simple_types@U?$pair@$$CBU?$pair@V?$basic_string@DU?$char_traits@D@std@@V?$allocator@D@2@@std@@V12@@std@@H@std@@@std@@@2@$00@2@$00@std@@QEAA@U_One_then_variadic_args_t@1@AEBU?$less@U?$pair@V?$basic_string@DU?$char_traits@D@std@@V?$allocator@D@2@@std@@V12@@std@@@1@$$QEAU_Zero_then_variadic_args_t@1@@Z
	??$?0AEBU?$less@V?$basic_string@DU?$char_traits@D@std@@V?$allocator@D@2@@std@@@std@@U_Zero_then_variadic_args_t@1@@?$_Compressed_pair@U?$less@V?$basic_string@DU?$char_traits@D@std@@V?$allocator@D@2@@std@@@std@@V?$_Compressed_pair@V?$allocator@U?$_Tree_node@U?$pair@$$CBV?$basic_string@DU?$char_traits@D@std@@V?$allocator@D@2@@std@@H@std@@PEAX@std@@@std@@V?$_Tree_val@U?$_Tree_simple_types@U?$pair@$$CBV?$basic_string@DU?$char_traits@D@std@@V?$allocator@D@2@@std@@H@std@@@std@@@2@$00@2@$00@std@@QEAA@U_One_then_variadic_args_t@1@AEBU?$less@V?$basic_string@DU?$char_traits@D@std@@V?$allocator@D@2@@std@@@1@$$QEAU_Zero_then_variadic_args_t@1@@Z
	??$?0AEBU?$less@V?$basic_string@DU?$char_traits@D@std@@V?$allocator@D@2@@std@@@std@@U_Zero_then_variadic_args_t@1@@?$_Compressed_pair@U?$less@V?$basic_string@DU?$char_traits@D@std@@V?$allocator@D@2@@std@@@std@@V?$_Compressed_pair@V?$allocator@U?$_Tree_node@U?$pair@$$CBV?$basic_string@DU?$char_traits@D@std@@V?$allocator@D@2@@std@@U?$pair@HH@2@@std@@PEAX@std@@@std@@V?$_Tree_val@U?$_Tree_simple_types@U?$pair@$$CBV?$basic_string@DU?$char_traits@D@std@@V?$allocator@D@2@@std@@U?$pair@HH@2@@std@@@std@@@2@$00@2@$00@std@@QEAA@U_One_then_variadic_args_t@1@AEBU?$less@V?$basic_string@DU?$char_traits@D@std@@V?$allocator@D@2@@std@@@1@$$QEAU_Zero_then_variadic_args_t@1@@Z
	??$?0AEBU?$less@V?$basic_string@DU?$char_traits@D@std@@V?$allocator@D@2@@std@@@std@@U_Zero_then_variadic_args_t@1@@?$_Compressed_pair@U?$less@V?$basic_string@DU?$char_traits@D@std@@V?$allocator@D@2@@std@@@std@@V?$_Compressed_pair@V?$allocator@U?$_Tree_node@U?$pair@$$CBV?$basic_string@DU?$char_traits@D@std@@V?$allocator@D@2@@std@@Ullama_lora_weight@@@std@@PEAX@std@@@std@@V?$_Tree_val@U?$_Tree_simple_types@U?$pair@$$CBV?$basic_string@DU?$char_traits@D@std@@V?$allocator@D@2@@std@@Ullama_lora_weight@@@std@@@std@@@2@$00@2@$00@std@@QEAA@U_One_then_variadic_args_t@1@AEBU?$less@V?$basic_string@DU?$char_traits@D@std@@V?$allocator@D@2@@std@@@1@$$QEAU_Zero_then_variadic_args_t@1@@Z
	??$?0AEBU?$less@V?$basic_string@DU?$char_traits@D@std@@V?$allocator@D@2@@std@@@std@@U_Zero_then_variadic_args_t@1@@?$_Compressed_pair@U?$less@V?$basic_string@DU?$char_traits@D@std@@V?$allocator@D@2@@std@@@std@@V?$_Compressed_pair@V?$allocator@U?$_Tree_node@V?$basic_string@DU?$char_traits@D@std@@V?$allocator@D@2@@std@@PEAX@std@@@std@@V?$_Tree_val@U?$_Tree_simple_types@V?$basic_string@DU?$char_traits@D@std@@V?$allocator@D@2@@std@@@std@@@2@$00@2@$00@std@@QEAA@U_One_then_variadic_args_t@1@AEBU?$less@V?$basic_string@DU?$char_traits@D@std@@V?$allocator@D@2@@std@@@1@$$QEAU_Zero_then_variadic_args_t@1@@Z
	??$?0AEBU?$less@W4ggml_type@@@std@@U_Zero_then_variadic_args_t@1@@?$_Compressed_pair@U?$less@W4ggml_type@@@std@@V?$_Compressed_pair@V?$allocator@U?$_Tree_node@U?$pair@$$CBW4ggml_type@@I@std@@PEAX@std@@@std@@V?$_Tree_val@U?$_Tree_simple_types@U?$pair@$$CBW4ggml_type@@I@std@@@std@@@2@$00@2@$00@std@@QEAA@U_One_then_variadic_args_t@1@AEBU?$less@W4ggml_type@@@1@$$QEAU_Zero_then_variadic_args_t@1@@Z
	??$?0AEBU?$less@W4llama_rope_scaling_type@@@std@@U_Zero_then_variadic_args_t@1@@?$_Compressed_pair@U?$less@W4llama_rope_scaling_type@@@std@@V?$_Compressed_pair@V?$allocator@U?$_Tree_node@U?$pair@$$CBW4llama_rope_scaling_type@@PEBD@std@@PEAX@std@@@std@@V?$_Tree_val@U?$_Tree_simple_types@U?$pair@$$CBW4llama_rope_scaling_type@@PEBD@std@@@std@@@2@$00@2@$00@std@@QEAA@U_One_then_variadic_args_t@1@AEBU?$less@W4llama_rope_scaling_type@@@1@$$QEAU_Zero_then_variadic_args_t@1@@Z
	??$?0AEBU?$less@W4llm_arch@@@std@@U_Zero_then_variadic_args_t@1@@?$_Compressed_pair@U?$less@W4llm_arch@@@std@@V?$_Compressed_pair@V?$allocator@U?$_Tree_node@U?$pair@$$CBW4llm_arch@@PEBD@std@@PEAX@std@@@std@@V?$_Tree_val@U?$_Tree_simple_types@U?$pair@$$CBW4llm_arch@@PEBD@std@@@std@@@2@$00@2@$00@std@@QEAA@U_One_then_variadic_args_t@1@AEBU?$less@W4llm_arch@@@1@$$QEAU_Zero_then_variadic_args_t@1@@Z
	??$?0AEBU?$less@W4llm_arch@@@std@@U_Zero_then_variadic_args_t@1@@?$_Compressed_pair@U?$less@W4llm_arch@@@std@@V?$_Compressed_pair@V?$allocator@U?$_Tree_node@U?$pair@$$CBW4llm_arch@@V?$map@W4llm_tensor@@V?$basic_string@DU?$char_traits@D@std@@V?$allocator@D@2@@std@@U?$less@W4llm_tensor@@@3@V?$allocator@U?$pair@$$CBW4llm_tensor@@V?$basic_string@DU?$char_traits@D@std@@V?$allocator@D@2@@std@@@std@@@3@@std@@@std@@PEAX@std@@@std@@V?$_Tree_val@U?$_Tree_simple_types@U?$pair@$$CBW4llm_arch@@V?$map@W4llm_tensor@@V?$basic_string@DU?$char_traits@D@std@@V?$allocator@D@2@@std@@U?$less@W4llm_tensor@@@3@V?$allocator@U?$pair@$$CBW4llm_tensor@@V?$basic_string@DU?$char_traits@D@std@@V?$allocator@D@2@@std@@@std@@@3@@std@@@std@@@std@@@2@$00@2@$00@std@@QEAA@U_One_then_variadic_args_t@1@AEBU?$less@W4llm_arch@@@1@$$QEAU_Zero_then_variadic_args_t@1@@Z
	??$?0AEBU?$less@W4llm_kv@@@std@@U_Zero_then_variadic_args_t@1@@?$_Compressed_pair@U?$less@W4llm_kv@@@std@@V?$_Compressed_pair@V?$allocator@U?$_Tree_node@U?$pair@$$CBW4llm_kv@@PEBD@std@@PEAX@std@@@std@@V?$_Tree_val@U?$_Tree_simple_types@U?$pair@$$CBW4llm_kv@@PEBD@std@@@std@@@2@$00@2@$00@std@@QEAA@U_One_then_variadic_args_t@1@AEBU?$less@W4llm_kv@@@1@$$QEAU_Zero_then_variadic_args_t@1@@Z
	??$?0AEBU?$less@W4llm_tensor@@@std@@U_Zero_then_variadic_args_t@1@@?$_Compressed_pair@U?$less@W4llm_tensor@@@std@@V?$_Compressed_pair@V?$allocator@U?$_Tree_node@U?$pair@$$CBW4llm_tensor@@V?$basic_string@DU?$char_traits@D@std@@V?$allocator@D@2@@std@@@std@@PEAX@std@@@std@@V?$_Tree_val@U?$_Tree_simple_types@U?$pair@$$CBW4llm_tensor@@V?$basic_string@DU?$char_traits@D@std@@V?$allocator@D@2@@std@@@std@@@std@@@2@$00@2@$00@std@@QEAA@U_One_then_variadic_args_t@1@AEBU?$less@W4llm_tensor@@@1@$$QEAU_Zero_then_variadic_args_t@1@@Z
	??$?0AEBU?$pair@$$CBHH@std@@@?$_Tree_temp_node@V?$allocator@U?$_Tree_node@U?$pair@$$CBHH@std@@PEAX@std@@@std@@@std@@QEAA@AEAV?$allocator@U?$_Tree_node@U?$pair@$$CBHH@std@@PEAX@std@@@1@PEAU?$_Tree_node@U?$pair@$$CBHH@std@@PEAX@1@AEBU?$pair@$$CBHH@1@@Z
	??$?0AEBU?$pair@$$CBHV?$basic_string@DU?$char_traits@D@std@@V?$allocator@D@2@@std@@@std@@@?$_Tree_temp_node@V?$allocator@U?$_Tree_node@U?$pair@$$CBHV?$basic_string@DU?$char_traits@D@std@@V?$allocator@D@2@@std@@@std@@PEAX@std@@@std@@@std@@QEAA@AEAV?$allocator@U?$_Tree_node@U?$pair@$$CBHV?$basic_string@DU?$char_traits@D@std@@V?$allocator@D@2@@std@@@std@@PEAX@std@@@1@PEAU?$_Tree_node@U?$pair@$$CBHV?$basic_string@DU?$char_traits@D@std@@V?$allocator@D@2@@std@@@std@@PEAX@1@AEBU?$pair@$$CBHV?$basic_string@DU?$char_traits@D@std@@V?$allocator@D@2@@std@@@1@@Z
	??$?0AEBU?$pair@$$CBII@std@@@?$_List_node_emplace_op2@V?$allocator@U?$_List_node@U?$pair@$$CBII@std@@PEAX@std@@@std@@@std@@QEAA@AEAV?$allocator@U?$_List_node@U?$pair@$$CBII@std@@PEAX@std@@@1@AEBU?$pair@$$CBII@1@@Z
	??$?0AEBU?$pair@$$CBIPEAUggml_backend_buffer@@@std@@@?$_List_node_emplace_op2@V?$allocator@U?$_List_node@U?$pair@$$CBIPEAUggml_backend_buffer@@@std@@PEAX@std@@@std@@@std@@QEAA@AEAV?$allocator@U?$_List_node@U?$pair@$$CBIPEAUggml_backend_buffer@@@std@@PEAX@std@@@1@AEBU?$pair@$$CBIPEAUggml_backend_buffer@@@1@@Z
	??$?0AEBU?$pair@$$CBV?$basic_string@DU?$char_traits@D@std@@V?$allocator@D@2@@std@@H@std@@@?$_Tree_temp_node@V?$allocator@U?$_Tree_node@U?$pair@$$CBV?$basic_string@DU?$char_traits@D@std@@V?$allocator@D@2@@std@@H@std@@PEAX@std@@@std@@@std@@QEAA@AEAV?$allocator@U?$_Tree_node@U?$pair@$$CBV?$basic_string@DU?$char_traits@D@std@@V?$allocator@D@2@@std@@H@std@@PEAX@std@@@1@PEAU?$_Tree_node@U?$pair@$$CBV?$basic_string@DU?$char_traits@D@std@@V?$allocator@D@2@@std@@H@std@@PEAX@1@AEBU?$pair@$$CBV?$basic_string@DU?$char_traits@D@std@@V?$allocator@D@2@@std@@H@1@@Z
	??$?0AEBU?$pair@$$CBW4llama_rope_scaling_type@@PEBD@std@@@?$_Tree_temp_node@V?$allocator@U?$_Tree_node@U?$pair@$$CBW4llama_rope_scaling_type@@PEBD@std@@PEAX@std@@@std@@@std@@QEAA@AEAV?$allocator@U?$_Tree_node@U?$pair@$$CBW4llama_rope_scaling_type@@PEBD@std@@PEAX@std@@@1@PEAU?$_Tree_node@U?$pair@$$CBW4llama_rope_scaling_type@@PEBD@std@@PEAX@1@AEBU?$pair@$$CBW4llama_rope_scaling_type@@PEBD@1@@Z
	??$?0AEBU?$pair@$$CBW4llm_arch@@PEBD@std@@@?$_Tree_temp_node@V?$allocator@U?$_Tree_node@U?$pair@$$CBW4llm_arch@@PEBD@std@@PEAX@std@@@std@@@std@@QEAA@AEAV?$allocator@U?$_Tree_node@U?$pair@$$CBW4llm_arch@@PEBD@std@@PEAX@std@@@1@PEAU?$_Tree_node@U?$pair@$$CBW4llm_arch@@PEBD@std@@PEAX@1@AEBU?$pair@$$CBW4llm_arch@@PEBD@1@@Z
	??$?0AEBU?$pair@$$CBW4llm_arch@@V?$map@W4llm_tensor@@V?$basic_string@DU?$char_traits@D@std@@V?$allocator@D@2@@std@@U?$less@W4llm_tensor@@@3@V?$allocator@U?$pair@$$CBW4llm_tensor@@V?$basic_string@DU?$char_traits@D@std@@V?$allocator@D@2@@std@@@std@@@3@@std@@@std@@@?$_Tree_temp_node@V?$allocator@U?$_Tree_node@U?$pair@$$CBW4llm_arch@@V?$map@W4llm_tensor@@V?$basic_string@DU?$char_traits@D@std@@V?$allocator@D@2@@std@@U?$less@W4llm_tensor@@@3@V?$allocator@U?$pair@$$CBW4llm_tensor@@V?$basic_string@DU?$char_traits@D@std@@V?$allocator@D@2@@std@@@std@@@3@@std@@@std@@PEAX@std@@@std@@@std@@QEAA@AEAV?$allocator@U?$_Tree_node@U?$pair@$$CBW4llm_arch@@V?$map@W4llm_tensor@@V?$basic_string@DU?$char_traits@D@std@@V?$allocator@D@2@@std@@U?$less@W4llm_tensor@@@3@V?$allocator@U?$pair@$$CBW4llm_tensor@@V?$basic_string@DU?$char_traits@D@std@@V?$allocator@D@2@@std@@@std@@@3@@std@@@std@@PEAX@std@@@1@PEAU?$_Tree_node@U?$pair@$$CBW4llm_arch@@V?$map@W4llm_tensor@@V?$basic_string@DU?$char_traits@D@std@@V?$allocator@D@2@@std@@U?$less@W4llm_tensor@@@3@V?$allocator@U?$pair@$$CBW4llm_tensor@@V?$basic_string@DU?$char_traits@D@std@@V?$allocator@D@2@@std@@@std@@@3@@std@@@std@@PEAX@1@AEBU?$pair@$$CBW4llm_arch@@V?$map@W4llm_tensor@@V?$basic_string@DU?$char_traits@D@std@@V?$allocator@D@2@@std@@U?$less@W4llm_tensor@@@3@V?$allocator@U?$pair@$$CBW4llm_tensor@@V?$basic_string@DU?$char_traits@D@std@@V?$allocator@D@2@@std@@@std@@@3@@std@@@1@@Z
	??$?0AEBU?$pair@$$CBW4llm_kv@@PEBD@std@@@?$_Tree_temp_node@V?$allocator@U?$_Tree_node@U?$pair@$$CBW4llm_kv@@PEBD@std@@PEAX@std@@@std@@@std@@QEAA@AEAV?$allocator@U?$_Tree_node@U?$pair@$$CBW4llm_kv@@PEBD@std@@PEAX@std@@@1@PEAU?$_Tree_node@U?$pair@$$CBW4llm_kv@@PEBD@std@@PEAX@1@AEBU?$pair@$$CBW4llm_kv@@PEBD@1@@Z
	??$?0AEBU?$pair@$$CBW4llm_tensor@@V?$basic_string@DU?$char_traits@D@std@@V?$allocator@D@2@@std@@@std@@@?$_Tree_temp_node@V?$allocator@U?$_Tree_node@U?$pair@$$CBW4llm_tensor@@V?$basic_string@DU?$char_traits@D@std@@V?$allocator@D@2@@std@@@std@@PEAX@std@@@std@@@std@@QEAA@AEAV?$allocator@U?$_Tree_node@U?$pair@$$CBW4llm_tensor@@V?$basic_string@DU?$char_traits@D@std@@V?$allocator@D@2@@std@@@std@@PEAX@std@@@1@PEAU?$_Tree_node@U?$pair@$$CBW4llm_tensor@@V?$basic_string@DU?$char_traits@D@std@@V?$allocator@D@2@@std@@@std@@PEAX@1@AEBU?$pair@$$CBW4llm_tensor@@V?$basic_string@DU?$char_traits@D@std@@V?$allocator@D@2@@std@@@1@@Z
	??$?0AEBUpiecewise_construct_t@std@@V?$tuple@$$QEAE@1@V?$tuple@$$V@1@@?$_List_node_emplace_op2@V?$allocator@U?$_List_node@U?$pair@$$CBEV?$basic_string@DU?$char_traits@D@std@@V?$allocator@D@2@@std@@@std@@PEAX@std@@@std@@@std@@QEAA@AEAV?$allocator@U?$_List_node@U?$pair@$$CBEV?$basic_string@DU?$char_traits@D@std@@V?$allocator@D@2@@std@@@std@@PEAX@std@@@1@AEBUpiecewise_construct_t@1@$$QEAV?$tuple@$$QEAE@1@$$QEAV?$tuple@$$V@1@@Z
	??$?0AEBUpiecewise_construct_t@std@@V?$tuple@$$QEAPEAUggml_backend_buffer_type@@@1@V?$tuple@$$V@1@@?$_Tree_temp_node@V?$allocator@U?$_Tree_node@U?$pair@QEAUggml_backend_buffer_type@@H@std@@PEAX@std@@@std@@@std@@QEAA@AEAV?$allocator@U?$_Tree_node@U?$pair@QEAUggml_backend_buffer_type@@H@std@@PEAX@std@@@1@PEAU?$_Tree_node@U?$pair@QEAUggml_backend_buffer_type@@H@std@@PEAX@1@AEBUpiecewise_construct_t@1@$$QEAV?$tuple@$$QEAPEAUggml_backend_buffer_type@@@1@$$QEAV?$tuple@$$V@1@@Z
	??$?0AEBUpiecewise_construct_t@std@@V?$tuple@$$QEAV?$basic_string@DU?$char_traits@D@std@@V?$allocator@D@2@@std@@@1@V?$tuple@$$V@1@@?$_List_node_emplace_op2@V?$allocator@U?$_List_node@U?$pair@$$CBV?$basic_string@DU?$char_traits@D@std@@V?$allocator@D@2@@std@@E@std@@PEAX@std@@@std@@@std@@QEAA@AEAV?$allocator@U?$_List_node@U?$pair@$$CBV?$basic_string@DU?$char_traits@D@std@@V?$allocator@D@2@@std@@E@std@@PEAX@std@@@1@AEBUpiecewise_construct_t@1@$$QEAV?$tuple@$$QEAV?$basic_string@DU?$char_traits@D@std@@V?$allocator@D@2@@std@@@1@$$QEAV?$tuple@$$V@1@@Z
	??$?0AEBUpiecewise_construct_t@std@@V?$tuple@AEBH@1@V?$tuple@$$V@1@@?$_List_node_emplace_op2@V?$allocator@U?$_List_node@U?$pair@$$CBHH@std@@PEAX@std@@@std@@@std@@QEAA@AEAV?$allocator@U?$_List_node@U?$pair@$$CBHH@std@@PEAX@std@@@1@AEBUpiecewise_construct_t@1@$$QEAV?$tuple@AEBH@1@$$QEAV?$tuple@$$V@1@@Z
	??$?0AEBUpiecewise_construct_t@std@@V?$tuple@AEBH@1@V?$tuple@$$V@1@@?$_Tree_temp_node@V?$allocator@U?$_Tree_node@U?$pair@$$CBHV?$vector@MV?$allocator@M@std@@@std@@@std@@PEAX@std@@@std@@@std@@QEAA@AEAV?$allocator@U?$_Tree_node@U?$pair@$$CBHV?$vector@MV?$allocator@M@std@@@std@@@std@@PEAX@std@@@1@PEAU?$_Tree_node@U?$pair@$$CBHV?$vector@MV?$allocator@M@std@@@std@@@std@@PEAX@1@AEBUpiecewise_construct_t@1@$$QEAV?$tuple@AEBH@1@$$QEAV?$tuple@$$V@1@@Z
	??$?0AEBUpiecewise_construct_t@std@@V?$tuple@AEBQEAUggml_backend_buffer_type@@@1@V?$tuple@$$V@1@@?$_Tree_temp_node@V?$allocator@U?$_Tree_node@U?$pair@QEAUggml_backend_buffer_type@@H@std@@PEAX@std@@@std@@@std@@QEAA@AEAV?$allocator@U?$_Tree_node@U?$pair@QEAUggml_backend_buffer_type@@H@std@@PEAX@std@@@1@PEAU?$_Tree_node@U?$pair@QEAUggml_backend_buffer_type@@H@std@@PEAX@1@AEBUpiecewise_construct_t@1@$$QEAV?$tuple@AEBQEAUggml_backend_buffer_type@@@1@$$QEAV?$tuple@$$V@1@@Z
	??$?0AEBUpiecewise_construct_t@std@@V?$tuple@AEBQEAUggml_backend_buffer_type@@@1@V?$tuple@$$V@1@@?$_Tree_temp_node@V?$allocator@U?$_Tree_node@U?$pair@QEAUggml_backend_buffer_type@@PEAUggml_context@@@std@@PEAX@std@@@std@@@std@@QEAA@AEAV?$allocator@U?$_Tree_node@U?$pair@QEAUggml_backend_buffer_type@@PEAUggml_context@@@std@@PEAX@std@@@1@PEAU?$_Tree_node@U?$pair@QEAUggml_backend_buffer_type@@PEAUggml_context@@@std@@PEAX@1@AEBUpiecewise_construct_t@1@$$QEAV?$tuple@AEBQEAUggml_backend_buffer_type@@@1@$$QEAV?$tuple@$$V@1@@Z
	??$?0AEBUpiecewise_construct_t@std@@V?$tuple@AEBQEAUllama_lora_adapter@@@1@V?$tuple@$$V@1@@?$_List_node_emplace_op2@V?$allocator@U?$_List_node@U?$pair@QEAUllama_lora_adapter@@M@std@@PEAX@std@@@std@@@std@@QEAA@AEAV?$allocator@U?$_List_node@U?$pair@QEAUllama_lora_adapter@@M@std@@PEAX@std@@@1@AEBUpiecewise_construct_t@1@$$QEAV?$tuple@AEBQEAUllama_lora_adapter@@@1@$$QEAV?$tuple@$$V@1@@Z
	??$?0AEBUpiecewise_construct_t@std@@V?$tuple@AEBV?$basic_string@DU?$char_traits@D@std@@V?$allocator@D@2@@std@@@1@V?$tuple@$$V@1@@?$_List_node_emplace_op2@V?$allocator@U?$_List_node@U?$pair@$$CBV?$basic_string@DU?$char_traits@D@std@@V?$allocator@D@2@@std@@H@std@@PEAX@std@@@std@@@std@@QEAA@AEAV?$allocator@U?$_List_node@U?$pair@$$CBV?$basic_string@DU?$char_traits@D@std@@V?$allocator@D@2@@std@@H@std@@PEAX@std@@@1@AEBUpiecewise_construct_t@1@$$QEAV?$tuple@AEBV?$basic_string@DU?$char_traits@D@std@@V?$allocator@D@2@@std@@@1@$$QEAV?$tuple@$$V@1@@Z
	??$?0AEBUpiecewise_construct_t@std@@V?$tuple@AEBV?$basic_string@DU?$char_traits@D@std@@V?$allocator@D@2@@std@@@1@V?$tuple@$$V@1@@?$_List_node_emplace_op2@V?$allocator@U?$_List_node@U?$pair@$$CBV?$basic_string@DU?$char_traits@D@std@@V?$allocator@D@2@@std@@Ullama_lora_weight@@@std@@PEAX@std@@@std@@@std@@QEAA@AEAV?$allocator@U?$_List_node@U?$pair@$$CBV?$basic_string@DU?$char_traits@D@std@@V?$allocator@D@2@@std@@Ullama_lora_weight@@@std@@PEAX@std@@@1@AEBUpiecewise_construct_t@1@$$QEAV?$tuple@AEBV?$basic_string@DU?$char_traits@D@std@@V?$allocator@D@2@@std@@@1@$$QEAV?$tuple@$$V@1@@Z
	??$?0AEBUpiecewise_construct_t@std@@V?$tuple@AEBV?$basic_string@DU?$char_traits@D@std@@V?$allocator@D@2@@std@@@1@V?$tuple@$$V@1@@?$_Tree_temp_node@V?$allocator@U?$_Tree_node@U?$pair@$$CBV?$basic_string@DU?$char_traits@D@std@@V?$allocator@D@2@@std@@U?$pair@HH@2@@std@@PEAX@std@@@std@@@std@@QEAA@AEAV?$allocator@U?$_Tree_node@U?$pair@$$CBV?$basic_string@DU?$char_traits@D@std@@V?$allocator@D@2@@std@@U?$pair@HH@2@@std@@PEAX@std@@@1@PEAU?$_Tree_node@U?$pair@$$CBV?$basic_string@DU?$char_traits@D@std@@V?$allocator@D@2@@std@@U?$pair@HH@2@@std@@PEAX@1@AEBUpiecewise_construct_t@1@$$QEAV?$tuple@AEBV?$basic_string@DU?$char_traits@D@std@@V?$allocator@D@2@@std@@@1@$$QEAV?$tuple@$$V@1@@Z
	??$?0AEBUpiecewise_construct_t@std@@V?$tuple@AEBV?$basic_string@DU?$char_traits@D@std@@V?$allocator@D@2@@std@@@1@V?$tuple@$$V@1@@?$_Tree_temp_node@V?$allocator@U?$_Tree_node@U?$pair@$$CBV?$basic_string@DU?$char_traits@D@std@@V?$allocator@D@2@@std@@Ullama_lora_weight@@@std@@PEAX@std@@@std@@@std@@QEAA@AEAV?$allocator@U?$_Tree_node@U?$pair@$$CBV?$basic_string@DU?$char_traits@D@std@@V?$allocator@D@2@@std@@Ullama_lora_weight@@@std@@PEAX@std@@@1@PEAU?$_Tree_node@U?$pair@$$CBV?$basic_string@DU?$char_traits@D@std@@V?$allocator@D@2@@std@@Ullama_lora_weight@@@std@@PEAX@1@AEBUpiecewise_construct_t@1@$$QEAV?$tuple@AEBV?$basic_string@DU?$char_traits@D@std@@V?$allocator@D@2@@std@@@1@$$QEAV?$tuple@$$V@1@@Z
	??$?0AEBUpiecewise_construct_t@std@@V?$tuple@AEBW4ggml_type@@@1@V?$tuple@$$V@1@@?$_Tree_temp_node@V?$allocator@U?$_Tree_node@U?$pair@$$CBW4ggml_type@@I@std@@PEAX@std@@@std@@@std@@QEAA@AEAV?$allocator@U?$_Tree_node@U?$pair@$$CBW4ggml_type@@I@std@@PEAX@std@@@1@PEAU?$_Tree_node@U?$pair@$$CBW4ggml_type@@I@std@@PEAX@1@AEBUpiecewise_construct_t@1@$$QEAV?$tuple@AEBW4ggml_type@@@1@$$QEAV?$tuple@$$V@1@@Z
	??$?0AEBV<lambda_052e919cc0e5399df76dff3972c0cac1>@@$0A@@?$_Func_impl_no_alloc@V<lambda_052e919cc0e5399df76dff3972c0cac1>@@E$$V@std@@QEAA@AEBV<lambda_052e919cc0e5399df76dff3972c0cac1>@@@Z
	??$?0AEBV<lambda_2fa3e3d11fb97352afa77a4a13bfb543>@@$0A@@?$_Func_impl_no_alloc@V<lambda_2fa3e3d11fb97352afa77a4a13bfb543>@@X$$V@std@@QEAA@AEBV<lambda_2fa3e3d11fb97352afa77a4a13bfb543>@@@Z
	??$?0AEBV<lambda_61d324d6c6ae299623b0a01e4b2f6764>@@$0A@@?$_Func_impl_no_alloc@V<lambda_61d324d6c6ae299623b0a01e4b2f6764>@@X$$V@std@@QEAA@AEBV<lambda_61d324d6c6ae299623b0a01e4b2f6764>@@@Z
	??$?0AEBV<lambda_61d324d6c6ae299623b0a01e4b2f6764>@@$0A@@?$function@$$A6AXXZ@std@@QEAA@AEBV<lambda_61d324d6c6ae299623b0a01e4b2f6764>@@@Z
	??$?0AEBV<lambda_763529b0c7473cbc215a52d189ac9b18>@@$0A@@?$_Func_impl_no_alloc@V<lambda_763529b0c7473cbc215a52d189ac9b18>@@X$$V@std@@QEAA@AEBV<lambda_763529b0c7473cbc215a52d189ac9b18>@@@Z
	??$?0AEBV<lambda_f25c37099038263181b5186a3fa41b37>@@$0A@@?$_Func_impl_no_alloc@V<lambda_f25c37099038263181b5186a3fa41b37>@@X$$V@std@@QEAA@AEBV<lambda_f25c37099038263181b5186a3fa41b37>@@@Z
	??$?0AEBV<lambda_f7036c9a115536b365ca4544394c825b>@@$0A@@?$_Func_impl_no_alloc@V<lambda_f7036c9a115536b365ca4544394c825b>@@X$$V@std@@QEAA@AEBV<lambda_f7036c9a115536b365ca4544394c825b>@@@Z
	??$?0AEBV<lambda_f7036c9a115536b365ca4544394c825b>@@$0A@@?$function@$$A6AXXZ@std@@QEAA@AEBV<lambda_f7036c9a115536b365ca4544394c825b>@@@Z
	??$?0AEBV?$_Fake_no_copy_callable_adapter@V<lambda_3f39357f5ebcd3550b555fa53c33d10a>@@@std@@$0A@@?$_Func_impl_no_alloc@V?$_Fake_no_copy_callable_adapter@V<lambda_3f39357f5ebcd3550b555fa53c33d10a>@@@std@@U?$pair@PEAUggml_tensor@@_N@2@$$V@std@@QEAA@AEBV?$_Fake_no_copy_callable_adapter@V<lambda_3f39357f5ebcd3550b555fa53c33d10a>@@@1@@Z
	??$?0AEBV?$_Fake_no_copy_callable_adapter@V<lambda_e3b97c3ad3d076d7964efd5d963695f6>@@@std@@$0A@@?$_Func_impl_no_alloc@V?$_Fake_no_copy_callable_adapter@V<lambda_e3b97c3ad3d076d7964efd5d963695f6>@@@std@@U?$pair@PEAUggml_tensor@@_N@2@$$V@std@@QEAA@AEBV?$_Fake_no_copy_callable_adapter@V<lambda_e3b97c3ad3d076d7964efd5d963695f6>@@@1@@Z
	??$?0AEBV?$allocator@D@std@@$$V@?$_Compressed_pair@V?$allocator@D@std@@V?$_String_val@U?$_Simple_types@D@std@@@2@$00@std@@QEAA@U_One_then_variadic_args_t@1@AEBV?$allocator@D@1@@Z
	??$?0AEBV?$allocator@D@std@@$$V@?$_Compressed_pair@V?$allocator@D@std@@V?$_Vector_val@U?$_Simple_types@D@std@@@2@$00@std@@QEAA@U_One_then_variadic_args_t@1@AEBV?$allocator@D@1@@Z
	??$?0AEBV?$allocator@E@std@@$$V@?$_Compressed_pair@V?$allocator@E@std@@V?$_Vector_val@U?$_Simple_types@E@std@@@2@$00@std@@QEAA@U_One_then_variadic_args_t@1@AEBV?$allocator@E@1@@Z
	??$?0AEBV?$allocator@H@std@@$$V@?$_Compressed_pair@V?$allocator@H@std@@V?$_Vector_val@U?$_Simple_types@H@std@@@2@$00@std@@QEAA@U_One_then_variadic_args_t@1@AEBV?$allocator@H@1@@Z
	??$?0AEBV?$allocator@I@std@@$$V@?$_Compressed_pair@V?$allocator@I@std@@V?$_Vector_val@U?$_Simple_types@I@std@@@2@$00@std@@QEAA@U_One_then_variadic_args_t@1@AEBV?$allocator@I@1@@Z
	??$?0AEBV?$allocator@I@std@@$$V@?$_Compressed_pair@V?$allocator@U?$_List_node@IPEAX@std@@@std@@V?$_List_val@U?$_List_simple_types@I@std@@@2@$00@std@@QEAA@U_One_then_variadic_args_t@1@AEBV?$allocator@I@1@@Z
	??$?0AEBV?$allocator@I@std@@$$V@?$_Compressed_pair@V?$allocator@V?$_List_unchecked_const_iterator@V?$_List_val@U?$_List_simple_types@I@std@@@std@@U_Iterator_base0@2@@std@@@std@@V?$_Vector_val@U?$_Simple_types@V?$_List_unchecked_const_iterator@V?$_List_val@U?$_List_simple_types@I@std@@@std@@U_Iterator_base0@2@@std@@@std@@@2@$00@std@@QEAA@U_One_then_variadic_args_t@1@AEBV?$allocator@I@1@@Z
	??$?0AEBV?$allocator@I@std@@$0A@@?$_Hash_vec@V?$allocator@V?$_List_unchecked_const_iterator@V?$_List_val@U?$_List_simple_types@I@std@@@std@@U_Iterator_base0@2@@std@@@std@@@std@@QEAA@AEBV?$allocator@I@1@@Z
	??$?0AEBV?$allocator@M@std@@$$V@?$_Compressed_pair@V?$allocator@M@std@@V?$_Vector_val@U?$_Simple_types@M@std@@@2@$00@std@@QEAA@U_One_then_variadic_args_t@1@AEBV?$allocator@M@1@@Z
	??$?0AEBV?$allocator@N@std@@$$V@?$_Compressed_pair@V?$allocator@N@std@@V?$_Vector_val@U?$_Simple_types@N@std@@@2@$00@std@@QEAA@U_One_then_variadic_args_t@1@AEBV?$allocator@N@1@@Z
	??$?0AEBV?$allocator@PEAUgguf_context@@@std@@$$V@?$_Compressed_pair@V?$allocator@PEAUgguf_context@@@std@@V?$_Vector_val@U?$_Simple_types@PEAUgguf_context@@@std@@@2@$00@std@@QEAA@U_One_then_variadic_args_t@1@AEBV?$allocator@PEAUgguf_context@@@1@@Z
	??$?0AEBV?$allocator@PEBUllama_grammar_element@@@std@@$$V@?$_Compressed_pair@V?$allocator@PEBUllama_grammar_element@@@std@@V?$_Vector_val@U?$_Simple_types@PEBUllama_grammar_element@@@std@@@2@$00@std@@QEAA@U_One_then_variadic_args_t@1@AEBV?$allocator@PEBUllama_grammar_element@@@1@@Z
	??$?0AEBV?$allocator@U?$_List_node@U?$pair@$$CBIPEAUggml_backend_buffer@@@std@@PEAX@std@@@std@@$$V@?$_Compressed_pair@V?$allocator@V?$_List_unchecked_iterator@V?$_List_val@U?$_List_simple_types@U?$pair@$$CBIPEAUggml_backend_buffer@@@std@@@std@@@std@@@std@@@std@@V?$_Vector_val@U?$_Simple_types@V?$_List_unchecked_iterator@V?$_List_val@U?$_List_simple_types@U?$pair@$$CBIPEAUggml_backend_buffer@@@std@@@std@@@std@@@std@@@std@@@2@$00@std@@QEAA@U_One_then_variadic_args_t@1@AEBV?$allocator@U?$_List_node@U?$pair@$$CBIPEAUggml_backend_buffer@@@std@@PEAX@std@@@1@@Z
	??$?0AEBV?$allocator@U?$_List_node@U?$pair@$$CBIPEAUggml_backend_buffer@@@std@@PEAX@std@@@std@@$0A@@?$_Hash_vec@V?$allocator@V?$_List_unchecked_iterator@V?$_List_val@U?$_List_simple_types@U?$pair@$$CBIPEAUggml_backend_buffer@@@std@@@std@@@std@@@std@@@std@@@std@@QEAA@AEBV?$allocator@U?$_List_node@U?$pair@$$CBIPEAUggml_backend_buffer@@@std@@PEAX@std@@@1@@Z
	??$?0AEBV?$allocator@U?$pair@$$CBEV?$basic_string@DU?$char_traits@D@std@@V?$allocator@D@2@@std@@@std@@@std@@$$V@?$_Compressed_pair@V?$allocator@U?$_List_node@U?$pair@$$CBEV?$basic_string@DU?$char_traits@D@std@@V?$allocator@D@2@@std@@@std@@PEAX@std@@@std@@V?$_List_val@U?$_List_simple_types@U?$pair@$$CBEV?$basic_string@DU?$char_traits@D@std@@V?$allocator@D@2@@std@@@std@@@std@@@2@$00@std@@QEAA@U_One_then_variadic_args_t@1@AEBV?$allocator@U?$pair@$$CBEV?$basic_string@DU?$char_traits@D@std@@V?$allocator@D@2@@std@@@std@@@1@@Z
	??$?0AEBV?$allocator@U?$pair@$$CBEV?$basic_string@DU?$char_traits@D@std@@V?$allocator@D@2@@std@@@std@@@std@@$$V@?$_Compressed_pair@V?$allocator@V?$_List_unchecked_iterator@V?$_List_val@U?$_List_simple_types@U?$pair@$$CBEV?$basic_string@DU?$char_traits@D@std@@V?$allocator@D@2@@std@@@std@@@std@@@std@@@std@@@std@@V?$_Vector_val@U?$_Simple_types@V?$_List_unchecked_iterator@V?$_List_val@U?$_List_simple_types@U?$pair@$$CBEV?$basic_string@DU?$char_traits@D@std@@V?$allocator@D@2@@std@@@std@@@std@@@std@@@std@@@std@@@2@$00@std@@QEAA@U_One_then_variadic_args_t@1@AEBV?$allocator@U?$pair@$$CBEV?$basic_string@DU?$char_traits@D@std@@V?$allocator@D@2@@std@@@std@@@1@@Z
	??$?0AEBV?$allocator@U?$pair@$$CBEV?$basic_string@DU?$char_traits@D@std@@V?$allocator@D@2@@std@@@std@@@std@@$0A@@?$_Hash_vec@V?$allocator@V?$_List_unchecked_iterator@V?$_List_val@U?$_List_simple_types@U?$pair@$$CBEV?$basic_string@DU?$char_traits@D@std@@V?$allocator@D@2@@std@@@std@@@std@@@std@@@std@@@std@@@std@@QEAA@AEBV?$allocator@U?$pair@$$CBEV?$basic_string@DU?$char_traits@D@std@@V?$allocator@D@2@@std@@@std@@@1@@Z
	??$?0AEBV?$allocator@U?$pair@$$CBHH@std@@@std@@$$V@?$_Compressed_pair@V?$allocator@U?$_List_node@U?$pair@$$CBHH@std@@PEAX@std@@@std@@V?$_List_val@U?$_List_simple_types@U?$pair@$$CBHH@std@@@std@@@2@$00@std@@QEAA@U_One_then_variadic_args_t@1@AEBV?$allocator@U?$pair@$$CBHH@std@@@1@@Z
	??$?0AEBV?$allocator@U?$pair@$$CBHH@std@@@std@@$$V@?$_Compressed_pair@V?$allocator@V?$_List_unchecked_iterator@V?$_List_val@U?$_List_simple_types@U?$pair@$$CBHH@std@@@std@@@std@@@std@@@std@@V?$_Vector_val@U?$_Simple_types@V?$_List_unchecked_iterator@V?$_List_val@U?$_List_simple_types@U?$pair@$$CBHH@std@@@std@@@std@@@std@@@std@@@2@$00@std@@QEAA@U_One_then_variadic_args_t@1@AEBV?$allocator@U?$pair@$$CBHH@std@@@1@@Z
	??$?0AEBV?$allocator@U?$pair@$$CBHH@std@@@std@@$0A@@?$_Hash_vec@V?$allocator@V?$_List_unchecked_iterator@V?$_List_val@U?$_List_simple_types@U?$pair@$$CBHH@std@@@std@@@std@@@std@@@std@@@std@@QEAA@AEBV?$allocator@U?$pair@$$CBHH@std@@@1@@Z
	??$?0AEBV?$allocator@U?$pair@$$CBII@std@@@std@@$$V@?$_Compressed_pair@V?$allocator@U?$_List_node@U?$pair@$$CBII@std@@PEAX@std@@@std@@V?$_List_val@U?$_List_simple_types@U?$pair@$$CBII@std@@@std@@@2@$00@std@@QEAA@U_One_then_variadic_args_t@1@AEBV?$allocator@U?$pair@$$CBII@std@@@1@@Z
	??$?0AEBV?$allocator@U?$pair@$$CBII@std@@@std@@$$V@?$_Compressed_pair@V?$allocator@V?$_List_unchecked_iterator@V?$_List_val@U?$_List_simple_types@U?$pair@$$CBII@std@@@std@@@std@@@std@@@std@@V?$_Vector_val@U?$_Simple_types@V?$_List_unchecked_iterator@V?$_List_val@U?$_List_simple_types@U?$pair@$$CBII@std@@@std@@@std@@@std@@@std@@@2@$00@std@@QEAA@U_One_then_variadic_args_t@1@AEBV?$allocator@U?$pair@$$CBII@std@@@1@@Z
	??$?0AEBV?$allocator@U?$pair@$$CBII@std@@@std@@$0A@@?$_Hash_vec@V?$allocator@V?$_List_unchecked_iterator@V?$_List_val@U?$_List_simple_types@U?$pair@$$CBII@std@@@std@@@std@@@std@@@std@@@std@@QEAA@AEBV?$allocator@U?$pair@$$CBII@std@@@1@@Z
	??$?0AEBV?$allocator@U?$pair@$$CBIPEAUggml_backend_buffer@@@std@@@std@@$$V@?$_Compressed_pair@V?$allocator@U?$_List_node@U?$pair@$$CBIPEAUggml_backend_buffer@@@std@@PEAX@std@@@std@@V?$_List_val@U?$_List_simple_types@U?$pair@$$CBIPEAUggml_backend_buffer@@@std@@@std@@@2@$00@std@@QEAA@U_One_then_variadic_args_t@1@AEBV?$allocator@U?$pair@$$CBIPEAUggml_backend_buffer@@@std@@@1@@Z
	??$?0AEBV?$allocator@U?$pair@$$CBIPEAUggml_backend_buffer@@@std@@@std@@$$V@?$_Compressed_pair@V?$allocator@V?$_List_unchecked_iterator@V?$_List_val@U?$_List_simple_types@U?$pair@$$CBIPEAUggml_backend_buffer@@@std@@@std@@@std@@@std@@@std@@V?$_Vector_val@U?$_Simple_types@V?$_List_unchecked_iterator@V?$_List_val@U?$_List_simple_types@U?$pair@$$CBIPEAUggml_backend_buffer@@@std@@@std@@@std@@@std@@@std@@@2@$00@std@@QEAA@U_One_then_variadic_args_t@1@AEBV?$allocator@U?$pair@$$CBIPEAUggml_backend_buffer@@@std@@@1@@Z
	??$?0AEBV?$allocator@U?$pair@$$CBIPEAUggml_backend_buffer@@@std@@@std@@$0A@@?$_Hash_vec@V?$allocator@V?$_List_unchecked_iterator@V?$_List_val@U?$_List_simple_types@U?$pair@$$CBIPEAUggml_backend_buffer@@@std@@@std@@@std@@@std@@@std@@@std@@QEAA@AEBV?$allocator@U?$pair@$$CBIPEAUggml_backend_buffer@@@std@@@1@@Z
	??$?0AEBV?$allocator@U?$pair@$$CBV?$basic_string@DU?$char_traits@D@std@@V?$allocator@D@2@@std@@E@std@@@std@@$$V@?$_Compressed_pair@V?$allocator@U?$_List_node@U?$pair@$$CBV?$basic_string@DU?$char_traits@D@std@@V?$allocator@D@2@@std@@E@std@@PEAX@std@@@std@@V?$_List_val@U?$_List_simple_types@U?$pair@$$CBV?$basic_string@DU?$char_traits@D@std@@V?$allocator@D@2@@std@@E@std@@@std@@@2@$00@std@@QEAA@U_One_then_variadic_args_t@1@AEBV?$allocator@U?$pair@$$CBV?$basic_string@DU?$char_traits@D@std@@V?$allocator@D@2@@std@@E@std@@@1@@Z
	??$?0AEBV?$allocator@U?$pair@$$CBV?$basic_string@DU?$char_traits@D@std@@V?$allocator@D@2@@std@@E@std@@@std@@$$V@?$_Compressed_pair@V?$allocator@V?$_List_unchecked_iterator@V?$_List_val@U?$_List_simple_types@U?$pair@$$CBV?$basic_string@DU?$char_traits@D@std@@V?$allocator@D@2@@std@@E@std@@@std@@@std@@@std@@@std@@V?$_Vector_val@U?$_Simple_types@V?$_List_unchecked_iterator@V?$_List_val@U?$_List_simple_types@U?$pair@$$CBV?$basic_string@DU?$char_traits@D@std@@V?$allocator@D@2@@std@@E@std@@@std@@@std@@@std@@@std@@@2@$00@std@@QEAA@U_One_then_variadic_args_t@1@AEBV?$allocator@U?$pair@$$CBV?$basic_string@DU?$char_traits@D@std@@V?$allocator@D@2@@std@@E@std@@@1@@Z
	??$?0AEBV?$allocator@U?$pair@$$CBV?$basic_string@DU?$char_traits@D@std@@V?$allocator@D@2@@std@@E@std@@@std@@$0A@@?$_Hash_vec@V?$allocator@V?$_List_unchecked_iterator@V?$_List_val@U?$_List_simple_types@U?$pair@$$CBV?$basic_string@DU?$char_traits@D@std@@V?$allocator@D@2@@std@@E@std@@@std@@@std@@@std@@@std@@@std@@QEAA@AEBV?$allocator@U?$pair@$$CBV?$basic_string@DU?$char_traits@D@std@@V?$allocator@D@2@@std@@E@std@@@1@@Z
	??$?0AEBV?$allocator@U?$pair@$$CBV?$basic_string@DU?$char_traits@D@std@@V?$allocator@D@2@@std@@H@std@@@std@@$$V@?$_Compressed_pair@V?$allocator@U?$_List_node@U?$pair@$$CBV?$basic_string@DU?$char_traits@D@std@@V?$allocator@D@2@@std@@H@std@@PEAX@std@@@std@@V?$_List_val@U?$_List_simple_types@U?$pair@$$CBV?$basic_string@DU?$char_traits@D@std@@V?$allocator@D@2@@std@@H@std@@@std@@@2@$00@std@@QEAA@U_One_then_variadic_args_t@1@AEBV?$allocator@U?$pair@$$CBV?$basic_string@DU?$char_traits@D@std@@V?$allocator@D@2@@std@@H@std@@@1@@Z
	??$?0AEBV?$allocator@U?$pair@$$CBV?$basic_string@DU?$char_traits@D@std@@V?$allocator@D@2@@std@@H@std@@@std@@$$V@?$_Compressed_pair@V?$allocator@V?$_List_unchecked_iterator@V?$_List_val@U?$_List_simple_types@U?$pair@$$CBV?$basic_string@DU?$char_traits@D@std@@V?$allocator@D@2@@std@@H@std@@@std@@@std@@@std@@@std@@V?$_Vector_val@U?$_Simple_types@V?$_List_unchecked_iterator@V?$_List_val@U?$_List_simple_types@U?$pair@$$CBV?$basic_string@DU?$char_traits@D@std@@V?$allocator@D@2@@std@@H@std@@@std@@@std@@@std@@@std@@@2@$00@std@@QEAA@U_One_then_variadic_args_t@1@AEBV?$allocator@U?$pair@$$CBV?$basic_string@DU?$char_traits@D@std@@V?$allocator@D@2@@std@@H@std@@@1@@Z
	??$?0AEBV?$allocator@U?$pair@$$CBV?$basic_string@DU?$char_traits@D@std@@V?$allocator@D@2@@std@@H@std@@@std@@$0A@@?$_Hash_vec@V?$allocator@V?$_List_unchecked_iterator@V?$_List_val@U?$_List_simple_types@U?$pair@$$CBV?$basic_string@DU?$char_traits@D@std@@V?$allocator@D@2@@std@@H@std@@@std@@@std@@@std@@@std@@@std@@QEAA@AEBV?$allocator@U?$pair@$$CBV?$basic_string@DU?$char_traits@D@std@@V?$allocator@D@2@@std@@H@std@@@1@@Z
	??$?0AEBV?$allocator@U?$pair@$$CBV?$basic_string@DU?$char_traits@D@std@@V?$allocator@D@2@@std@@Ullama_lora_weight@@@std@@@std@@$$V@?$_Compressed_pair@V?$allocator@U?$_List_node@U?$pair@$$CBV?$basic_string@DU?$char_traits@D@std@@V?$allocator@D@2@@std@@Ullama_lora_weight@@@std@@PEAX@std@@@std@@V?$_List_val@U?$_List_simple_types@U?$pair@$$CBV?$basic_string@DU?$char_traits@D@std@@V?$allocator@D@2@@std@@Ullama_lora_weight@@@std@@@std@@@2@$00@std@@QEAA@U_One_then_variadic_args_t@1@AEBV?$allocator@U?$pair@$$CBV?$basic_string@DU?$char_traits@D@std@@V?$allocator@D@2@@std@@Ullama_lora_weight@@@std@@@1@@Z
	??$?0AEBV?$allocator@U?$pair@$$CBV?$basic_string@DU?$char_traits@D@std@@V?$allocator@D@2@@std@@Ullama_lora_weight@@@std@@@std@@$$V@?$_Compressed_pair@V?$allocator@V?$_List_unchecked_iterator@V?$_List_val@U?$_List_simple_types@U?$pair@$$CBV?$basic_string@DU?$char_traits@D@std@@V?$allocator@D@2@@std@@Ullama_lora_weight@@@std@@@std@@@std@@@std@@@std@@V?$_Vector_val@U?$_Simple_types@V?$_List_unchecked_iterator@V?$_List_val@U?$_List_simple_types@U?$pair@$$CBV?$basic_string@DU?$char_traits@D@std@@V?$allocator@D@2@@std@@Ullama_lora_weight@@@std@@@std@@@std@@@std@@@std@@@2@$00@std@@QEAA@U_One_then_variadic_args_t@1@AEBV?$allocator@U?$pair@$$CBV?$basic_string@DU?$char_traits@D@std@@V?$allocator@D@2@@std@@Ullama_lora_weight@@@std@@@1@@Z
	??$?0AEBV?$allocator@U?$pair@$$CBV?$basic_string@DU?$char_traits@D@std@@V?$allocator@D@2@@std@@Ullama_lora_weight@@@std@@@std@@$0A@@?$_Hash_vec@V?$allocator@V?$_List_unchecked_iterator@V?$_List_val@U?$_List_simple_types@U?$pair@$$CBV?$basic_string@DU?$char_traits@D@std@@V?$allocator@D@2@@std@@Ullama_lora_weight@@@std@@@std@@@std@@@std@@@std@@@std@@QEAA@AEBV?$allocator@U?$pair@$$CBV?$basic_string@DU?$char_traits@D@std@@V?$allocator@D@2@@std@@Ullama_lora_weight@@@std@@@1@@Z
	??$?0AEBV?$allocator@U?$pair@$$CBV?$basic_string@DU?$char_traits@D@std@@V?$allocator@D@2@@std@@Ullama_model_kv_override@@@std@@@std@@$$V@?$_Compressed_pair@V?$allocator@U?$_List_node@U?$pair@$$CBV?$basic_string@DU?$char_traits@D@std@@V?$allocator@D@2@@std@@Ullama_model_kv_override@@@std@@PEAX@std@@@std@@V?$_List_val@U?$_List_simple_types@U?$pair@$$CBV?$basic_string@DU?$char_traits@D@std@@V?$allocator@D@2@@std@@Ullama_model_kv_override@@@std@@@std@@@2@$00@std@@QEAA@U_One_then_variadic_args_t@1@AEBV?$allocator@U?$pair@$$CBV?$basic_string@DU?$char_traits@D@std@@V?$allocator@D@2@@std@@Ullama_model_kv_override@@@std@@@1@@Z
	??$?0AEBV?$allocator@U?$pair@$$CBV?$basic_string@DU?$char_traits@D@std@@V?$allocator@D@2@@std@@Ullama_model_kv_override@@@std@@@std@@$$V@?$_Compressed_pair@V?$allocator@V?$_List_unchecked_iterator@V?$_List_val@U?$_List_simple_types@U?$pair@$$CBV?$basic_string@DU?$char_traits@D@std@@V?$allocator@D@2@@std@@Ullama_model_kv_override@@@std@@@std@@@std@@@std@@@std@@V?$_Vector_val@U?$_Simple_types@V?$_List_unchecked_iterator@V?$_List_val@U?$_List_simple_types@U?$pair@$$CBV?$basic_string@DU?$char_traits@D@std@@V?$allocator@D@2@@std@@Ullama_model_kv_override@@@std@@@std@@@std@@@std@@@std@@@2@$00@std@@QEAA@U_One_then_variadic_args_t@1@AEBV?$allocator@U?$pair@$$CBV?$basic_string@DU?$char_traits@D@std@@V?$allocator@D@2@@std@@Ullama_model_kv_override@@@std@@@1@@Z
	??$?0AEBV?$allocator@U?$pair@$$CBV?$basic_string@DU?$char_traits@D@std@@V?$allocator@D@2@@std@@Ullama_model_kv_override@@@std@@@std@@$0A@@?$_Hash_vec@V?$allocator@V?$_List_unchecked_iterator@V?$_List_val@U?$_List_simple_types@U?$pair@$$CBV?$basic_string@DU?$char_traits@D@std@@V?$allocator@D@2@@std@@Ullama_model_kv_override@@@std@@@std@@@std@@@std@@@std@@@std@@QEAA@AEBV?$allocator@U?$pair@$$CBV?$basic_string@DU?$char_traits@D@std@@V?$allocator@D@2@@std@@Ullama_model_kv_override@@@std@@@1@@Z
	??$?0AEBV?$allocator@U?$pair@$$CBV?$basic_string@DU?$char_traits@D@std@@V?$allocator@D@2@@std@@V12@@std@@@std@@$$V@?$_Compressed_pair@V?$allocator@U?$_List_node@U?$pair@$$CBV?$basic_string@DU?$char_traits@D@std@@V?$allocator@D@2@@std@@V12@@std@@PEAX@std@@@std@@V?$_List_val@U?$_List_simple_types@U?$pair@$$CBV?$basic_string@DU?$char_traits@D@std@@V?$allocator@D@2@@std@@V12@@std@@@std@@@2@$00@std@@QEAA@U_One_then_variadic_args_t@1@AEBV?$allocator@U?$pair@$$CBV?$basic_string@DU?$char_traits@D@std@@V?$allocator@D@2@@std@@V12@@std@@@1@@Z
	??$?0AEBV?$allocator@U?$pair@$$CBV?$basic_string@DU?$char_traits@D@std@@V?$allocator@D@2@@std@@V12@@std@@@std@@$$V@?$_Compressed_pair@V?$allocator@V?$_List_unchecked_iterator@V?$_List_val@U?$_List_simple_types@U?$pair@$$CBV?$basic_string@DU?$char_traits@D@std@@V?$allocator@D@2@@std@@V12@@std@@@std@@@std@@@std@@@std@@V?$_Vector_val@U?$_Simple_types@V?$_List_unchecked_iterator@V?$_List_val@U?$_List_simple_types@U?$pair@$$CBV?$basic_string@DU?$char_traits@D@std@@V?$allocator@D@2@@std@@V12@@std@@@std@@@std@@@std@@@std@@@2@$00@std@@QEAA@U_One_then_variadic_args_t@1@AEBV?$allocator@U?$pair@$$CBV?$basic_string@DU?$char_traits@D@std@@V?$allocator@D@2@@std@@V12@@std@@@1@@Z
	??$?0AEBV?$allocator@U?$pair@$$CBV?$basic_string@DU?$char_traits@D@std@@V?$allocator@D@2@@std@@V12@@std@@@std@@$0A@@?$_Hash_vec@V?$allocator@V?$_List_unchecked_iterator@V?$_List_val@U?$_List_simple_types@U?$pair@$$CBV?$basic_string@DU?$char_traits@D@std@@V?$allocator@D@2@@std@@V12@@std@@@std@@@std@@@std@@@std@@@std@@QEAA@AEBV?$allocator@U?$pair@$$CBV?$basic_string@DU?$char_traits@D@std@@V?$allocator@D@2@@std@@V12@@std@@@1@@Z
	??$?0AEBV?$allocator@U?$pair@IG@std@@@std@@$$V@?$_Compressed_pair@V?$allocator@U?$pair@IG@std@@@std@@V?$_Vector_val@U?$_Simple_types@U?$pair@IG@std@@@std@@@2@$00@std@@QEAA@U_One_then_variadic_args_t@1@AEBV?$allocator@U?$pair@IG@std@@@1@@Z
	??$?0AEBV?$allocator@U?$pair@QEAUllama_lora_adapter@@M@std@@@std@@$$V@?$_Compressed_pair@V?$allocator@U?$_List_node@U?$pair@QEAUllama_lora_adapter@@M@std@@PEAX@std@@@std@@V?$_List_val@U?$_List_simple_types@U?$pair@QEAUllama_lora_adapter@@M@std@@@std@@@2@$00@std@@QEAA@U_One_then_variadic_args_t@1@AEBV?$allocator@U?$pair@QEAUllama_lora_adapter@@M@std@@@1@@Z
	??$?0AEBV?$allocator@U?$pair@QEAUllama_lora_adapter@@M@std@@@std@@$$V@?$_Compressed_pair@V?$allocator@V?$_List_unchecked_iterator@V?$_List_val@U?$_List_simple_types@U?$pair@QEAUllama_lora_adapter@@M@std@@@std@@@std@@@std@@@std@@V?$_Vector_val@U?$_Simple_types@V?$_List_unchecked_iterator@V?$_List_val@U?$_List_simple_types@U?$pair@QEAUllama_lora_adapter@@M@std@@@std@@@std@@@std@@@std@@@2@$00@std@@QEAA@U_One_then_variadic_args_t@1@AEBV?$allocator@U?$pair@QEAUllama_lora_adapter@@M@std@@@1@@Z
	??$?0AEBV?$allocator@U?$pair@QEAUllama_lora_adapter@@M@std@@@std@@$0A@@?$_Hash_vec@V?$allocator@V?$_List_unchecked_iterator@V?$_List_val@U?$_List_simple_types@U?$pair@QEAUllama_lora_adapter@@M@std@@@std@@@std@@@std@@@std@@@std@@QEAA@AEBV?$allocator@U?$pair@QEAUllama_lora_adapter@@M@std@@@1@@Z
	??$?0AEBV?$allocator@U?$pair@W4llm_kv@@AEAH@std@@@std@@$$V@?$_Compressed_pair@V?$allocator@U?$pair@W4llm_kv@@AEAH@std@@@std@@V?$_Vector_val@U?$_Simple_types@U?$pair@W4llm_kv@@AEAH@std@@@std@@@2@$00@std@@QEAA@U_One_then_variadic_args_t@1@AEBV?$allocator@U?$pair@W4llm_kv@@AEAH@std@@@1@@Z
	??$?0AEBV?$allocator@Ubest_tokenization@llm_tokenizer_ugm@@@std@@$$V@?$_Compressed_pair@V?$allocator@Ubest_tokenization@llm_tokenizer_ugm@@@std@@V?$_Vector_val@U?$_Simple_types@Ubest_tokenization@llm_tokenizer_ugm@@@std@@@2@$00@std@@QEAA@U_One_then_variadic_args_t@1@AEBV?$allocator@Ubest_tokenization@llm_tokenizer_ugm@@@1@@Z
	??$?0AEBV?$allocator@Ucodepoint_flags@@@std@@$$V@?$_Compressed_pair@V?$allocator@Ucodepoint_flags@@@std@@V?$_Vector_val@U?$_Simple_types@Ucodepoint_flags@@@std@@@2@$00@std@@QEAA@U_One_then_variadic_args_t@1@AEBV?$allocator@Ucodepoint_flags@@@1@@Z
	??$?0AEBV?$allocator@Ullama_token_data@@@std@@$$V@?$_Compressed_pair@V?$allocator@Ullama_token_data@@@std@@V?$_Vector_val@U?$_Simple_types@Ullama_token_data@@@std@@@2@$00@std@@QEAA@U_One_then_variadic_args_t@1@AEBV?$allocator@Ullama_token_data@@@1@@Z
	??$?0AEBV?$allocator@Urange_nfd@@@std@@$$V@?$_Compressed_pair@V?$allocator@Urange_nfd@@@std@@V?$_Vector_val@U?$_Simple_types@Urange_nfd@@@std@@@2@$00@std@@QEAA@U_One_then_variadic_args_t@1@AEBV?$allocator@Urange_nfd@@@1@@Z
	??$?0AEBV?$allocator@V?$basic_string@DU?$char_traits@D@std@@V?$allocator@D@2@@std@@@std@@$$V@?$_Compressed_pair@V?$allocator@V?$basic_string@DU?$char_traits@D@std@@V?$allocator@D@2@@std@@@std@@V?$_Vector_val@U?$_Simple_types@V?$basic_string@DU?$char_traits@D@std@@V?$allocator@D@2@@std@@@std@@@2@$00@std@@QEAA@U_One_then_variadic_args_t@1@AEBV?$allocator@V?$basic_string@DU?$char_traits@D@std@@V?$allocator@D@2@@std@@@1@@Z
	??$?0AEBV?$allocator@V?$vector@Ullama_grammar_element@@V?$allocator@Ullama_grammar_element@@@std@@@std@@@std@@$$V@?$_Compressed_pair@V?$allocator@V?$vector@Ullama_grammar_element@@V?$allocator@Ullama_grammar_element@@@std@@@std@@@std@@V?$_Vector_val@U?$_Simple_types@V?$vector@Ullama_grammar_element@@V?$allocator@Ullama_grammar_element@@@std@@@std@@@std@@@2@$00@std@@QEAA@U_One_then_variadic_args_t@1@AEBV?$allocator@V?$vector@Ullama_grammar_element@@V?$allocator@Ullama_grammar_element@@@std@@@std@@@1@@Z
	??$?0AEBV?$allocator@_J@std@@$$V@?$_Compressed_pair@V?$allocator@_J@std@@V?$_Vector_val@U?$_Simple_types@_J@std@@@2@$00@std@@QEAA@U_One_then_variadic_args_t@1@AEBV?$allocator@_J@1@@Z
	??$?0AEBV?$allocator@_K@std@@$$V@?$_Compressed_pair@V?$allocator@_K@std@@V?$_Vector_val@U?$_Simple_types@_K@std@@@2@$00@std@@QEAA@U_One_then_variadic_args_t@1@AEBV?$allocator@_K@1@@Z
	??$?0AEBV?$allocator@_W@std@@$$V@?$_Compressed_pair@V?$allocator@_W@std@@V?$_String_val@U?$_Simple_types@_W@std@@@2@$00@std@@QEAA@U_One_then_variadic_args_t@1@AEBV?$allocator@_W@1@@Z
	??$?0AEBV?$allocator@_W@std@@$$V@?$_Compressed_pair@V?$allocator@_W@std@@V?$_Vector_val@U?$_Simple_types@_W@std@@@2@$00@std@@QEAA@U_One_then_variadic_args_t@1@AEBV?$allocator@_W@1@@Z
	??$?0AEBV?$basic_string@DU?$char_traits@D@std@@V?$allocator@D@2@@std@@$$Z$$V@?$pair@$$CBV?$basic_string@DU?$char_traits@D@std@@V?$allocator@D@2@@std@@H@std@@QEAA@Upiecewise_construct_t@1@V?$tuple@AEBV?$basic_string@DU?$char_traits@D@std@@V?$allocator@D@2@@std@@@1@V?$tuple@$$V@1@@Z
	??$?0AEBV?$basic_string@DU?$char_traits@D@std@@V?$allocator@D@2@@std@@$$Z$$V@?$pair@$$CBV?$basic_string@DU?$char_traits@D@std@@V?$allocator@D@2@@std@@U?$pair@HH@2@@std@@QEAA@Upiecewise_construct_t@1@V?$tuple@AEBV?$basic_string@DU?$char_traits@D@std@@V?$allocator@D@2@@std@@@1@V?$tuple@$$V@1@@Z
	??$?0AEBV?$basic_string@DU?$char_traits@D@std@@V?$allocator@D@2@@std@@$$Z$$V@?$pair@$$CBV?$basic_string@DU?$char_traits@D@std@@V?$allocator@D@2@@std@@Ullama_lora_weight@@@std@@QEAA@Upiecewise_construct_t@1@V?$tuple@AEBV?$basic_string@DU?$char_traits@D@std@@V?$allocator@D@2@@std@@@1@V?$tuple@$$V@1@@Z
	??$?0AEBV?$basic_string@DU?$char_traits@D@std@@V?$allocator@D@2@@std@@$0A@@?$tuple@AEBV?$basic_string@DU?$char_traits@D@std@@V?$allocator@D@2@@std@@@std@@QEAA@AEBV?$basic_string@DU?$char_traits@D@std@@V?$allocator@D@2@@1@@Z
	??$?0AEBV?$basic_string@DU?$char_traits@D@std@@V?$allocator@D@2@@std@@@?$_Tree_temp_node@V?$allocator@U?$_Tree_node@V?$basic_string@DU?$char_traits@D@std@@V?$allocator@D@2@@std@@PEAX@std@@@std@@@std@@QEAA@AEAV?$allocator@U?$_Tree_node@V?$basic_string@DU?$char_traits@D@std@@V?$allocator@D@2@@std@@PEAX@std@@@1@PEAU?$_Tree_node@V?$basic_string@DU?$char_traits@D@std@@V?$allocator@D@2@@std@@PEAX@1@AEBV?$basic_string@DU?$char_traits@D@std@@V?$allocator@D@2@@1@@Z
	??$?0AEBV?$basic_string@DU?$char_traits@D@std@@V?$allocator@D@2@@std@@@?$_Tuple_val@AEBV?$basic_string@DU?$char_traits@D@std@@V?$allocator@D@2@@std@@@std@@QEAA@AEBV?$basic_string@DU?$char_traits@D@std@@V?$allocator@D@2@@1@@Z
	??$?0AEBVexception_ptr@std@@V_TaskCreationCallstack@details@Concurrency@@@?$_Ref_count_obj2@U_ExceptionHolder@details@Concurrency@@@std@@QEAA@AEBVexception_ptr@1@$$QEAV_TaskCreationCallstack@details@Concurrency@@@Z
	??$?0AEBW4ggml_type@@$$Z$$V@?$pair@$$CBW4ggml_type@@I@std@@QEAA@Upiecewise_construct_t@1@V?$tuple@AEBW4ggml_type@@@1@V?$tuple@$$V@1@@Z
	??$?0AEBW4ggml_type@@$0A@@?$tuple@AEBW4ggml_type@@@std@@QEAA@AEBW4ggml_type@@@Z
	??$?0AEBW4ggml_type@@@?$_Tuple_val@AEBW4ggml_type@@@std@@QEAA@AEBW4ggml_type@@@Z
	??$?0C@?$allocator@U_Container_proxy@std@@@std@@QEAA@AEBV?$allocator@C@1@@Z
	??$?0D@?$allocator@U_Container_proxy@std@@@std@@QEAA@AEBV?$allocator@D@1@@Z
	??$?0DUnaive_trie@@$0A@@?$pair@$$CBDUnaive_trie@@@std@@QEAA@$$QEAU?$pair@DUnaive_trie@@@1@@Z
	??$?0E$$V$0A@@?$tuple@$$QEAE@std@@QEAA@$$QEAE@Z
	??$?0E@?$_Tuple_val@$$QEAE@std@@QEAA@$$QEAE@Z
	??$?0E@?$allocator@U_Container_proxy@std@@@std@@QEAA@AEBV?$allocator@E@1@@Z
	??$?0H@?$allocator@U_Container_proxy@std@@@std@@QEAA@AEBV?$allocator@H@1@@Z
	??$?0HH$0A@@?$pair@$$CBII@std@@QEAA@$$QEAH0@Z
	??$?0HH$0A@@?$pair@HH@std@@QEAA@XZ
	??$?0HH$0A@@?$pair@IG@std@@QEAA@$$QEAH0@Z
	??$?0I@?$allocator@U?$_List_node@IPEAX@std@@@std@@QEAA@AEBV?$allocator@I@1@@Z
	??$?0I@?$allocator@U_Container_proxy@std@@@std@@QEAA@AEBV?$allocator@I@1@@Z
	??$?0I@?$allocator@V?$_List_unchecked_const_iterator@V?$_List_val@U?$_List_simple_types@I@std@@@std@@U_Iterator_base0@2@@std@@@std@@QEAA@AEBV?$allocator@I@1@@Z
	??$?0M@?$_Compressed_pair@U?$equal_to@E@std@@M$00@std@@QEAA@U_Zero_then_variadic_args_t@1@$$QEAM@Z
	??$?0M@?$_Compressed_pair@U?$equal_to@H@std@@M$00@std@@QEAA@U_Zero_then_variadic_args_t@1@$$QEAM@Z
	??$?0M@?$_Compressed_pair@U?$equal_to@I@std@@M$00@std@@QEAA@U_Zero_then_variadic_args_t@1@$$QEAM@Z
	??$?0M@?$_Compressed_pair@U?$equal_to@PEAUllama_lora_adapter@@@std@@M$00@std@@QEAA@U_Zero_then_variadic_args_t@1@$$QEAM@Z
	??$?0M@?$_Compressed_pair@U?$equal_to@V?$basic_string@DU?$char_traits@D@std@@V?$allocator@D@2@@std@@@std@@M$00@std@@QEAA@U_Zero_then_variadic_args_t@1@$$QEAM@Z
	??$?0M@?$allocator@U_Container_proxy@std@@@std@@QEAA@AEBV?$allocator@M@1@@Z
	??$?0N@?$allocator@U_Container_proxy@std@@@std@@QEAA@AEBV?$allocator@N@1@@Z
	??$?0PEAD$0A@@?$basic_string@DU?$char_traits@D@std@@V?$allocator@D@2@@std@@QEAA@PEAD0AEBV?$allocator@D@1@@Z
	??$?0PEAD$0A@@?$vector@DV?$allocator@D@std@@@std@@QEAA@PEAD0AEBV?$allocator@D@1@@Z
	??$?0PEAE@?$_Tuple_val@PEAE@std@@QEAA@$$QEAPEAE@Z
	??$?0PEAH@?$allocator@U_Container_proxy@std@@@std@@QEAA@AEBV?$allocator@PEAH@1@@Z
	??$?0PEAM@?$_Tuple_val@PEAM@std@@QEAA@$$QEAPEAM@Z
	??$?0PEAU?$_List_node@U?$pair@$$CBEV?$basic_string@DU?$char_traits@D@std@@V?$allocator@D@2@@std@@@std@@PEAX@std@@_N$0A@@?$pair@PEAU?$_List_node@U?$pair@$$CBEV?$basic_string@DU?$char_traits@D@std@@V?$allocator@D@2@@std@@@std@@PEAX@std@@_N@std@@QEAA@$$QEAPEAU?$_List_node@U?$pair@$$CBEV?$basic_string@DU?$char_traits@D@std@@V?$allocator@D@2@@std@@@std@@PEAX@1@$$QEA_N@Z
	??$?0PEAU?$_List_node@U?$pair@$$CBHH@std@@PEAX@std@@_N$0A@@?$pair@PEAU?$_List_node@U?$pair@$$CBHH@std@@PEAX@std@@_N@std@@QEAA@$$QEAPEAU?$_List_node@U?$pair@$$CBHH@std@@PEAX@1@$$QEA_N@Z
	??$?0PEAU?$_List_node@U?$pair@$$CBV?$basic_string@DU?$char_traits@D@std@@V?$allocator@D@2@@std@@E@std@@PEAX@std@@_N$0A@@?$pair@PEAU?$_List_node@U?$pair@$$CBV?$basic_string@DU?$char_traits@D@std@@V?$allocator@D@2@@std@@E@std@@PEAX@std@@_N@std@@QEAA@$$QEAPEAU?$_List_node@U?$pair@$$CBV?$basic_string@DU?$char_traits@D@std@@V?$allocator@D@2@@std@@E@std@@PEAX@1@$$QEA_N@Z
	??$?0PEAU?$_List_node@U?$pair@$$CBV?$basic_string@DU?$char_traits@D@std@@V?$allocator@D@2@@std@@H@std@@PEAX@std@@_N$0A@@?$pair@PEAU?$_List_node@U?$pair@$$CBV?$basic_string@DU?$char_traits@D@std@@V?$allocator@D@2@@std@@H@std@@PEAX@std@@_N@std@@QEAA@$$QEAPEAU?$_List_node@U?$pair@$$CBV?$basic_string@DU?$char_traits@D@std@@V?$allocator@D@2@@std@@H@std@@PEAX@1@$$QEA_N@Z
	??$?0PEAU?$_List_node@U?$pair@$$CBV?$basic_string@DU?$char_traits@D@std@@V?$allocator@D@2@@std@@Ullama_lora_weight@@@std@@PEAX@std@@_N$0A@@?$pair@PEAU?$_List_node@U?$pair@$$CBV?$basic_string@DU?$char_traits@D@std@@V?$allocator@D@2@@std@@Ullama_lora_weight@@@std@@PEAX@std@@_N@std@@QEAA@$$QEAPEAU?$_List_node@U?$pair@$$CBV?$basic_string@DU?$char_traits@D@std@@V?$allocator@D@2@@std@@Ullama_lora_weight@@@std@@PEAX@1@$$QEA_N@Z
	??$?0PEAU?$_List_node@U?$pair@QEAUllama_lora_adapter@@M@std@@PEAX@std@@_N$0A@@?$pair@PEAU?$_List_node@U?$pair@QEAUllama_lora_adapter@@M@std@@PEAX@std@@_N@std@@QEAA@$$QEAPEAU?$_List_node@U?$pair@QEAUllama_lora_adapter@@M@std@@PEAX@1@$$QEA_N@Z
	??$?0PEAU?$_Tree_node@HPEAX@std@@_N$0A@@?$pair@PEAU?$_Tree_node@HPEAX@std@@_N@std@@QEAA@$$QEAPEAU?$_Tree_node@HPEAX@1@$$QEA_N@Z
	??$?0PEAU?$_Tree_node@PEAUllama_lora_adapter@@PEAX@std@@_N$0A@@?$pair@PEAU?$_Tree_node@PEAUllama_lora_adapter@@PEAX@std@@_N@std@@QEAA@$$QEAPEAU?$_Tree_node@PEAUllama_lora_adapter@@PEAX@1@$$QEA_N@Z
	??$?0PEAU?$_Tree_node@U?$pair@$$CBDUnaive_trie@@@std@@PEAX@std@@_N$0A@@?$pair@PEAU?$_Tree_node@U?$pair@$$CBDUnaive_trie@@@std@@PEAX@std@@_N@std@@QEAA@$$QEAPEAU?$_Tree_node@U?$pair@$$CBDUnaive_trie@@@std@@PEAX@1@$$QEA_N@Z
	??$?0PEAU?$_Tree_node@U?$pair@$$CBHV?$vector@MV?$allocator@M@std@@@std@@@std@@PEAX@std@@_N$0A@@?$pair@PEAU?$_Tree_node@U?$pair@$$CBHV?$vector@MV?$allocator@M@std@@@std@@@std@@PEAX@std@@_N@std@@QEAA@$$QEAPEAU?$_Tree_node@U?$pair@$$CBHV?$vector@MV?$allocator@M@std@@@std@@@std@@PEAX@1@$$QEA_N@Z
	??$?0PEAU?$_Tree_node@U?$pair@$$CBU?$pair@V?$basic_string@DU?$char_traits@D@std@@V?$allocator@D@2@@std@@V12@@std@@H@std@@PEAX@std@@_N$0A@@?$pair@PEAU?$_Tree_node@U?$pair@$$CBU?$pair@V?$basic_string@DU?$char_traits@D@std@@V?$allocator@D@2@@std@@V12@@std@@H@std@@PEAX@std@@_N@std@@QEAA@$$QEAPEAU?$_Tree_node@U?$pair@$$CBU?$pair@V?$basic_string@DU?$char_traits@D@std@@V?$allocator@D@2@@std@@V12@@std@@H@std@@PEAX@1@$$QEA_N@Z
	??$?0PEAU?$_Tree_node@U?$pair@$$CBV?$basic_string@DU?$char_traits@D@std@@V?$allocator@D@2@@std@@U?$pair@HH@2@@std@@PEAX@std@@_N$0A@@?$pair@PEAU?$_Tree_node@U?$pair@$$CBV?$basic_string@DU?$char_traits@D@std@@V?$allocator@D@2@@std@@U?$pair@HH@2@@std@@PEAX@std@@_N@std@@QEAA@$$QEAPEAU?$_Tree_node@U?$pair@$$CBV?$basic_string@DU?$char_traits@D@std@@V?$allocator@D@2@@std@@U?$pair@HH@2@@std@@PEAX@1@$$QEA_N@Z
	??$?0PEAU?$_Tree_node@U?$pair@$$CBV?$basic_string@DU?$char_traits@D@std@@V?$allocator@D@2@@std@@Ullama_lora_weight@@@std@@PEAX@std@@_N$0A@@?$pair@PEAU?$_Tree_node@U?$pair@$$CBV?$basic_string@DU?$char_traits@D@std@@V?$allocator@D@2@@std@@Ullama_lora_weight@@@std@@PEAX@std@@_N@std@@QEAA@$$QEAPEAU?$_Tree_node@U?$pair@$$CBV?$basic_string@DU?$char_traits@D@std@@V?$allocator@D@2@@std@@Ullama_lora_weight@@@std@@PEAX@1@$$QEA_N@Z
	??$?0PEAU?$_Tree_node@U?$pair@$$CBW4ggml_type@@I@std@@PEAX@std@@_N$0A@@?$pair@PEAU?$_Tree_node@U?$pair@$$CBW4ggml_type@@I@std@@PEAX@std@@_N@std@@QEAA@$$QEAPEAU?$_Tree_node@U?$pair@$$CBW4ggml_type@@I@std@@PEAX@1@$$QEA_N@Z
	??$?0PEAU?$_Tree_node@U?$pair@QEAUggml_backend_buffer_type@@H@std@@PEAX@std@@_N$0A@@?$pair@PEAU?$_Tree_node@U?$pair@QEAUggml_backend_buffer_type@@H@std@@PEAX@std@@_N@std@@QEAA@$$QEAPEAU?$_Tree_node@U?$pair@QEAUggml_backend_buffer_type@@H@std@@PEAX@1@$$QEA_N@Z
	??$?0PEAU?$_Tree_node@U?$pair@QEAUggml_backend_buffer_type@@PEAUggml_context@@@std@@PEAX@std@@_N$0A@@?$pair@PEAU?$_Tree_node@U?$pair@QEAUggml_backend_buffer_type@@PEAUggml_context@@@std@@PEAX@std@@_N@std@@QEAA@$$QEAPEAU?$_Tree_node@U?$pair@QEAUggml_backend_buffer_type@@PEAUggml_context@@@std@@PEAX@1@$$QEA_N@Z
	??$?0PEAU?$_Tree_node@V?$basic_string@DU?$char_traits@D@std@@V?$allocator@D@2@@std@@PEAX@std@@_N$0A@@?$pair@PEAU?$_Tree_node@V?$basic_string@DU?$char_traits@D@std@@V?$allocator@D@2@@std@@PEAX@std@@_N@std@@QEAA@$$QEAPEAU?$_Tree_node@V?$basic_string@DU?$char_traits@D@std@@V?$allocator@D@2@@std@@PEAX@1@$$QEA_N@Z
	??$?0PEAUggml_backend@@@?$allocator@U_Container_proxy@std@@@std@@QEAA@AEBV?$allocator@PEAUggml_backend@@@1@@Z
	??$?0PEAUggml_backend_buffer@@@?$allocator@U_Container_proxy@std@@@std@@QEAA@AEBV?$allocator@PEAUggml_backend_buffer@@@1@@Z
	??$?0PEAUggml_backend_buffer_type@@$$V$0A@@?$tuple@$$QEAPEAUggml_backend_buffer_type@@@std@@QEAA@$$QEAPEAUggml_backend_buffer_type@@@Z
	??$?0PEAUggml_backend_buffer_type@@@?$_Tuple_val@$$QEAPEAUggml_backend_buffer_type@@@std@@QEAA@$$QEAPEAUggml_backend_buffer_type@@@Z
	??$?0PEAUggml_backend_buffer_type@@@?$allocator@U_Container_proxy@std@@@std@@QEAA@AEBV?$allocator@PEAUggml_backend_buffer_type@@@1@@Z
	??$?0PEAUggml_context@@@?$allocator@U_Container_proxy@std@@@std@@QEAA@AEBV?$allocator@PEAUggml_context@@@1@@Z
	??$?0PEAUggml_tensor@@@?$allocator@U_Container_proxy@std@@@std@@QEAA@AEBV?$allocator@PEAUggml_tensor@@@1@@Z
	??$?0PEAUggml_tensor@@_N$0A@@?$pair@PEAUggml_tensor@@_N@std@@QEAA@XZ
	??$?0PEAUgguf_context@@@?$allocator@U_Container_proxy@std@@@std@@QEAA@AEBV?$allocator@PEAUgguf_context@@@1@@Z
	??$?0PEAUllama_lora_adapter@@@?$_Tree_temp_node@V?$allocator@U?$_Tree_node@PEAUllama_lora_adapter@@PEAX@std@@@std@@@std@@QEAA@AEAV?$allocator@U?$_Tree_node@PEAUllama_lora_adapter@@PEAX@std@@@1@PEAU?$_Tree_node@PEAUllama_lora_adapter@@PEAX@1@$$QEAPEAUllama_lora_adapter@@@Z
	??$?0PEAUllama_token_data@@@?$allocator@U_Container_proxy@std@@@std@@QEAA@AEBV?$allocator@PEAUllama_token_data@@@1@@Z
	??$?0PEAX@?$allocator@U_Container_proxy@std@@@std@@QEAA@AEBV?$allocator@PEAX@1@@Z
	??$?0PEA_W$0A@@?$vector@_WV?$allocator@_W@std@@@std@@QEAA@PEA_W0AEBV?$allocator@_W@1@@Z
	??$?0PEBD$0A@@?$vector@DV?$allocator@D@std@@@std@@QEAA@PEBD0AEBV?$allocator@D@1@@Z
	??$?0PEBDAEAPEAUggml_tensor@@$0A@@?$pair@V?$basic_string@DU?$char_traits@D@std@@V?$allocator@D@2@@std@@PEAUggml_tensor@@@std@@QEAA@$$QEAPEBDAEAPEAUggml_tensor@@@Z
	??$?0PEBDPEBD$0A@@?$pair@PEBDPEBD@std@@QEAA@XZ
	??$?0PEBUllama_chat_message@@@?$allocator@U_Container_proxy@std@@@std@@QEAA@AEBV?$allocator@PEBUllama_chat_message@@@1@@Z
	??$?0PEBUllama_grammar_element@@@?$allocator@U_Container_proxy@std@@@std@@QEAA@AEBV?$allocator@PEBUllama_grammar_element@@@1@@Z
	??$?0PEB_W$0A@@?$vector@_WV?$allocator@_W@std@@@std@@QEAA@PEB_W0AEBV?$allocator@_W@1@@Z
	??$?0PEB_WPEB_W$0A@@?$pair@PEB_WPEB_W@std@@QEAA@XZ
	??$?0U?$_Flist_node@Ufragment_buffer_variant@@PEAX@std@@@?$allocator@U_Container_proxy@std@@@std@@QEAA@AEBV?$allocator@U?$_Flist_node@Ufragment_buffer_variant@@PEAX@std@@@1@@Z
	??$?0U?$_List_node@IPEAX@std@@@?$allocator@U_Container_proxy@std@@@std@@QEAA@AEBV?$allocator@U?$_List_node@IPEAX@std@@@1@@Z
	??$?0U?$_List_node@U?$pair@$$CBEV?$basic_string@DU?$char_traits@D@std@@V?$allocator@D@2@@std@@@std@@PEAX@std@@@?$allocator@U_Container_proxy@std@@@std@@QEAA@AEBV?$allocator@U?$_List_node@U?$pair@$$CBEV?$basic_string@DU?$char_traits@D@std@@V?$allocator@D@2@@std@@@std@@PEAX@std@@@1@@Z
	??$?0U?$_List_node@U?$pair@$$CBHH@std@@PEAX@std@@@?$allocator@U_Container_proxy@std@@@std@@QEAA@AEBV?$allocator@U?$_List_node@U?$pair@$$CBHH@std@@PEAX@std@@@1@@Z
	??$?0U?$_List_node@U?$pair@$$CBII@std@@PEAX@std@@@?$allocator@U_Container_proxy@std@@@std@@QEAA@AEBV?$allocator@U?$_List_node@U?$pair@$$CBII@std@@PEAX@std@@@1@@Z
	??$?0U?$_List_node@U?$pair@$$CBIPEAUggml_backend_buffer@@@std@@PEAX@std@@@?$allocator@U?$pair@$$CBIPEAUggml_backend_buffer@@@std@@@std@@QEAA@AEBV?$allocator@U?$_List_node@U?$pair@$$CBIPEAUggml_backend_buffer@@@std@@PEAX@std@@@1@@Z
	??$?0U?$_List_node@U?$pair@$$CBIPEAUggml_backend_buffer@@@std@@PEAX@std@@@?$allocator@U_Container_proxy@std@@@std@@QEAA@AEBV?$allocator@U?$_List_node@U?$pair@$$CBIPEAUggml_backend_buffer@@@std@@PEAX@std@@@1@@Z
	??$?0U?$_List_node@U?$pair@$$CBIPEAUggml_backend_buffer@@@std@@PEAX@std@@@?$allocator@V?$_List_unchecked_iterator@V?$_List_val@U?$_List_simple_types@U?$pair@$$CBIPEAUggml_backend_buffer@@@std@@@std@@@std@@@std@@@std@@QEAA@AEBV?$allocator@U?$_List_node@U?$pair@$$CBIPEAUggml_backend_buffer@@@std@@PEAX@std@@@1@@Z
	??$?0U?$_List_node@U?$pair@$$CBV?$basic_string@DU?$char_traits@D@std@@V?$allocator@D@2@@std@@E@std@@PEAX@std@@@?$allocator@U_Container_proxy@std@@@std@@QEAA@AEBV?$allocator@U?$_List_node@U?$pair@$$CBV?$basic_string@DU?$char_traits@D@std@@V?$allocator@D@2@@std@@E@std@@PEAX@std@@@1@@Z
	??$?0U?$_List_node@U?$pair@$$CBV?$basic_string@DU?$char_traits@D@std@@V?$allocator@D@2@@std@@H@std@@PEAX@std@@@?$allocator@U_Container_proxy@std@@@std@@QEAA@AEBV?$allocator@U?$_List_node@U?$pair@$$CBV?$basic_string@DU?$char_traits@D@std@@V?$allocator@D@2@@std@@H@std@@PEAX@std@@@1@@Z
	??$?0U?$_List_node@U?$pair@$$CBV?$basic_string@DU?$char_traits@D@std@@V?$allocator@D@2@@std@@Ullama_lora_weight@@@std@@PEAX@std@@@?$allocator@U_Container_proxy@std@@@std@@QEAA@AEBV?$allocator@U?$_List_node@U?$pair@$$CBV?$basic_string@DU?$char_traits@D@std@@V?$allocator@D@2@@std@@Ullama_lora_weight@@@std@@PEAX@std@@@1@@Z
	??$?0U?$_List_node@U?$pair@$$CBV?$basic_string@DU?$char_traits@D@std@@V?$allocator@D@2@@std@@Ullama_model_kv_override@@@std@@PEAX@std@@@?$allocator@U_Container_proxy@std@@@std@@QEAA@AEBV?$allocator@U?$_List_node@U?$pair@$$CBV?$basic_string@DU?$char_traits@D@std@@V?$allocator@D@2@@std@@Ullama_model_kv_override@@@std@@PEAX@std@@@1@@Z
	??$?0U?$_List_node@U?$pair@$$CBV?$basic_string@DU?$char_traits@D@std@@V?$allocator@D@2@@std@@V12@@std@@PEAX@std@@@?$allocator@U_Container_proxy@std@@@std@@QEAA@AEBV?$allocator@U?$_List_node@U?$pair@$$CBV?$basic_string@DU?$char_traits@D@std@@V?$allocator@D@2@@std@@V12@@std@@PEAX@std@@@1@@Z
	??$?0U?$_List_node@U?$pair@QEAUllama_lora_adapter@@M@std@@PEAX@std@@@?$allocator@U_Container_proxy@std@@@std@@QEAA@AEBV?$allocator@U?$_List_node@U?$pair@QEAUllama_lora_adapter@@M@std@@PEAX@std@@@1@@Z
	??$?0U?$_Task_impl@E@details@Concurrency@@$0A@@?$weak_ptr@U_Task_impl_base@details@Concurrency@@@std@@QEAA@AEBV?$shared_ptr@U?$_Task_impl@E@details@Concurrency@@@1@@Z
	??$?0U?$_Tree_node@HPEAX@std@@@?$allocator@U_Container_proxy@std@@@std@@QEAA@AEBV?$allocator@U?$_Tree_node@HPEAX@std@@@1@@Z
	??$?0U?$_Tree_node@PEAUllama_lora_adapter@@PEAX@std@@@?$allocator@U_Container_proxy@std@@@std@@QEAA@AEBV?$allocator@U?$_Tree_node@PEAUllama_lora_adapter@@PEAX@std@@@1@@Z
	??$?0U?$_Tree_node@U?$pair@$$CBDUnaive_trie@@@std@@PEAX@std@@@?$allocator@U_Container_proxy@std@@@std@@QEAA@AEBV?$allocator@U?$_Tree_node@U?$pair@$$CBDUnaive_trie@@@std@@PEAX@std@@@1@@Z
	??$?0U?$_Tree_node@U?$pair@$$CBHH@std@@PEAX@std@@@?$allocator@U_Container_proxy@std@@@std@@QEAA@AEBV?$allocator@U?$_Tree_node@U?$pair@$$CBHH@std@@PEAX@std@@@1@@Z
	??$?0U?$_Tree_node@U?$pair@$$CBHV?$basic_string@DU?$char_traits@D@std@@V?$allocator@D@2@@std@@@std@@PEAX@std@@@?$allocator@U_Container_proxy@std@@@std@@QEAA@AEBV?$allocator@U?$_Tree_node@U?$pair@$$CBHV?$basic_string@DU?$char_traits@D@std@@V?$allocator@D@2@@std@@@std@@PEAX@std@@@1@@Z
	??$?0U?$_Tree_node@U?$pair@$$CBHV?$vector@MV?$allocator@M@std@@@std@@@std@@PEAX@std@@@?$allocator@U_Container_proxy@std@@@std@@QEAA@AEBV?$allocator@U?$_Tree_node@U?$pair@$$CBHV?$vector@MV?$allocator@M@std@@@std@@@std@@PEAX@std@@@1@@Z
	??$?0U?$_Tree_node@U?$pair@$$CBU?$pair@V?$basic_string@DU?$char_traits@D@std@@V?$allocator@D@2@@std@@V12@@std@@H@std@@PEAX@std@@@?$allocator@U_Container_proxy@std@@@std@@QEAA@AEBV?$allocator@U?$_Tree_node@U?$pair@$$CBU?$pair@V?$basic_string@DU?$char_traits@D@std@@V?$allocator@D@2@@std@@V12@@std@@H@std@@PEAX@std@@@1@@Z
	??$?0U?$_Tree_node@U?$pair@$$CBV?$basic_string@DU?$char_traits@D@std@@V?$allocator@D@2@@std@@H@std@@PEAX@std@@@?$allocator@U_Container_proxy@std@@@std@@QEAA@AEBV?$allocator@U?$_Tree_node@U?$pair@$$CBV?$basic_string@DU?$char_traits@D@std@@V?$allocator@D@2@@std@@H@std@@PEAX@std@@@1@@Z
	??$?0U?$_Tree_node@U?$pair@$$CBV?$basic_string@DU?$char_traits@D@std@@V?$allocator@D@2@@std@@U?$pair@HH@2@@std@@PEAX@std@@@?$allocator@U_Container_proxy@std@@@std@@QEAA@AEBV?$allocator@U?$_Tree_node@U?$pair@$$CBV?$basic_string@DU?$char_traits@D@std@@V?$allocator@D@2@@std@@U?$pair@HH@2@@std@@PEAX@std@@@1@@Z
	??$?0U?$_Tree_node@U?$pair@$$CBV?$basic_string@DU?$char_traits@D@std@@V?$allocator@D@2@@std@@Ullama_lora_weight@@@std@@PEAX@std@@@?$allocator@U_Container_proxy@std@@@std@@QEAA@AEBV?$allocator@U?$_Tree_node@U?$pair@$$CBV?$basic_string@DU?$char_traits@D@std@@V?$allocator@D@2@@std@@Ullama_lora_weight@@@std@@PEAX@std@@@1@@Z
	??$?0U?$_Tree_node@U?$pair@$$CBW4ggml_type@@I@std@@PEAX@std@@@?$allocator@U_Container_proxy@std@@@std@@QEAA@AEBV?$allocator@U?$_Tree_node@U?$pair@$$CBW4ggml_type@@I@std@@PEAX@std@@@1@@Z
	??$?0U?$_Tree_node@U?$pair@$$CBW4llama_rope_scaling_type@@PEBD@std@@PEAX@std@@@?$allocator@U_Container_proxy@std@@@std@@QEAA@AEBV?$allocator@U?$_Tree_node@U?$pair@$$CBW4llama_rope_scaling_type@@PEBD@std@@PEAX@std@@@1@@Z
	??$?0U?$_Tree_node@U?$pair@$$CBW4llm_arch@@PEBD@std@@PEAX@std@@@?$allocator@U_Container_proxy@std@@@std@@QEAA@AEBV?$allocator@U?$_Tree_node@U?$pair@$$CBW4llm_arch@@PEBD@std@@PEAX@std@@@1@@Z
	??$?0U?$_Tree_node@U?$pair@$$CBW4llm_arch@@V?$map@W4llm_tensor@@V?$basic_string@DU?$char_traits@D@std@@V?$allocator@D@2@@std@@U?$less@W4llm_tensor@@@3@V?$allocator@U?$pair@$$CBW4llm_tensor@@V?$basic_string@DU?$char_traits@D@std@@V?$allocator@D@2@@std@@@std@@@3@@std@@@std@@PEAX@std@@@?$allocator@U_Container_proxy@std@@@std@@QEAA@AEBV?$allocator@U?$_Tree_node@U?$pair@$$CBW4llm_arch@@V?$map@W4llm_tensor@@V?$basic_string@DU?$char_traits@D@std@@V?$allocator@D@2@@std@@U?$less@W4llm_tensor@@@3@V?$allocator@U?$pair@$$CBW4llm_tensor@@V?$basic_string@DU?$char_traits@D@std@@V?$allocator@D@2@@std@@@std@@@3@@std@@@std@@PEAX@std@@@1@@Z
	??$?0U?$_Tree_node@U?$pair@$$CBW4llm_kv@@PEBD@std@@PEAX@std@@@?$allocator@U_Container_proxy@std@@@std@@QEAA@AEBV?$allocator@U?$_Tree_node@U?$pair@$$CBW4llm_kv@@PEBD@std@@PEAX@std@@@1@@Z
	??$?0U?$_Tree_node@U?$pair@$$CBW4llm_tensor@@V?$basic_string@DU?$char_traits@D@std@@V?$allocator@D@2@@std@@@std@@PEAX@std@@@?$allocator@U_Container_proxy@std@@@std@@QEAA@AEBV?$allocator@U?$_Tree_node@U?$pair@$$CBW4llm_tensor@@V?$basic_string@DU?$char_traits@D@std@@V?$allocator@D@2@@std@@@std@@PEAX@std@@@1@@Z
	??$?0U?$_Tree_node@U?$pair@QEAUggml_backend_buffer_type@@H@std@@PEAX@std@@@?$allocator@U_Container_proxy@std@@@std@@QEAA@AEBV?$allocator@U?$_Tree_node@U?$pair@QEAUggml_backend_buffer_type@@H@std@@PEAX@std@@@1@@Z
	??$?0U?$_Tree_node@U?$pair@QEAUggml_backend_buffer_type@@PEAUggml_context@@@std@@PEAX@std@@@?$allocator@U_Container_proxy@std@@@std@@QEAA@AEBV?$allocator@U?$_Tree_node@U?$pair@QEAUggml_backend_buffer_type@@PEAUggml_context@@@std@@PEAX@std@@@1@@Z
	??$?0U?$_Tree_node@V?$basic_string@DU?$char_traits@D@std@@V?$allocator@D@2@@std@@PEAX@std@@@?$allocator@U_Container_proxy@std@@@std@@QEAA@AEBV?$allocator@U?$_Tree_node@V?$basic_string@DU?$char_traits@D@std@@V?$allocator@D@2@@std@@PEAX@std@@@1@@Z
	??$?0U?$char_traits@D@std@@V?$allocator@D@1@@?$basic_regex@DV?$regex_traits@D@std@@@std@@QEAA@AEBV?$basic_string@DU?$char_traits@D@std@@V?$allocator@D@2@@1@W4syntax_option_type@regex_constants@1@@Z
	??$?0U?$char_traits@_W@std@@V?$allocator@_W@1@@?$basic_regex@_WV?$regex_traits@_W@std@@@std@@QEAA@AEBV?$basic_string@_WU?$char_traits@_W@std@@V?$allocator@_W@2@@1@W4syntax_option_type@regex_constants@1@@Z
	??$?0U?$default_delete@U_TaskProcHandle@details@Concurrency@@@std@@$0A@@?$unique_ptr@U_TaskProcHandle@details@Concurrency@@U?$default_delete@U_TaskProcHandle@details@Concurrency@@@std@@@std@@QEAA@PEAU_TaskProcHandle@details@Concurrency@@@Z
	??$?0U?$default_delete@Ullama_file@@@std@@$0A@@?$unique_ptr@Ullama_file@@U?$default_delete@Ullama_file@@@std@@@std@@QEAA@$$QEAV01@@Z
	??$?0U?$default_delete@Ullama_file@@@std@@$0A@@?$unique_ptr@Ullama_file@@U?$default_delete@Ullama_file@@@std@@@std@@QEAA@PEAUllama_file@@@Z
	??$?0U?$default_delete@Ullama_file@@@std@@PEAUllama_file@@@?$_Compressed_pair@U?$default_delete@Ullama_file@@@std@@PEAUllama_file@@$00@std@@QEAA@U_One_then_variadic_args_t@1@$$QEAU?$default_delete@Ullama_file@@@1@$$QEAPEAUllama_file@@@Z
	??$?0U?$default_delete@Ullama_mlock@@@std@@$0A@@?$unique_ptr@Ullama_mlock@@U?$default_delete@Ullama_mlock@@@std@@@std@@QEAA@$$QEAV01@@Z
	??$?0U?$default_delete@Ullama_mlock@@@std@@$0A@@?$unique_ptr@Ullama_mlock@@U?$default_delete@Ullama_mlock@@@std@@@std@@QEAA@PEAUllama_mlock@@@Z
	??$?0U?$default_delete@Ullama_mlock@@@std@@PEAUllama_mlock@@@?$_Compressed_pair@U?$default_delete@Ullama_mlock@@@std@@PEAUllama_mlock@@$00@std@@QEAA@U_One_then_variadic_args_t@1@$$QEAU?$default_delete@Ullama_mlock@@@1@$$QEAPEAUllama_mlock@@@Z
	??$?0U?$default_delete@Ullama_mmap@@@std@@$0A@@?$unique_ptr@Ullama_mmap@@U?$default_delete@Ullama_mmap@@@std@@@std@@QEAA@$$QEAV01@@Z
	??$?0U?$default_delete@Ullama_mmap@@@std@@$0A@@?$unique_ptr@Ullama_mmap@@U?$default_delete@Ullama_mmap@@@std@@@std@@QEAA@PEAUllama_mmap@@@Z
	??$?0U?$default_delete@Ullama_mmap@@@std@@PEAUllama_mmap@@@?$_Compressed_pair@U?$default_delete@Ullama_mmap@@@std@@PEAUllama_mmap@@$00@std@@QEAA@U_One_then_variadic_args_t@1@$$QEAU?$default_delete@Ullama_mmap@@@1@$$QEAPEAUllama_mmap@@@Z
	??$?0U?$default_delete@V_Facet_base@std@@@std@@$0A@@?$unique_ptr@V_Facet_base@std@@U?$default_delete@V_Facet_base@std@@@2@@std@@QEAA@PEAV_Facet_base@1@@Z
	??$?0U?$default_delete@V_Node_assert@std@@@std@@$0A@@?$unique_ptr@V_Node_assert@std@@U?$default_delete@V_Node_assert@std@@@2@@std@@QEAA@$$QEAV01@@Z
	??$?0U?$default_delete@V_Node_assert@std@@@std@@$0A@@?$unique_ptr@V_Node_assert@std@@U?$default_delete@V_Node_assert@std@@@2@@std@@QEAA@PEAV_Node_assert@1@@Z
	??$?0U?$default_delete@V_Node_assert@std@@@std@@PEAV_Node_assert@1@@?$_Compressed_pair@U?$default_delete@V_Node_assert@std@@@std@@PEAV_Node_assert@2@$00@std@@QEAA@U_One_then_variadic_args_t@1@$$QEAU?$default_delete@V_Node_assert@std@@@1@$$QEAPEAV_Node_assert@1@@Z
	??$?0U?$default_delete@V_PPLTaskChore@_DefaultPPLTaskScheduler@details@Concurrency@@@std@@$0A@@?$unique_ptr@V_PPLTaskChore@_DefaultPPLTaskScheduler@details@Concurrency@@U?$default_delete@V_PPLTaskChore@_DefaultPPLTaskScheduler@details@Concurrency@@@std@@@std@@QEAA@$$QEAV01@@Z
	??$?0U?$default_delete@V_PPLTaskChore@_DefaultPPLTaskScheduler@details@Concurrency@@@std@@$0A@@?$unique_ptr@V_PPLTaskChore@_DefaultPPLTaskScheduler@details@Concurrency@@U?$default_delete@V_PPLTaskChore@_DefaultPPLTaskScheduler@details@Concurrency@@@std@@@std@@QEAA@PEAV_PPLTaskChore@_DefaultPPLTaskScheduler@details@Concurrency@@@Z
	??$?0U?$default_delete@V_PPLTaskChore@_DefaultPPLTaskScheduler@details@Concurrency@@@std@@PEAV_PPLTaskChore@_DefaultPPLTaskScheduler@details@Concurrency@@@?$_Compressed_pair@U?$default_delete@V_PPLTaskChore@_DefaultPPLTaskScheduler@details@Concurrency@@@std@@PEAV_PPLTaskChore@_DefaultPPLTaskScheduler@details@Concurrency@@$00@std@@QEAA@U_One_then_variadic_args_t@1@$$QEAU?$default_delete@V_PPLTaskChore@_DefaultPPLTaskScheduler@details@Concurrency@@@1@$$QEAPEAV_PPLTaskChore@_DefaultPPLTaskScheduler@details@Concurrency@@@Z
	??$?0U?$less@D@std@@U_One_then_variadic_args_t@1@V?$allocator@U?$_Tree_node@U?$pair@$$CBDUnaive_trie@@@std@@PEAX@std@@@1@@?$_Compressed_pair@U?$less@D@std@@V?$_Compressed_pair@V?$allocator@U?$_Tree_node@U?$pair@$$CBDUnaive_trie@@@std@@PEAX@std@@@std@@V?$_Tree_val@U?$_Tree_simple_types@U?$pair@$$CBDUnaive_trie@@@std@@@std@@@2@$00@2@$00@std@@QEAA@U_One_then_variadic_args_t@1@$$QEAU?$less@D@1@$$QEAU21@$$QEAV?$allocator@U?$_Tree_node@U?$pair@$$CBDUnaive_trie@@@std@@PEAX@std@@@1@@Z
	??$?0U?$less@H@std@@U_One_then_variadic_args_t@1@V?$allocator@U?$_Tree_node@HPEAX@std@@@1@@?$_Compressed_pair@U?$less@H@std@@V?$_Compressed_pair@V?$allocator@U?$_Tree_node@HPEAX@std@@@std@@V?$_Tree_val@U?$_Tree_simple_types@H@std@@@2@$00@2@$00@std@@QEAA@U_One_then_variadic_args_t@1@$$QEAU?$less@H@1@$$QEAU21@$$QEAV?$allocator@U?$_Tree_node@HPEAX@std@@@1@@Z
	??$?0U?$less@W4llm_tensor@@@std@@U_One_then_variadic_args_t@1@V?$allocator@U?$_Tree_node@U?$pair@$$CBW4llm_tensor@@V?$basic_string@DU?$char_traits@D@std@@V?$allocator@D@2@@std@@@std@@PEAX@std@@@1@@?$_Compressed_pair@U?$less@W4llm_tensor@@@std@@V?$_Compressed_pair@V?$allocator@U?$_Tree_node@U?$pair@$$CBW4llm_tensor@@V?$basic_string@DU?$char_traits@D@std@@V?$allocator@D@2@@std@@@std@@PEAX@std@@@std@@V?$_Tree_val@U?$_Tree_simple_types@U?$pair@$$CBW4llm_tensor@@V?$basic_string@DU?$char_traits@D@std@@V?$allocator@D@2@@std@@@std@@@std@@@2@$00@2@$00@std@@QEAA@U_One_then_variadic_args_t@1@$$QEAU?$less@W4llm_tensor@@@1@$$QEAU21@$$QEAV?$allocator@U?$_Tree_node@U?$pair@$$CBW4llm_tensor@@V?$basic_string@DU?$char_traits@D@std@@V?$allocator@D@2@@std@@@std@@PEAX@std@@@1@@Z
	??$?0U?$no_init@E@@@?$allocator@U_Container_proxy@std@@@std@@QEAA@AEBV?$allocator@U?$no_init@E@@@1@@Z
	??$?0U?$no_init@M@@@?$allocator@U_Container_proxy@std@@@std@@QEAA@AEBV?$allocator@U?$no_init@M@@@1@@Z
	??$?0U?$pair@$$CBEV?$basic_string@DU?$char_traits@D@std@@V?$allocator@D@2@@std@@@std@@@?$allocator@U?$_List_node@U?$pair@$$CBEV?$basic_string@DU?$char_traits@D@std@@V?$allocator@D@2@@std@@@std@@PEAX@std@@@std@@QEAA@AEBV?$allocator@U?$pair@$$CBEV?$basic_string@DU?$char_traits@D@std@@V?$allocator@D@2@@std@@@std@@@1@@Z
	??$?0U?$pair@$$CBEV?$basic_string@DU?$char_traits@D@std@@V?$allocator@D@2@@std@@@std@@@?$allocator@V?$_List_unchecked_iterator@V?$_List_val@U?$_List_simple_types@U?$pair@$$CBEV?$basic_string@DU?$char_traits@D@std@@V?$allocator@D@2@@std@@@std@@@std@@@std@@@std@@@std@@QEAA@AEBV?$allocator@U?$pair@$$CBEV?$basic_string@DU?$char_traits@D@std@@V?$allocator@D@2@@std@@@std@@@1@@Z
	??$?0U?$pair@$$CBHH@std@@@?$allocator@U?$_List_node@U?$pair@$$CBHH@std@@PEAX@std@@@std@@QEAA@AEBV?$allocator@U?$pair@$$CBHH@std@@@1@@Z
	??$?0U?$pair@$$CBHH@std@@@?$allocator@V?$_List_unchecked_iterator@V?$_List_val@U?$_List_simple_types@U?$pair@$$CBHH@std@@@std@@@std@@@std@@@std@@QEAA@AEBV?$allocator@U?$pair@$$CBHH@std@@@1@@Z
	??$?0U?$pair@$$CBII@std@@@?$allocator@U?$_List_node@U?$pair@$$CBII@std@@PEAX@std@@@std@@QEAA@AEBV?$allocator@U?$pair@$$CBII@std@@@1@@Z
	??$?0U?$pair@$$CBII@std@@@?$allocator@V?$_List_unchecked_iterator@V?$_List_val@U?$_List_simple_types@U?$pair@$$CBII@std@@@std@@@std@@@std@@@std@@QEAA@AEBV?$allocator@U?$pair@$$CBII@std@@@1@@Z
	??$?0U?$pair@$$CBIPEAUggml_backend_buffer@@@std@@@?$allocator@U?$_List_node@U?$pair@$$CBIPEAUggml_backend_buffer@@@std@@PEAX@std@@@std@@QEAA@AEBV?$allocator@U?$pair@$$CBIPEAUggml_backend_buffer@@@std@@@1@@Z
	??$?0U?$pair@$$CBIPEAUggml_backend_buffer@@@std@@@?$allocator@V?$_List_unchecked_iterator@V?$_List_val@U?$_List_simple_types@U?$pair@$$CBIPEAUggml_backend_buffer@@@std@@@std@@@std@@@std@@@std@@QEAA@AEBV?$allocator@U?$pair@$$CBIPEAUggml_backend_buffer@@@std@@@1@@Z
	??$?0U?$pair@$$CBV?$basic_string@DU?$char_traits@D@std@@V?$allocator@D@2@@std@@E@std@@@?$allocator@U?$_List_node@U?$pair@$$CBV?$basic_string@DU?$char_traits@D@std@@V?$allocator@D@2@@std@@E@std@@PEAX@std@@@std@@QEAA@AEBV?$allocator@U?$pair@$$CBV?$basic_string@DU?$char_traits@D@std@@V?$allocator@D@2@@std@@E@std@@@1@@Z
	??$?0U?$pair@$$CBV?$basic_string@DU?$char_traits@D@std@@V?$allocator@D@2@@std@@E@std@@@?$allocator@V?$_List_unchecked_iterator@V?$_List_val@U?$_List_simple_types@U?$pair@$$CBV?$basic_string@DU?$char_traits@D@std@@V?$allocator@D@2@@std@@E@std@@@std@@@std@@@std@@@std@@QEAA@AEBV?$allocator@U?$pair@$$CBV?$basic_string@DU?$char_traits@D@std@@V?$allocator@D@2@@std@@E@std@@@1@@Z
	??$?0U?$pair@$$CBV?$basic_string@DU?$char_traits@D@std@@V?$allocator@D@2@@std@@H@std@@@?$allocator@U?$_List_node@U?$pair@$$CBV?$basic_string@DU?$char_traits@D@std@@V?$allocator@D@2@@std@@H@std@@PEAX@std@@@std@@QEAA@AEBV?$allocator@U?$pair@$$CBV?$basic_string@DU?$char_traits@D@std@@V?$allocator@D@2@@std@@H@std@@@1@@Z
	??$?0U?$pair@$$CBV?$basic_string@DU?$char_traits@D@std@@V?$allocator@D@2@@std@@H@std@@@?$allocator@V?$_List_unchecked_iterator@V?$_List_val@U?$_List_simple_types@U?$pair@$$CBV?$basic_string@DU?$char_traits@D@std@@V?$allocator@D@2@@std@@H@std@@@std@@@std@@@std@@@std@@QEAA@AEBV?$allocator@U?$pair@$$CBV?$basic_string@DU?$char_traits@D@std@@V?$allocator@D@2@@std@@H@std@@@1@@Z
	??$?0U?$pair@$$CBV?$basic_string@DU?$char_traits@D@std@@V?$allocator@D@2@@std@@Ullama_lora_weight@@@std@@@?$allocator@U?$_List_node@U?$pair@$$CBV?$basic_string@DU?$char_traits@D@std@@V?$allocator@D@2@@std@@Ullama_lora_weight@@@std@@PEAX@std@@@std@@QEAA@AEBV?$allocator@U?$pair@$$CBV?$basic_string@DU?$char_traits@D@std@@V?$allocator@D@2@@std@@Ullama_lora_weight@@@std@@@1@@Z
	??$?0U?$pair@$$CBV?$basic_string@DU?$char_traits@D@std@@V?$allocator@D@2@@std@@Ullama_lora_weight@@@std@@@?$allocator@V?$_List_unchecked_iterator@V?$_List_val@U?$_List_simple_types@U?$pair@$$CBV?$basic_string@DU?$char_traits@D@std@@V?$allocator@D@2@@std@@Ullama_lora_weight@@@std@@@std@@@std@@@std@@@std@@QEAA@AEBV?$allocator@U?$pair@$$CBV?$basic_string@DU?$char_traits@D@std@@V?$allocator@D@2@@std@@Ullama_lora_weight@@@std@@@1@@Z
	??$?0U?$pair@$$CBV?$basic_string@DU?$char_traits@D@std@@V?$allocator@D@2@@std@@Ullama_model_kv_override@@@std@@@?$_List_node_emplace_op2@V?$allocator@U?$_List_node@U?$pair@$$CBV?$basic_string@DU?$char_traits@D@std@@V?$allocator@D@2@@std@@Ullama_model_kv_override@@@std@@PEAX@std@@@std@@@std@@QEAA@AEAV?$allocator@U?$_List_node@U?$pair@$$CBV?$basic_string@DU?$char_traits@D@std@@V?$allocator@D@2@@std@@Ullama_model_kv_override@@@std@@PEAX@std@@@1@$$QEAU?$pair@$$CBV?$basic_string@DU?$char_traits@D@std@@V?$allocator@D@2@@std@@Ullama_model_kv_override@@@1@@Z
	??$?0U?$pair@$$CBV?$basic_string@DU?$char_traits@D@std@@V?$allocator@D@2@@std@@Ullama_model_kv_override@@@std@@@?$allocator@U?$_List_node@U?$pair@$$CBV?$basic_string@DU?$char_traits@D@std@@V?$allocator@D@2@@std@@Ullama_model_kv_override@@@std@@PEAX@std@@@std@@QEAA@AEBV?$allocator@U?$pair@$$CBV?$basic_string@DU?$char_traits@D@std@@V?$allocator@D@2@@std@@Ullama_model_kv_override@@@std@@@1@@Z
	??$?0U?$pair@$$CBV?$basic_string@DU?$char_traits@D@std@@V?$allocator@D@2@@std@@Ullama_model_kv_override@@@std@@@?$allocator@V?$_List_unchecked_iterator@V?$_List_val@U?$_List_simple_types@U?$pair@$$CBV?$basic_string@DU?$char_traits@D@std@@V?$allocator@D@2@@std@@Ullama_model_kv_override@@@std@@@std@@@std@@@std@@@std@@QEAA@AEBV?$allocator@U?$pair@$$CBV?$basic_string@DU?$char_traits@D@std@@V?$allocator@D@2@@std@@Ullama_model_kv_override@@@std@@@1@@Z
	??$?0U?$pair@$$CBV?$basic_string@DU?$char_traits@D@std@@V?$allocator@D@2@@std@@V12@@std@@@?$allocator@U?$_List_node@U?$pair@$$CBV?$basic_string@DU?$char_traits@D@std@@V?$allocator@D@2@@std@@V12@@std@@PEAX@std@@@std@@QEAA@AEBV?$allocator@U?$pair@$$CBV?$basic_string@DU?$char_traits@D@std@@V?$allocator@D@2@@std@@V12@@std@@@1@@Z
	??$?0U?$pair@$$CBV?$basic_string@DU?$char_traits@D@std@@V?$allocator@D@2@@std@@V12@@std@@@?$allocator@V?$_List_unchecked_iterator@V?$_List_val@U?$_List_simple_types@U?$pair@$$CBV?$basic_string@DU?$char_traits@D@std@@V?$allocator@D@2@@std@@V12@@std@@@std@@@std@@@std@@@std@@QEAA@AEBV?$allocator@U?$pair@$$CBV?$basic_string@DU?$char_traits@D@std@@V?$allocator@D@2@@std@@V12@@std@@@1@@Z
	??$?0U?$pair@DUnaive_trie@@@std@@@?$_Tree_temp_node@V?$allocator@U?$_Tree_node@U?$pair@$$CBDUnaive_trie@@@std@@PEAX@std@@@std@@@std@@QEAA@AEAV?$allocator@U?$_Tree_node@U?$pair@$$CBDUnaive_trie@@@std@@PEAX@std@@@1@PEAU?$_Tree_node@U?$pair@$$CBDUnaive_trie@@@std@@PEAX@1@$$QEAU?$pair@DUnaive_trie@@@1@@Z
	??$?0U?$pair@IG@std@@@?$allocator@U_Container_proxy@std@@@std@@QEAA@AEBV?$allocator@U?$pair@IG@std@@@1@@Z
	??$?0U?$pair@II@std@@@?$allocator@U_Container_proxy@std@@@std@@QEAA@AEBV?$allocator@U?$pair@II@std@@@1@@Z
	??$?0U?$pair@PEAUggml_context@@V?$unordered_map@IPEAUggml_backend_buffer@@U?$hash@I@std@@U?$equal_to@I@3@V?$allocator@U?$pair@$$CBIPEAUggml_backend_buffer@@@std@@@3@@std@@@std@@@?$allocator@U_Container_proxy@std@@@std@@QEAA@AEBV?$allocator@U?$pair@PEAUggml_context@@V?$unordered_map@IPEAUggml_backend_buffer@@U?$hash@I@std@@U?$equal_to@I@3@V?$allocator@U?$pair@$$CBIPEAUggml_backend_buffer@@@std@@@3@@std@@@std@@@1@@Z
	??$?0U?$pair@QEAUllama_lora_adapter@@M@std@@@?$allocator@U?$_List_node@U?$pair@QEAUllama_lora_adapter@@M@std@@PEAX@std@@@std@@QEAA@AEBV?$allocator@U?$pair@QEAUllama_lora_adapter@@M@std@@@1@@Z
	??$?0U?$pair@QEAUllama_lora_adapter@@M@std@@@?$allocator@V?$_List_unchecked_iterator@V?$_List_val@U?$_List_simple_types@U?$pair@QEAUllama_lora_adapter@@M@std@@@std@@@std@@@std@@@std@@QEAA@AEBV?$allocator@U?$pair@QEAUllama_lora_adapter@@M@std@@@1@@Z
	??$?0U?$pair@V?$basic_string@DU?$char_traits@D@std@@V?$allocator@D@2@@std@@PEAUggml_tensor@@@std@@@?$allocator@U_Container_proxy@std@@@std@@QEAA@AEBV?$allocator@U?$pair@V?$basic_string@DU?$char_traits@D@std@@V?$allocator@D@2@@std@@PEAUggml_tensor@@@std@@@1@@Z
	??$?0U?$pair@V?$basic_string@DU?$char_traits@D@std@@V?$allocator@D@2@@std@@V12@@std@@AEAH$0A@@?$pair@$$CBU?$pair@V?$basic_string@DU?$char_traits@D@std@@V?$allocator@D@2@@std@@V12@@std@@H@std@@QEAA@$$QEAU?$pair@V?$basic_string@DU?$char_traits@D@std@@V?$allocator@D@2@@std@@V12@@1@AEAH@Z
	??$?0U?$pair@V?$basic_string@DU?$char_traits@D@std@@V?$allocator@D@2@@std@@V12@@std@@AEAH@?$_Tree_temp_node@V?$allocator@U?$_Tree_node@U?$pair@$$CBU?$pair@V?$basic_string@DU?$char_traits@D@std@@V?$allocator@D@2@@std@@V12@@std@@H@std@@PEAX@std@@@std@@@std@@QEAA@AEAV?$allocator@U?$_Tree_node@U?$pair@$$CBU?$pair@V?$basic_string@DU?$char_traits@D@std@@V?$allocator@D@2@@std@@V12@@std@@H@std@@PEAX@std@@@1@PEAU?$_Tree_node@U?$pair@$$CBU?$pair@V?$basic_string@DU?$char_traits@D@std@@V?$allocator@D@2@@std@@V12@@std@@H@std@@PEAX@1@$$QEAU?$pair@V?$basic_string@DU?$char_traits@D@std@@V?$allocator@D@2@@std@@V12@@1@AEAH@Z
	??$?0U?$pair@V?$vector@IV?$allocator@I@std@@@std@@Ullama_partial_utf8@@@std@@@?$allocator@U_Container_proxy@std@@@std@@QEAA@AEBV?$allocator@U?$pair@V?$vector@IV?$allocator@I@std@@@std@@Ullama_partial_utf8@@@std@@@1@@Z
	??$?0U?$pair@W4llm_kv@@AEAH@std@@@?$allocator@U_Container_proxy@std@@@std@@QEAA@AEBV?$allocator@U?$pair@W4llm_kv@@AEAH@std@@@1@@Z
	??$?0U?$pair@_K_K@std@@@?$allocator@U_Container_proxy@std@@@std@@QEAA@AEBV?$allocator@U?$pair@_K_K@std@@@1@@Z
	??$?0U_Exact_args_t@std@@$0A@@?$tuple@$$V@std@@QEAA@U_Exact_args_t@1@@Z
	??$?0U_Exact_args_t@std@@AEAW4ggml_type@@PEAEPEAMAEA_K$0A@@?$tuple@W4ggml_type@@PEAEPEAM_K@std@@QEAA@U_Exact_args_t@1@AEAW4ggml_type@@$$QEAPEAE$$QEAPEAMAEA_K@Z
	??$?0U_Exact_args_t@std@@AEA_K$$V$0A@@?$tuple@_K@std@@QEAA@U_Exact_args_t@1@AEA_K@Z
	??$?0U_Exact_args_t@std@@AEBH$$V$0A@@?$tuple@AEBH@std@@QEAA@U_Exact_args_t@1@AEBH@Z
	??$?0U_Exact_args_t@std@@AEBQEAUggml_backend_buffer_type@@$$V$0A@@?$tuple@AEBQEAUggml_backend_buffer_type@@@std@@QEAA@U_Exact_args_t@1@AEBQEAUggml_backend_buffer_type@@@Z
	??$?0U_Exact_args_t@std@@AEBQEAUllama_lora_adapter@@$$V$0A@@?$tuple@AEBQEAUllama_lora_adapter@@@std@@QEAA@U_Exact_args_t@1@AEBQEAUllama_lora_adapter@@@Z
	??$?0U_Exact_args_t@std@@AEBV?$basic_string@DU?$char_traits@D@std@@V?$allocator@D@2@@1@$$V$0A@@?$tuple@AEBV?$basic_string@DU?$char_traits@D@std@@V?$allocator@D@2@@std@@@std@@QEAA@U_Exact_args_t@1@AEBV?$basic_string@DU?$char_traits@D@std@@V?$allocator@D@2@@1@@Z
	??$?0U_Exact_args_t@std@@AEBW4ggml_type@@$$V$0A@@?$tuple@AEBW4ggml_type@@@std@@QEAA@U_Exact_args_t@1@AEBW4ggml_type@@@Z
	??$?0U_Exact_args_t@std@@E$$V$0A@@?$tuple@$$QEAE@std@@QEAA@U_Exact_args_t@1@$$QEAE@Z
	??$?0U_Exact_args_t@std@@PEAEPEAMAEA_K$0A@@?$tuple@PEAEPEAM_K@std@@QEAA@U_Exact_args_t@1@$$QEAPEAE$$QEAPEAMAEA_K@Z
	??$?0U_Exact_args_t@std@@PEAMAEA_K$0A@@?$tuple@PEAM_K@std@@QEAA@U_Exact_args_t@1@$$QEAPEAMAEA_K@Z
	??$?0U_Exact_args_t@std@@PEAUggml_backend_buffer_type@@$$V$0A@@?$tuple@$$QEAPEAUggml_backend_buffer_type@@@std@@QEAA@U_Exact_args_t@1@$$QEAPEAUggml_backend_buffer_type@@@Z
	??$?0U_Exact_args_t@std@@V<lambda_3f39357f5ebcd3550b555fa53c33d10a>@@$$V$0A@@?$tuple@V<lambda_3f39357f5ebcd3550b555fa53c33d10a>@@@std@@QEAA@U_Exact_args_t@1@$$QEAV<lambda_3f39357f5ebcd3550b555fa53c33d10a>@@@Z
	??$?0U_Exact_args_t@std@@V<lambda_e3b97c3ad3d076d7964efd5d963695f6>@@$$V$0A@@?$tuple@V<lambda_e3b97c3ad3d076d7964efd5d963695f6>@@@std@@QEAA@U_Exact_args_t@1@$$QEAV<lambda_e3b97c3ad3d076d7964efd5d963695f6>@@@Z
	??$?0U_Exact_args_t@std@@V?$basic_string@DU?$char_traits@D@std@@V?$allocator@D@2@@1@$$V$0A@@?$tuple@$$QEAV?$basic_string@DU?$char_traits@D@std@@V?$allocator@D@2@@std@@@std@@QEAA@U_Exact_args_t@1@$$QEAV?$basic_string@DU?$char_traits@D@std@@V?$allocator@D@2@@1@@Z
	??$?0U_Grp_t@?$_Tgt_state_t@PEBD@std@@@?$allocator@U_Container_proxy@std@@@std@@QEAA@AEBV?$allocator@U_Grp_t@?$_Tgt_state_t@PEBD@std@@@1@@Z
	??$?0U_Grp_t@?$_Tgt_state_t@PEB_W@std@@@?$allocator@U_Container_proxy@std@@@std@@QEAA@AEBV?$allocator@U_Grp_t@?$_Tgt_state_t@PEB_W@std@@@1@@Z
	??$?0U_Loop_vals_t@std@@@?$allocator@U_Container_proxy@std@@@std@@QEAA@AEBV?$allocator@U_Loop_vals_t@std@@@1@@Z
	??$?0U_Zero_then_variadic_args_t@std@@M@?$_Compressed_pair@U?$hash@E@std@@V?$_Compressed_pair@U?$equal_to@E@std@@M$00@2@$00@std@@QEAA@U_Zero_then_variadic_args_t@1@$$QEAU21@$$QEAM@Z
	??$?0U_Zero_then_variadic_args_t@std@@M@?$_Compressed_pair@U?$hash@H@std@@V?$_Compressed_pair@U?$equal_to@H@std@@M$00@2@$00@std@@QEAA@U_Zero_then_variadic_args_t@1@$$QEAU21@$$QEAM@Z
	??$?0U_Zero_then_variadic_args_t@std@@M@?$_Compressed_pair@U?$hash@I@std@@V?$_Compressed_pair@U?$equal_to@I@std@@M$00@2@$00@std@@QEAA@U_Zero_then_variadic_args_t@1@$$QEAU21@$$QEAM@Z
	??$?0U_Zero_then_variadic_args_t@std@@M@?$_Compressed_pair@U?$hash@PEAUllama_lora_adapter@@@std@@V?$_Compressed_pair@U?$equal_to@PEAUllama_lora_adapter@@@std@@M$00@2@$00@std@@QEAA@U_Zero_then_variadic_args_t@1@$$QEAU21@$$QEAM@Z
	??$?0U_Zero_then_variadic_args_t@std@@M@?$_Compressed_pair@U?$hash@V?$basic_string@DU?$char_traits@D@std@@V?$allocator@D@2@@std@@@std@@V?$_Compressed_pair@U?$equal_to@V?$basic_string@DU?$char_traits@D@std@@V?$allocator@D@2@@std@@@std@@M$00@2@$00@std@@QEAA@U_Zero_then_variadic_args_t@1@$$QEAU21@$$QEAM@Z
	??$?0Ubest_tokenization@llm_tokenizer_ugm@@@?$allocator@U_Container_proxy@std@@@std@@QEAA@AEBV?$allocator@Ubest_tokenization@llm_tokenizer_ugm@@@1@@Z
	??$?0Ucodepoint_flags@@@?$allocator@U_Container_proxy@std@@@std@@QEAA@AEBV?$allocator@Ucodepoint_flags@@@1@@Z
	??$?0Ulayer_buft@llama_model@@@?$allocator@U_Container_proxy@std@@@std@@QEAA@AEBV?$allocator@Ulayer_buft@llama_model@@@1@@Z
	??$?0Ullama_grammar_candidate@@@?$allocator@U_Container_proxy@std@@@std@@QEAA@AEBV?$allocator@Ullama_grammar_candidate@@@1@@Z
	??$?0Ullama_grammar_element@@@?$allocator@U_Container_proxy@std@@@std@@QEAA@AEBV?$allocator@Ullama_grammar_element@@@1@@Z
	??$?0Ullama_kv_cell@@@?$allocator@U_Container_proxy@std@@@std@@QEAA@AEBV?$allocator@Ullama_kv_cell@@@1@@Z
	??$?0Ullama_layer@@@?$allocator@U_Container_proxy@std@@@std@@QEAA@AEBV?$allocator@Ullama_layer@@@1@@Z
	??$?0Ullama_sbatch_seq@@@?$allocator@U_Container_proxy@std@@@std@@QEAA@AEBV?$allocator@Ullama_sbatch_seq@@@1@@Z
	??$?0Ullama_tensor_weight@llama_model_loader@@@?$allocator@U_Container_proxy@std@@@std@@QEAA@AEBV?$allocator@Ullama_tensor_weight@llama_model_loader@@@1@@Z
	??$?0Ullama_token_data@@@?$allocator@U_Container_proxy@std@@@std@@QEAA@AEBV?$allocator@Ullama_token_data@@@1@@Z
	??$?0Ullm_bigram_bpe@@@?$allocator@U_Container_proxy@std@@@std@@QEAA@AEBV?$allocator@Ullm_bigram_bpe@@@1@@Z
	??$?0Ullm_bigram_spm@@@?$allocator@U_Container_proxy@std@@@std@@QEAA@AEBV?$allocator@Ullm_bigram_spm@@@1@@Z
	??$?0Ullm_symbol@@@?$allocator@U_Container_proxy@std@@@std@@QEAA@AEBV?$allocator@Ullm_symbol@@@1@@Z
	??$?0Urange_nfd@@@?$allocator@U_Container_proxy@std@@@std@@QEAA@AEBV?$allocator@Urange_nfd@@@1@@Z
	??$?0Utoken_data@llama_vocab@@@?$allocator@U_Container_proxy@std@@@std@@QEAA@AEBV?$allocator@Utoken_data@llama_vocab@@@1@@Z
	??$?0V<lambda_052e919cc0e5399df76dff3972c0cac1>@@$0A@@?$_Func_impl_no_alloc@V<lambda_052e919cc0e5399df76dff3972c0cac1>@@E$$V@std@@QEAA@$$QEAV<lambda_052e919cc0e5399df76dff3972c0cac1>@@@Z
	??$?0V<lambda_052e919cc0e5399df76dff3972c0cac1>@@$0A@@?$function@$$A6AEXZ@std@@QEAA@$$QEAV<lambda_052e919cc0e5399df76dff3972c0cac1>@@@Z
	??$?0V<lambda_2fa3e3d11fb97352afa77a4a13bfb543>@@$0A@@?$_Func_impl_no_alloc@V<lambda_2fa3e3d11fb97352afa77a4a13bfb543>@@X$$V@std@@QEAA@$$QEAV<lambda_2fa3e3d11fb97352afa77a4a13bfb543>@@@Z
	??$?0V<lambda_2fa3e3d11fb97352afa77a4a13bfb543>@@$0A@@?$function@$$A6AXXZ@std@@QEAA@$$QEAV<lambda_2fa3e3d11fb97352afa77a4a13bfb543>@@@Z
	??$?0V<lambda_3f39357f5ebcd3550b555fa53c33d10a>@@$$V$0A@@?$tuple@V<lambda_3f39357f5ebcd3550b555fa53c33d10a>@@@std@@QEAA@$$QEAV<lambda_3f39357f5ebcd3550b555fa53c33d10a>@@@Z
	??$?0V<lambda_3f39357f5ebcd3550b555fa53c33d10a>@@@?$_Tuple_val@V<lambda_3f39357f5ebcd3550b555fa53c33d10a>@@@std@@QEAA@$$QEAV<lambda_3f39357f5ebcd3550b555fa53c33d10a>@@@Z
	??$?0V<lambda_61d324d6c6ae299623b0a01e4b2f6764>@@$0A@@?$_Func_impl_no_alloc@V<lambda_61d324d6c6ae299623b0a01e4b2f6764>@@X$$V@std@@QEAA@$$QEAV<lambda_61d324d6c6ae299623b0a01e4b2f6764>@@@Z
	??$?0V<lambda_61d324d6c6ae299623b0a01e4b2f6764>@@@?$task@X@Concurrency@@QEAA@V<lambda_61d324d6c6ae299623b0a01e4b2f6764>@@AEBVtask_options@1@@Z
	??$?0V<lambda_763529b0c7473cbc215a52d189ac9b18>@@$0A@@?$_Func_impl_no_alloc@V<lambda_763529b0c7473cbc215a52d189ac9b18>@@X$$V@std@@QEAA@$$QEAV<lambda_763529b0c7473cbc215a52d189ac9b18>@@@Z
	??$?0V<lambda_763529b0c7473cbc215a52d189ac9b18>@@$0A@@?$function@$$A6AXXZ@std@@QEAA@$$QEAV<lambda_763529b0c7473cbc215a52d189ac9b18>@@@Z
	??$?0V<lambda_e3b97c3ad3d076d7964efd5d963695f6>@@$$V$0A@@?$tuple@V<lambda_e3b97c3ad3d076d7964efd5d963695f6>@@@std@@QEAA@$$QEAV<lambda_e3b97c3ad3d076d7964efd5d963695f6>@@@Z
	??$?0V<lambda_e3b97c3ad3d076d7964efd5d963695f6>@@@?$_Tuple_val@V<lambda_e3b97c3ad3d076d7964efd5d963695f6>@@@std@@QEAA@$$QEAV<lambda_e3b97c3ad3d076d7964efd5d963695f6>@@@Z
	??$?0V<lambda_f25c37099038263181b5186a3fa41b37>@@$0A@@?$_Func_impl_no_alloc@V<lambda_f25c37099038263181b5186a3fa41b37>@@X$$V@std@@QEAA@$$QEAV<lambda_f25c37099038263181b5186a3fa41b37>@@@Z
	??$?0V<lambda_f25c37099038263181b5186a3fa41b37>@@$0A@@?$function@$$A6AXXZ@std@@QEAA@$$QEAV<lambda_f25c37099038263181b5186a3fa41b37>@@@Z
	??$?0V<lambda_f7036c9a115536b365ca4544394c825b>@@$0A@@?$_Func_impl_no_alloc@V<lambda_f7036c9a115536b365ca4544394c825b>@@X$$V@std@@QEAA@$$QEAV<lambda_f7036c9a115536b365ca4544394c825b>@@@Z
	??$?0V<lambda_f7036c9a115536b365ca4544394c825b>@@@?$task@X@Concurrency@@QEAA@V<lambda_f7036c9a115536b365ca4544394c825b>@@AEBVtask_options@1@@Z
	??$?0V?$_Fake_no_copy_callable_adapter@V<lambda_3f39357f5ebcd3550b555fa53c33d10a>@@@std@@$0A@@?$_Func_impl_no_alloc@V?$_Fake_no_copy_callable_adapter@V<lambda_3f39357f5ebcd3550b555fa53c33d10a>@@@std@@U?$pair@PEAUggml_tensor@@_N@2@$$V@std@@QEAA@$$QEAV?$_Fake_no_copy_callable_adapter@V<lambda_3f39357f5ebcd3550b555fa53c33d10a>@@@1@@Z
	??$?0V?$_Fake_no_copy_callable_adapter@V<lambda_3f39357f5ebcd3550b555fa53c33d10a>@@@std@@$0A@@?$function@$$A6A?AU?$pair@PEAUggml_tensor@@_N@std@@XZ@std@@QEAA@$$QEAV?$_Fake_no_copy_callable_adapter@V<lambda_3f39357f5ebcd3550b555fa53c33d10a>@@@1@@Z
	??$?0V?$_Fake_no_copy_callable_adapter@V<lambda_3f39357f5ebcd3550b555fa53c33d10a>@@@std@@@?$_Deferred_async_state@U?$pair@PEAUggml_tensor@@_N@std@@@std@@QEAA@$$QEAV?$_Fake_no_copy_callable_adapter@V<lambda_3f39357f5ebcd3550b555fa53c33d10a>@@@1@@Z
	??$?0V?$_Fake_no_copy_callable_adapter@V<lambda_3f39357f5ebcd3550b555fa53c33d10a>@@@std@@@?$_Packaged_state@$$A6A?AU?$pair@PEAUggml_tensor@@_N@std@@XZ@std@@QEAA@$$QEAV?$_Fake_no_copy_callable_adapter@V<lambda_3f39357f5ebcd3550b555fa53c33d10a>@@@1@@Z
	??$?0V?$_Fake_no_copy_callable_adapter@V<lambda_3f39357f5ebcd3550b555fa53c33d10a>@@@std@@@?$_Task_async_state@U?$pair@PEAUggml_tensor@@_N@std@@@std@@QEAA@$$QEAV?$_Fake_no_copy_callable_adapter@V<lambda_3f39357f5ebcd3550b555fa53c33d10a>@@@1@@Z
	??$?0V?$_Fake_no_copy_callable_adapter@V<lambda_e3b97c3ad3d076d7964efd5d963695f6>@@@std@@$0A@@?$_Func_impl_no_alloc@V?$_Fake_no_copy_callable_adapter@V<lambda_e3b97c3ad3d076d7964efd5d963695f6>@@@std@@U?$pair@PEAUggml_tensor@@_N@2@$$V@std@@QEAA@$$QEAV?$_Fake_no_copy_callable_adapter@V<lambda_e3b97c3ad3d076d7964efd5d963695f6>@@@1@@Z
	??$?0V?$_Fake_no_copy_callable_adapter@V<lambda_e3b97c3ad3d076d7964efd5d963695f6>@@@std@@$0A@@?$function@$$A6A?AU?$pair@PEAUggml_tensor@@_N@std@@XZ@std@@QEAA@$$QEAV?$_Fake_no_copy_callable_adapter@V<lambda_e3b97c3ad3d076d7964efd5d963695f6>@@@1@@Z
	??$?0V?$_Fake_no_copy_callable_adapter@V<lambda_e3b97c3ad3d076d7964efd5d963695f6>@@@std@@@?$_Deferred_async_state@U?$pair@PEAUggml_tensor@@_N@std@@@std@@QEAA@$$QEAV?$_Fake_no_copy_callable_adapter@V<lambda_e3b97c3ad3d076d7964efd5d963695f6>@@@1@@Z
	??$?0V?$_Fake_no_copy_callable_adapter@V<lambda_e3b97c3ad3d076d7964efd5d963695f6>@@@std@@@?$_Packaged_state@$$A6A?AU?$pair@PEAUggml_tensor@@_N@std@@XZ@std@@QEAA@$$QEAV?$_Fake_no_copy_callable_adapter@V<lambda_e3b97c3ad3d076d7964efd5d963695f6>@@@1@@Z
	??$?0V?$_Fake_no_copy_callable_adapter@V<lambda_e3b97c3ad3d076d7964efd5d963695f6>@@@std@@@?$_Task_async_state@U?$pair@PEAUggml_tensor@@_N@std@@@std@@QEAA@$$QEAV?$_Fake_no_copy_callable_adapter@V<lambda_e3b97c3ad3d076d7964efd5d963695f6>@@@1@@Z
	??$?0V?$_List_iterator@V?$_List_val@U?$_List_simple_types@I@std@@@std@@@std@@_N$0A@@?$pair@V?$_List_const_iterator@V?$_List_val@U?$_List_simple_types@I@std@@@std@@@std@@_N@std@@QEAA@$$QEAV?$_List_iterator@V?$_List_val@U?$_List_simple_types@I@std@@@std@@@1@$$QEA_N@Z
	??$?0V?$_List_iterator@V?$_List_val@U?$_List_simple_types@U?$pair@$$CBII@std@@@std@@@std@@@std@@_N$0A@@?$pair@V?$_List_iterator@V?$_List_val@U?$_List_simple_types@U?$pair@$$CBII@std@@@std@@@std@@@std@@_N@std@@QEAA@$$QEAV?$_List_iterator@V?$_List_val@U?$_List_simple_types@U?$pair@$$CBII@std@@@std@@@std@@@1@$$QEA_N@Z
	??$?0V?$_List_iterator@V?$_List_val@U?$_List_simple_types@U?$pair@$$CBIPEAUggml_backend_buffer@@@std@@@std@@@std@@@std@@_N$0A@@?$pair@V?$_List_iterator@V?$_List_val@U?$_List_simple_types@U?$pair@$$CBIPEAUggml_backend_buffer@@@std@@@std@@@std@@@std@@_N@std@@QEAA@$$QEAV?$_List_iterator@V?$_List_val@U?$_List_simple_types@U?$pair@$$CBIPEAUggml_backend_buffer@@@std@@@std@@@std@@@1@$$QEA_N@Z
	??$?0V?$_List_iterator@V?$_List_val@U?$_List_simple_types@U?$pair@$$CBV?$basic_string@DU?$char_traits@D@std@@V?$allocator@D@2@@std@@Ullama_model_kv_override@@@std@@@std@@@std@@@std@@_N$0A@@?$pair@V?$_List_iterator@V?$_List_val@U?$_List_simple_types@U?$pair@$$CBV?$basic_string@DU?$char_traits@D@std@@V?$allocator@D@2@@std@@Ullama_model_kv_override@@@std@@@std@@@std@@@std@@_N@std@@QEAA@$$QEAV?$_List_iterator@V?$_List_val@U?$_List_simple_types@U?$pair@$$CBV?$basic_string@DU?$char_traits@D@std@@V?$allocator@D@2@@std@@Ullama_model_kv_override@@@std@@@std@@@std@@@1@$$QEA_N@Z
	??$?0V?$_List_iterator@V?$_List_val@U?$_List_simple_types@U?$pair@$$CBV?$basic_string@DU?$char_traits@D@std@@V?$allocator@D@2@@std@@V12@@std@@@std@@@std@@@std@@_N$0A@@?$pair@V?$_List_iterator@V?$_List_val@U?$_List_simple_types@U?$pair@$$CBV?$basic_string@DU?$char_traits@D@std@@V?$allocator@D@2@@std@@V12@@std@@@std@@@std@@@std@@_N@std@@QEAA@$$QEAV?$_List_iterator@V?$_List_val@U?$_List_simple_types@U?$pair@$$CBV?$basic_string@DU?$char_traits@D@std@@V?$allocator@D@2@@std@@V12@@std@@@std@@@std@@@1@$$QEA_N@Z
	??$?0V?$_List_unchecked_const_iterator@V?$_List_val@U?$_List_simple_types@I@std@@@std@@U_Iterator_base0@2@@std@@@?$allocator@U_Container_proxy@std@@@std@@QEAA@AEBV?$allocator@V?$_List_unchecked_const_iterator@V?$_List_val@U?$_List_simple_types@I@std@@@std@@U_Iterator_base0@2@@std@@@1@@Z
	??$?0V?$_List_unchecked_iterator@V?$_List_val@U?$_List_simple_types@U?$pair@$$CBEV?$basic_string@DU?$char_traits@D@std@@V?$allocator@D@2@@std@@@std@@@std@@@std@@@std@@@?$allocator@U_Container_proxy@std@@@std@@QEAA@AEBV?$allocator@V?$_List_unchecked_iterator@V?$_List_val@U?$_List_simple_types@U?$pair@$$CBEV?$basic_string@DU?$char_traits@D@std@@V?$allocator@D@2@@std@@@std@@@std@@@std@@@std@@@1@@Z
	??$?0V?$_List_unchecked_iterator@V?$_List_val@U?$_List_simple_types@U?$pair@$$CBHH@std@@@std@@@std@@@std@@@?$allocator@U_Container_proxy@std@@@std@@QEAA@AEBV?$allocator@V?$_List_unchecked_iterator@V?$_List_val@U?$_List_simple_types@U?$pair@$$CBHH@std@@@std@@@std@@@std@@@1@@Z
	??$?0V?$_List_unchecked_iterator@V?$_List_val@U?$_List_simple_types@U?$pair@$$CBII@std@@@std@@@std@@@std@@@?$allocator@U_Container_proxy@std@@@std@@QEAA@AEBV?$allocator@V?$_List_unchecked_iterator@V?$_List_val@U?$_List_simple_types@U?$pair@$$CBII@std@@@std@@@std@@@std@@@1@@Z
	??$?0V?$_List_unchecked_iterator@V?$_List_val@U?$_List_simple_types@U?$pair@$$CBIPEAUggml_backend_buffer@@@std@@@std@@@std@@@std@@@?$allocator@U_Container_proxy@std@@@std@@QEAA@AEBV?$allocator@V?$_List_unchecked_iterator@V?$_List_val@U?$_List_simple_types@U?$pair@$$CBIPEAUggml_backend_buffer@@@std@@@std@@@std@@@std@@@1@@Z
	??$?0V?$_List_unchecked_iterator@V?$_List_val@U?$_List_simple_types@U?$pair@$$CBV?$basic_string@DU?$char_traits@D@std@@V?$allocator@D@2@@std@@E@std@@@std@@@std@@@std@@@?$allocator@U_Container_proxy@std@@@std@@QEAA@AEBV?$allocator@V?$_List_unchecked_iterator@V?$_List_val@U?$_List_simple_types@U?$pair@$$CBV?$basic_string@DU?$char_traits@D@std@@V?$allocator@D@2@@std@@E@std@@@std@@@std@@@std@@@1@@Z
	??$?0V?$_List_unchecked_iterator@V?$_List_val@U?$_List_simple_types@U?$pair@$$CBV?$basic_string@DU?$char_traits@D@std@@V?$allocator@D@2@@std@@H@std@@@std@@@std@@@std@@@?$allocator@U_Container_proxy@std@@@std@@QEAA@AEBV?$allocator@V?$_List_unchecked_iterator@V?$_List_val@U?$_List_simple_types@U?$pair@$$CBV?$basic_string@DU?$char_traits@D@std@@V?$allocator@D@2@@std@@H@std@@@std@@@std@@@std@@@1@@Z
	??$?0V?$_List_unchecked_iterator@V?$_List_val@U?$_List_simple_types@U?$pair@$$CBV?$basic_string@DU?$char_traits@D@std@@V?$allocator@D@2@@std@@Ullama_lora_weight@@@std@@@std@@@std@@@std@@@?$allocator@U_Container_proxy@std@@@std@@QEAA@AEBV?$allocator@V?$_List_unchecked_iterator@V?$_List_val@U?$_List_simple_types@U?$pair@$$CBV?$basic_string@DU?$char_traits@D@std@@V?$allocator@D@2@@std@@Ullama_lora_weight@@@std@@@std@@@std@@@std@@@1@@Z
	??$?0V?$_List_unchecked_iterator@V?$_List_val@U?$_List_simple_types@U?$pair@$$CBV?$basic_string@DU?$char_traits@D@std@@V?$allocator@D@2@@std@@Ullama_model_kv_override@@@std@@@std@@@std@@@std@@@?$allocator@U_Container_proxy@std@@@std@@QEAA@AEBV?$allocator@V?$_List_unchecked_iterator@V?$_List_val@U?$_List_simple_types@U?$pair@$$CBV?$basic_string@DU?$char_traits@D@std@@V?$allocator@D@2@@std@@Ullama_model_kv_override@@@std@@@std@@@std@@@std@@@1@@Z
	??$?0V?$_List_unchecked_iterator@V?$_List_val@U?$_List_simple_types@U?$pair@$$CBV?$basic_string@DU?$char_traits@D@std@@V?$allocator@D@2@@std@@V12@@std@@@std@@@std@@@std@@@?$allocator@U_Container_proxy@std@@@std@@QEAA@AEBV?$allocator@V?$_List_unchecked_iterator@V?$_List_val@U?$_List_simple_types@U?$pair@$$CBV?$basic_string@DU?$char_traits@D@std@@V?$allocator@D@2@@std@@V12@@std@@@std@@@std@@@std@@@1@@Z
	??$?0V?$_List_unchecked_iterator@V?$_List_val@U?$_List_simple_types@U?$pair@QEAUllama_lora_adapter@@M@std@@@std@@@std@@@std@@@?$allocator@U_Container_proxy@std@@@std@@QEAA@AEBV?$allocator@V?$_List_unchecked_iterator@V?$_List_val@U?$_List_simple_types@U?$pair@QEAUllama_lora_adapter@@M@std@@@std@@@std@@@std@@@1@@Z
	??$?0V?$_String_iterator@V?$_String_val@U?$_Simple_types@D@std@@@std@@@std@@$0A@@?$vector@DV?$allocator@D@std@@@std@@QEAA@V?$_String_iterator@V?$_String_val@U?$_Simple_types@D@std@@@std@@@1@0AEBV?$allocator@D@1@@Z
	??$?0V?$_String_iterator@V?$_String_val@U?$_Simple_types@_W@std@@@std@@@std@@$0A@@?$vector@_WV?$allocator@_W@std@@@std@@QEAA@V?$_String_iterator@V?$_String_val@U?$_Simple_types@_W@std@@@std@@@1@0AEBV?$allocator@_W@1@@Z
	??$?0V?$_Tree_const_iterator@V?$_Tree_val@U?$_Tree_simple_types@H@std@@@std@@@std@@AEB_N$0A@@?$pair@V?$_Tree_const_iterator@V?$_Tree_val@U?$_Tree_simple_types@H@std@@@std@@@std@@_N@std@@QEAA@$$QEAV?$_Tree_const_iterator@V?$_Tree_val@U?$_Tree_simple_types@H@std@@@std@@@1@AEB_N@Z
	??$?0V?$_Tree_const_iterator@V?$_Tree_val@U?$_Tree_simple_types@PEAUllama_lora_adapter@@@std@@@std@@@std@@AEB_N$0A@@?$pair@V?$_Tree_const_iterator@V?$_Tree_val@U?$_Tree_simple_types@PEAUllama_lora_adapter@@@std@@@std@@@std@@_N@std@@QEAA@$$QEAV?$_Tree_const_iterator@V?$_Tree_val@U?$_Tree_simple_types@PEAUllama_lora_adapter@@@std@@@std@@@1@AEB_N@Z
	??$?0V?$_Tree_const_iterator@V?$_Tree_val@U?$_Tree_simple_types@V?$basic_string@DU?$char_traits@D@std@@V?$allocator@D@2@@std@@@std@@@std@@@std@@AEB_N$0A@@?$pair@V?$_Tree_const_iterator@V?$_Tree_val@U?$_Tree_simple_types@V?$basic_string@DU?$char_traits@D@std@@V?$allocator@D@2@@std@@@std@@@std@@@std@@_N@std@@QEAA@$$QEAV?$_Tree_const_iterator@V?$_Tree_val@U?$_Tree_simple_types@V?$basic_string@DU?$char_traits@D@std@@V?$allocator@D@2@@std@@@std@@@std@@@1@AEB_N@Z
	??$?0V?$_Tree_iterator@V?$_Tree_val@U?$_Tree_simple_types@U?$pair@$$CBDUnaive_trie@@@std@@@std@@@std@@@std@@AEB_N$0A@@?$pair@V?$_Tree_iterator@V?$_Tree_val@U?$_Tree_simple_types@U?$pair@$$CBDUnaive_trie@@@std@@@std@@@std@@@std@@_N@std@@QEAA@$$QEAV?$_Tree_iterator@V?$_Tree_val@U?$_Tree_simple_types@U?$pair@$$CBDUnaive_trie@@@std@@@std@@@std@@@1@AEB_N@Z
	??$?0V?$_Tree_iterator@V?$_Tree_val@U?$_Tree_simple_types@U?$pair@$$CBU?$pair@V?$basic_string@DU?$char_traits@D@std@@V?$allocator@D@2@@std@@V12@@std@@H@std@@@std@@@std@@@std@@AEB_N$0A@@?$pair@V?$_Tree_iterator@V?$_Tree_val@U?$_Tree_simple_types@U?$pair@$$CBU?$pair@V?$basic_string@DU?$char_traits@D@std@@V?$allocator@D@2@@std@@V12@@std@@H@std@@@std@@@std@@@std@@_N@std@@QEAA@$$QEAV?$_Tree_iterator@V?$_Tree_val@U?$_Tree_simple_types@U?$pair@$$CBU?$pair@V?$basic_string@DU?$char_traits@D@std@@V?$allocator@D@2@@std@@V12@@std@@H@std@@@std@@@std@@@1@AEB_N@Z
	??$?0V?$_Vector_const_iterator@V?$_Vector_val@U?$_Simple_types@I@std@@@std@@@std@@$0A@@?$basic_string@_WU?$char_traits@_W@std@@V?$allocator@_W@2@@std@@QEAA@V?$_Vector_const_iterator@V?$_Vector_val@U?$_Simple_types@I@std@@@std@@@1@0AEBV?$allocator@_W@1@@Z
	??$?0V?$_Vector_const_iterator@V?$_Vector_val@U?$_Simple_types@PEBUllama_grammar_element@@@std@@@std@@@std@@$0A@@?$vector@PEBUllama_grammar_element@@V?$allocator@PEBUllama_grammar_element@@@std@@@std@@QEAA@V?$_Vector_const_iterator@V?$_Vector_val@U?$_Simple_types@PEBUllama_grammar_element@@@std@@@std@@@1@0AEBV?$allocator@PEBUllama_grammar_element@@@1@@Z
	??$?0V?$_Vector_iterator@V?$_Vector_val@U?$_Simple_types@M@std@@@std@@@std@@$0A@@?$vector@NV?$allocator@N@std@@@std@@QEAA@V?$_Vector_iterator@V?$_Vector_val@U?$_Simple_types@M@std@@@std@@@1@0AEBV?$allocator@N@1@@Z
	??$?0V?$_Vector_iterator@V?$_Vector_val@U?$_Simple_types@M@std@@@std@@@std@@@?$discrete_distribution@H@std@@QEAA@V?$_Vector_iterator@V?$_Vector_val@U?$_Simple_types@M@std@@@std@@@1@0@Z
	??$?0V?$_Vector_iterator@V?$_Vector_val@U?$_Simple_types@M@std@@@std@@@std@@@param_type@?$discrete_distribution@H@std@@QEAA@V?$_Vector_iterator@V?$_Vector_val@U?$_Simple_types@M@std@@@std@@@2@0@Z
	??$?0V?$allocator@D@std@@$$V@?$_Compressed_pair@V?$allocator@D@std@@V?$_String_val@U?$_Simple_types@D@std@@@2@$00@std@@QEAA@U_One_then_variadic_args_t@1@$$QEAV?$allocator@D@1@@Z
	??$?0V?$allocator@H@std@@PEAHPEAHPEAH@?$_Compressed_pair@V?$allocator@H@std@@V?$_Vector_val@U?$_Simple_types@H@std@@@2@$00@std@@QEAA@U_One_then_variadic_args_t@1@$$QEAV?$allocator@H@1@$$QEAPEAH22@Z
	??$?0V?$allocator@I@std@@$$V@?$_Compressed_pair@V?$allocator@I@std@@V?$_Vector_val@U?$_Simple_types@I@std@@@2@$00@std@@QEAA@U_One_then_variadic_args_t@1@$$QEAV?$allocator@I@1@@Z
	??$?0V?$allocator@I@std@@PEAIPEAIPEAI@?$_Compressed_pair@V?$allocator@I@std@@V?$_Vector_val@U?$_Simple_types@I@std@@@2@$00@std@@QEAA@U_One_then_variadic_args_t@1@$$QEAV?$allocator@I@1@$$QEAPEAI22@Z
	??$?0V?$allocator@PEAX@std@@$$V@?$_Compressed_pair@V?$allocator@PEAX@std@@V?$_Vector_val@U?$_Simple_types@PEAX@std@@@2@$00@std@@QEAA@U_One_then_variadic_args_t@1@$$QEAV?$allocator@PEAX@1@@Z
	??$?0V?$allocator@PEAX@std@@PEAPEAXPEAPEAXPEAPEAX@?$_Compressed_pair@V?$allocator@PEAX@std@@V?$_Vector_val@U?$_Simple_types@PEAX@std@@@2@$00@std@@QEAA@U_One_then_variadic_args_t@1@$$QEAV?$allocator@PEAX@1@$$QEAPEAPEAX22@Z
	??$?0V?$allocator@PEBUllama_grammar_element@@@std@@$$V@?$_Compressed_pair@V?$allocator@PEBUllama_grammar_element@@@std@@V?$_Vector_val@U?$_Simple_types@PEBUllama_grammar_element@@@std@@@2@$00@std@@QEAA@U_One_then_variadic_args_t@1@$$QEAV?$allocator@PEBUllama_grammar_element@@@1@@Z
	??$?0V?$allocator@PEBUllama_grammar_element@@@std@@PEAPEBUllama_grammar_element@@PEAPEBU2@PEAPEBU2@@?$_Compressed_pair@V?$allocator@PEBUllama_grammar_element@@@std@@V?$_Vector_val@U?$_Simple_types@PEBUllama_grammar_element@@@std@@@2@$00@std@@QEAA@U_One_then_variadic_args_t@1@$$QEAV?$allocator@PEBUllama_grammar_element@@@1@$$QEAPEAPEBUllama_grammar_element@@22@Z
	??$?0V?$allocator@U?$_List_node@U?$pair@$$CBEV?$basic_string@DU?$char_traits@D@std@@V?$allocator@D@2@@std@@@std@@PEAX@std@@@std@@$$V@?$_Compressed_pair@V?$allocator@U?$_List_node@U?$pair@$$CBEV?$basic_string@DU?$char_traits@D@std@@V?$allocator@D@2@@std@@@std@@PEAX@std@@@std@@V?$_List_val@U?$_List_simple_types@U?$pair@$$CBEV?$basic_string@DU?$char_traits@D@std@@V?$allocator@D@2@@std@@@std@@@std@@@2@$00@std@@QEAA@U_One_then_variadic_args_t@1@$$QEAV?$allocator@U?$_List_node@U?$pair@$$CBEV?$basic_string@DU?$char_traits@D@std@@V?$allocator@D@2@@std@@@std@@PEAX@std@@@1@@Z
	??$?0V?$allocator@U?$_List_node@U?$pair@$$CBEV?$basic_string@DU?$char_traits@D@std@@V?$allocator@D@2@@std@@@std@@PEAX@std@@@std@@@?$list@U?$pair@$$CBEV?$basic_string@DU?$char_traits@D@std@@V?$allocator@D@2@@std@@@std@@V?$allocator@U?$pair@$$CBEV?$basic_string@DU?$char_traits@D@std@@V?$allocator@D@2@@std@@@std@@@2@@std@@AEAA@U_Move_allocator_tag@1@AEAV?$allocator@U?$_List_node@U?$pair@$$CBEV?$basic_string@DU?$char_traits@D@std@@V?$allocator@D@2@@std@@@std@@PEAX@std@@@1@@Z
	??$?0V?$allocator@U?$_List_node@U?$pair@$$CBIPEAUggml_backend_buffer@@@std@@PEAX@std@@@std@@$$V@?$_Compressed_pair@V?$allocator@U?$_List_node@U?$pair@$$CBIPEAUggml_backend_buffer@@@std@@PEAX@std@@@std@@V?$_List_val@U?$_List_simple_types@U?$pair@$$CBIPEAUggml_backend_buffer@@@std@@@std@@@2@$00@std@@QEAA@U_One_then_variadic_args_t@1@$$QEAV?$allocator@U?$_List_node@U?$pair@$$CBIPEAUggml_backend_buffer@@@std@@PEAX@std@@@1@@Z
	??$?0V?$allocator@U?$_List_node@U?$pair@$$CBIPEAUggml_backend_buffer@@@std@@PEAX@std@@@std@@@?$_Hash@V?$_Umap_traits@IPEAUggml_backend_buffer@@V?$_Uhash_compare@IU?$hash@I@std@@U?$equal_to@I@2@@std@@V?$allocator@U?$pair@$$CBIPEAUggml_backend_buffer@@@std@@@3@$0A@@std@@@std@@IEAA@AEBV01@AEBV?$allocator@U?$_List_node@U?$pair@$$CBIPEAUggml_backend_buffer@@@std@@PEAX@std@@@1@@Z
	??$?0V?$allocator@U?$_List_node@U?$pair@$$CBIPEAUggml_backend_buffer@@@std@@PEAX@std@@@std@@@?$list@U?$pair@$$CBIPEAUggml_backend_buffer@@@std@@V?$allocator@U?$pair@$$CBIPEAUggml_backend_buffer@@@std@@@2@@std@@AEAA@U_Move_allocator_tag@1@AEAV?$allocator@U?$_List_node@U?$pair@$$CBIPEAUggml_backend_buffer@@@std@@PEAX@std@@@1@@Z
	??$?0V?$allocator@U?$_List_node@U?$pair@$$CBV?$basic_string@DU?$char_traits@D@std@@V?$allocator@D@2@@std@@E@std@@PEAX@std@@@std@@$$V@?$_Compressed_pair@V?$allocator@U?$_List_node@U?$pair@$$CBV?$basic_string@DU?$char_traits@D@std@@V?$allocator@D@2@@std@@E@std@@PEAX@std@@@std@@V?$_List_val@U?$_List_simple_types@U?$pair@$$CBV?$basic_string@DU?$char_traits@D@std@@V?$allocator@D@2@@std@@E@std@@@std@@@2@$00@std@@QEAA@U_One_then_variadic_args_t@1@$$QEAV?$allocator@U?$_List_node@U?$pair@$$CBV?$basic_string@DU?$char_traits@D@std@@V?$allocator@D@2@@std@@E@std@@PEAX@std@@@1@@Z
	??$?0V?$allocator@U?$_List_node@U?$pair@$$CBV?$basic_string@DU?$char_traits@D@std@@V?$allocator@D@2@@std@@E@std@@PEAX@std@@@std@@@?$list@U?$pair@$$CBV?$basic_string@DU?$char_traits@D@std@@V?$allocator@D@2@@std@@E@std@@V?$allocator@U?$pair@$$CBV?$basic_string@DU?$char_traits@D@std@@V?$allocator@D@2@@std@@E@std@@@2@@std@@AEAA@U_Move_allocator_tag@1@AEAV?$allocator@U?$_List_node@U?$pair@$$CBV?$basic_string@DU?$char_traits@D@std@@V?$allocator@D@2@@std@@E@std@@PEAX@std@@@1@@Z
	??$?0V?$allocator@U?$_Tree_node@HPEAX@std@@@std@@$$V@?$_Compressed_pair@V?$allocator@U?$_Tree_node@HPEAX@std@@@std@@V?$_Tree_val@U?$_Tree_simple_types@H@std@@@2@$00@std@@QEAA@U_One_then_variadic_args_t@1@$$QEAV?$allocator@U?$_Tree_node@HPEAX@std@@@1@@Z
	??$?0V?$allocator@U?$_Tree_node@HPEAX@std@@@std@@@?$_Tree@V?$_Tset_traits@HU?$less@H@std@@V?$allocator@H@2@$0A@@std@@@std@@QEAA@AEBV01@$$QEAV?$allocator@U?$_Tree_node@HPEAX@std@@@1@@Z
	??$?0V?$allocator@U?$_Tree_node@U?$pair@$$CBDUnaive_trie@@@std@@PEAX@std@@@std@@$$V@?$_Compressed_pair@V?$allocator@U?$_Tree_node@U?$pair@$$CBDUnaive_trie@@@std@@PEAX@std@@@std@@V?$_Tree_val@U?$_Tree_simple_types@U?$pair@$$CBDUnaive_trie@@@std@@@std@@@2@$00@std@@QEAA@U_One_then_variadic_args_t@1@$$QEAV?$allocator@U?$_Tree_node@U?$pair@$$CBDUnaive_trie@@@std@@PEAX@std@@@1@@Z
	??$?0V?$allocator@U?$_Tree_node@U?$pair@$$CBW4llm_tensor@@V?$basic_string@DU?$char_traits@D@std@@V?$allocator@D@2@@std@@@std@@PEAX@std@@@std@@$$V@?$_Compressed_pair@V?$allocator@U?$_Tree_node@U?$pair@$$CBW4llm_tensor@@V?$basic_string@DU?$char_traits@D@std@@V?$allocator@D@2@@std@@@std@@PEAX@std@@@std@@V?$_Tree_val@U?$_Tree_simple_types@U?$pair@$$CBW4llm_tensor@@V?$basic_string@DU?$char_traits@D@std@@V?$allocator@D@2@@std@@@std@@@std@@@2@$00@std@@QEAA@U_One_then_variadic_args_t@1@$$QEAV?$allocator@U?$_Tree_node@U?$pair@$$CBW4llm_tensor@@V?$basic_string@DU?$char_traits@D@std@@V?$allocator@D@2@@std@@@std@@PEAX@std@@@1@@Z
	??$?0V?$allocator@U?$_Tree_node@U?$pair@$$CBW4llm_tensor@@V?$basic_string@DU?$char_traits@D@std@@V?$allocator@D@2@@std@@@std@@PEAX@std@@@std@@@?$_Tree@V?$_Tmap_traits@W4llm_tensor@@V?$basic_string@DU?$char_traits@D@std@@V?$allocator@D@2@@std@@U?$less@W4llm_tensor@@@3@V?$allocator@U?$pair@$$CBW4llm_tensor@@V?$basic_string@DU?$char_traits@D@std@@V?$allocator@D@2@@std@@@std@@@3@$0A@@std@@@std@@QEAA@AEBV01@$$QEAV?$allocator@U?$_Tree_node@U?$pair@$$CBW4llm_tensor@@V?$basic_string@DU?$char_traits@D@std@@V?$allocator@D@2@@std@@@std@@PEAX@std@@@1@@Z
	??$?0V?$allocator@U_Grp_t@?$_Tgt_state_t@PEBD@std@@@std@@$$V@?$_Compressed_pair@V?$allocator@U_Grp_t@?$_Tgt_state_t@PEBD@std@@@std@@V?$_Vector_val@U?$_Simple_types@U_Grp_t@?$_Tgt_state_t@PEBD@std@@@std@@@2@$00@std@@QEAA@U_One_then_variadic_args_t@1@$$QEAV?$allocator@U_Grp_t@?$_Tgt_state_t@PEBD@std@@@1@@Z
	??$?0V?$allocator@U_Grp_t@?$_Tgt_state_t@PEB_W@std@@@std@@$$V@?$_Compressed_pair@V?$allocator@U_Grp_t@?$_Tgt_state_t@PEB_W@std@@@std@@V?$_Vector_val@U?$_Simple_types@U_Grp_t@?$_Tgt_state_t@PEB_W@std@@@std@@@2@$00@std@@QEAA@U_One_then_variadic_args_t@1@$$QEAV?$allocator@U_Grp_t@?$_Tgt_state_t@PEB_W@std@@@1@@Z
	??$?0V?$allocator@Ucodepoint_flags@@@std@@PEAUcodepoint_flags@@PEAU2@PEAU2@@?$_Compressed_pair@V?$allocator@Ucodepoint_flags@@@std@@V?$_Vector_val@U?$_Simple_types@Ucodepoint_flags@@@std@@@2@$00@std@@QEAA@U_One_then_variadic_args_t@1@$$QEAV?$allocator@Ucodepoint_flags@@@1@$$QEAPEAUcodepoint_flags@@22@Z
	??$?0V?$allocator@Ullama_grammar_candidate@@@std@@PEAUllama_grammar_candidate@@PEAU2@PEAU2@@?$_Compressed_pair@V?$allocator@Ullama_grammar_candidate@@@std@@V?$_Vector_val@U?$_Simple_types@Ullama_grammar_candidate@@@std@@@2@$00@std@@QEAA@U_One_then_variadic_args_t@1@$$QEAV?$allocator@Ullama_grammar_candidate@@@1@$$QEAPEAUllama_grammar_candidate@@22@Z
	??$?0V?$allocator@Ullama_grammar_element@@@std@@$$V@?$_Compressed_pair@V?$allocator@Ullama_grammar_element@@@std@@V?$_Vector_val@U?$_Simple_types@Ullama_grammar_element@@@std@@@2@$00@std@@QEAA@U_One_then_variadic_args_t@1@$$QEAV?$allocator@Ullama_grammar_element@@@1@@Z
	??$?0V?$allocator@V?$_List_unchecked_iterator@V?$_List_val@U?$_List_simple_types@U?$pair@$$CBEV?$basic_string@DU?$char_traits@D@std@@V?$allocator@D@2@@std@@@std@@@std@@@std@@@std@@@std@@$$V@?$_Compressed_pair@V?$allocator@V?$_List_unchecked_iterator@V?$_List_val@U?$_List_simple_types@U?$pair@$$CBEV?$basic_string@DU?$char_traits@D@std@@V?$allocator@D@2@@std@@@std@@@std@@@std@@@std@@@std@@V?$_Vector_val@U?$_Simple_types@V?$_List_unchecked_iterator@V?$_List_val@U?$_List_simple_types@U?$pair@$$CBEV?$basic_string@DU?$char_traits@D@std@@V?$allocator@D@2@@std@@@std@@@std@@@std@@@std@@@std@@@2@$00@std@@QEAA@U_One_then_variadic_args_t@1@$$QEAV?$allocator@V?$_List_unchecked_iterator@V?$_List_val@U?$_List_simple_types@U?$pair@$$CBEV?$basic_string@DU?$char_traits@D@std@@V?$allocator@D@2@@std@@@std@@@std@@@std@@@std@@@1@@Z
	??$?0V?$allocator@V?$_List_unchecked_iterator@V?$_List_val@U?$_List_simple_types@U?$pair@$$CBEV?$basic_string@DU?$char_traits@D@std@@V?$allocator@D@2@@std@@@std@@@std@@@std@@@std@@@std@@$0A@@?$_Hash_vec@V?$allocator@V?$_List_unchecked_iterator@V?$_List_val@U?$_List_simple_types@U?$pair@$$CBEV?$basic_string@DU?$char_traits@D@std@@V?$allocator@D@2@@std@@@std@@@std@@@std@@@std@@@std@@@std@@QEAA@$$QEAV?$allocator@V?$_List_unchecked_iterator@V?$_List_val@U?$_List_simple_types@U?$pair@$$CBEV?$basic_string@DU?$char_traits@D@std@@V?$allocator@D@2@@std@@@std@@@std@@@std@@@std@@@1@@Z
	??$?0V?$allocator@V?$_List_unchecked_iterator@V?$_List_val@U?$_List_simple_types@U?$pair@$$CBIPEAUggml_backend_buffer@@@std@@@std@@@std@@@std@@@std@@$$V@?$_Compressed_pair@V?$allocator@V?$_List_unchecked_iterator@V?$_List_val@U?$_List_simple_types@U?$pair@$$CBIPEAUggml_backend_buffer@@@std@@@std@@@std@@@std@@@std@@V?$_Vector_val@U?$_Simple_types@V?$_List_unchecked_iterator@V?$_List_val@U?$_List_simple_types@U?$pair@$$CBIPEAUggml_backend_buffer@@@std@@@std@@@std@@@std@@@std@@@2@$00@std@@QEAA@U_One_then_variadic_args_t@1@$$QEAV?$allocator@V?$_List_unchecked_iterator@V?$_List_val@U?$_List_simple_types@U?$pair@$$CBIPEAUggml_backend_buffer@@@std@@@std@@@std@@@std@@@1@@Z
	??$?0V?$allocator@V?$_List_unchecked_iterator@V?$_List_val@U?$_List_simple_types@U?$pair@$$CBIPEAUggml_backend_buffer@@@std@@@std@@@std@@@std@@@std@@$0A@@?$_Hash_vec@V?$allocator@V?$_List_unchecked_iterator@V?$_List_val@U?$_List_simple_types@U?$pair@$$CBIPEAUggml_backend_buffer@@@std@@@std@@@std@@@std@@@std@@@std@@QEAA@$$QEAV?$allocator@V?$_List_unchecked_iterator@V?$_List_val@U?$_List_simple_types@U?$pair@$$CBIPEAUggml_backend_buffer@@@std@@@std@@@std@@@std@@@1@@Z
	??$?0V?$allocator@V?$_List_unchecked_iterator@V?$_List_val@U?$_List_simple_types@U?$pair@$$CBV?$basic_string@DU?$char_traits@D@std@@V?$allocator@D@2@@std@@E@std@@@std@@@std@@@std@@@std@@$$V@?$_Compressed_pair@V?$allocator@V?$_List_unchecked_iterator@V?$_List_val@U?$_List_simple_types@U?$pair@$$CBV?$basic_string@DU?$char_traits@D@std@@V?$allocator@D@2@@std@@E@std@@@std@@@std@@@std@@@std@@V?$_Vector_val@U?$_Simple_types@V?$_List_unchecked_iterator@V?$_List_val@U?$_List_simple_types@U?$pair@$$CBV?$basic_string@DU?$char_traits@D@std@@V?$allocator@D@2@@std@@E@std@@@std@@@std@@@std@@@std@@@2@$00@std@@QEAA@U_One_then_variadic_args_t@1@$$QEAV?$allocator@V?$_List_unchecked_iterator@V?$_List_val@U?$_List_simple_types@U?$pair@$$CBV?$basic_string@DU?$char_traits@D@std@@V?$allocator@D@2@@std@@E@std@@@std@@@std@@@std@@@1@@Z
	??$?0V?$allocator@V?$_List_unchecked_iterator@V?$_List_val@U?$_List_simple_types@U?$pair@$$CBV?$basic_string@DU?$char_traits@D@std@@V?$allocator@D@2@@std@@E@std@@@std@@@std@@@std@@@std@@$0A@@?$_Hash_vec@V?$allocator@V?$_List_unchecked_iterator@V?$_List_val@U?$_List_simple_types@U?$pair@$$CBV?$basic_string@DU?$char_traits@D@std@@V?$allocator@D@2@@std@@E@std@@@std@@@std@@@std@@@std@@@std@@QEAA@$$QEAV?$allocator@V?$_List_unchecked_iterator@V?$_List_val@U?$_List_simple_types@U?$pair@$$CBV?$basic_string@DU?$char_traits@D@std@@V?$allocator@D@2@@std@@E@std@@@std@@@std@@@std@@@1@@Z
	??$?0V?$allocator@V?$basic_string@DU?$char_traits@D@std@@V?$allocator@D@2@@std@@@std@@PEAV?$basic_string@DU?$char_traits@D@std@@V?$allocator@D@2@@1@PEAV21@PEAV21@@?$_Compressed_pair@V?$allocator@V?$basic_string@DU?$char_traits@D@std@@V?$allocator@D@2@@std@@@std@@V?$_Vector_val@U?$_Simple_types@V?$basic_string@DU?$char_traits@D@std@@V?$allocator@D@2@@std@@@std@@@2@$00@std@@QEAA@U_One_then_variadic_args_t@1@$$QEAV?$allocator@V?$basic_string@DU?$char_traits@D@std@@V?$allocator@D@2@@std@@@1@$$QEAPEAV?$basic_string@DU?$char_traits@D@std@@V?$allocator@D@2@@1@22@Z
	??$?0V?$allocator@V?$sub_match@PEBD@std@@@std@@$$V@?$_Compressed_pair@V?$allocator@V?$sub_match@PEBD@std@@@std@@V?$_Vector_val@U?$_Simple_types@V?$sub_match@PEBD@std@@@std@@@2@$00@std@@QEAA@U_One_then_variadic_args_t@1@$$QEAV?$allocator@V?$sub_match@PEBD@std@@@1@@Z
	??$?0V?$allocator@V?$sub_match@PEB_W@std@@@std@@$$V@?$_Compressed_pair@V?$allocator@V?$sub_match@PEB_W@std@@@std@@V?$_Vector_val@U?$_Simple_types@V?$sub_match@PEB_W@std@@@std@@@2@$00@std@@QEAA@U_One_then_variadic_args_t@1@$$QEAV?$allocator@V?$sub_match@PEB_W@std@@@1@@Z
	??$?0V?$allocator@V?$vector@PEBUllama_grammar_element@@V?$allocator@PEBUllama_grammar_element@@@std@@@std@@@std@@$$V@?$_Compressed_pair@V?$allocator@V?$vector@PEBUllama_grammar_element@@V?$allocator@PEBUllama_grammar_element@@@std@@@std@@@std@@V?$_Vector_val@U?$_Simple_types@V?$vector@PEBUllama_grammar_element@@V?$allocator@PEBUllama_grammar_element@@@std@@@std@@@std@@@2@$00@std@@QEAA@U_One_then_variadic_args_t@1@$$QEAV?$allocator@V?$vector@PEBUllama_grammar_element@@V?$allocator@PEBUllama_grammar_element@@@std@@@std@@@1@@Z
	??$?0V?$allocator@V?$vector@PEBUllama_grammar_element@@V?$allocator@PEBUllama_grammar_element@@@std@@@std@@@std@@PEAV?$vector@PEBUllama_grammar_element@@V?$allocator@PEBUllama_grammar_element@@@std@@@1@PEAV21@PEAV21@@?$_Compressed_pair@V?$allocator@V?$vector@PEBUllama_grammar_element@@V?$allocator@PEBUllama_grammar_element@@@std@@@std@@@std@@V?$_Vector_val@U?$_Simple_types@V?$vector@PEBUllama_grammar_element@@V?$allocator@PEBUllama_grammar_element@@@std@@@std@@@std@@@2@$00@std@@QEAA@U_One_then_variadic_args_t@1@$$QEAV?$allocator@V?$vector@PEBUllama_grammar_element@@V?$allocator@PEBUllama_grammar_element@@@std@@@std@@@1@$$QEAPEAV?$vector@PEBUllama_grammar_element@@V?$allocator@PEBUllama_grammar_element@@@std@@@1@22@Z
	??$?0V?$allocator@V?$vector@Ullama_grammar_element@@V?$allocator@Ullama_grammar_element@@@std@@@std@@@std@@$$V@?$_Compressed_pair@V?$allocator@V?$vector@Ullama_grammar_element@@V?$allocator@Ullama_grammar_element@@@std@@@std@@@std@@V?$_Vector_val@U?$_Simple_types@V?$vector@Ullama_grammar_element@@V?$allocator@Ullama_grammar_element@@@std@@@std@@@std@@@2@$00@std@@QEAA@U_One_then_variadic_args_t@1@$$QEAV?$allocator@V?$vector@Ullama_grammar_element@@V?$allocator@Ullama_grammar_element@@@std@@@std@@@1@@Z
	??$?0V?$allocator@V?$vector@Ullama_grammar_element@@V?$allocator@Ullama_grammar_element@@@std@@@std@@@std@@PEAV?$vector@Ullama_grammar_element@@V?$allocator@Ullama_grammar_element@@@std@@@1@PEAV21@PEAV21@@?$_Compressed_pair@V?$allocator@V?$vector@Ullama_grammar_element@@V?$allocator@Ullama_grammar_element@@@std@@@std@@@std@@V?$_Vector_val@U?$_Simple_types@V?$vector@Ullama_grammar_element@@V?$allocator@Ullama_grammar_element@@@std@@@std@@@std@@@2@$00@std@@QEAA@U_One_then_variadic_args_t@1@$$QEAV?$allocator@V?$vector@Ullama_grammar_element@@V?$allocator@Ullama_grammar_element@@@std@@@std@@@1@$$QEAPEAV?$vector@Ullama_grammar_element@@V?$allocator@Ullama_grammar_element@@@std@@@1@22@Z
	??$?0V?$allocator@_K@std@@PEA_KPEA_KPEA_K@?$_Compressed_pair@V?$allocator@_K@std@@V?$_Vector_val@U?$_Simple_types@_K@std@@@2@$00@std@@QEAA@U_One_then_variadic_args_t@1@$$QEAV?$allocator@_K@1@$$QEAPEA_K22@Z
	??$?0V?$allocator@_W@std@@$$V@?$_Compressed_pair@V?$allocator@_W@std@@V?$_String_val@U?$_Simple_types@_W@std@@@2@$00@std@@QEAA@U_One_then_variadic_args_t@1@$$QEAV?$allocator@_W@1@@Z
	??$?0V?$basic_string@DU?$char_traits@D@std@@V?$allocator@D@2@@std@@$$V$0A@@?$tuple@$$QEAV?$basic_string@DU?$char_traits@D@std@@V?$allocator@D@2@@std@@@std@@QEAA@$$QEAV?$basic_string@DU?$char_traits@D@std@@V?$allocator@D@2@@1@@Z
	??$?0V?$basic_string@DU?$char_traits@D@std@@V?$allocator@D@2@@std@@@?$_Tuple_val@$$QEAV?$basic_string@DU?$char_traits@D@std@@V?$allocator@D@2@@std@@@std@@QEAA@$$QEAV?$basic_string@DU?$char_traits@D@std@@V?$allocator@D@2@@1@@Z
	??$?0V?$basic_string@DU?$char_traits@D@std@@V?$allocator@D@2@@std@@@?$allocator@U_Container_proxy@std@@@std@@QEAA@AEBV?$allocator@V?$basic_string@DU?$char_traits@D@std@@V?$allocator@D@2@@std@@@1@@Z
	??$?0V?$basic_string@DU?$char_traits@D@std@@V?$allocator@D@2@@std@@AEBUllama_model_kv_override@@$0A@@?$pair@$$CBV?$basic_string@DU?$char_traits@D@std@@V?$allocator@D@2@@std@@Ullama_model_kv_override@@@std@@QEAA@$$QEAV?$basic_string@DU?$char_traits@D@std@@V?$allocator@D@2@@1@AEBUllama_model_kv_override@@@Z
	??$?0V?$basic_string@DU?$char_traits@D@std@@V?$allocator@D@2@@std@@V01@$0A@@?$pair@V?$basic_string@DU?$char_traits@D@std@@V?$allocator@D@2@@std@@V12@@std@@QEAA@AEBV?$basic_string@DU?$char_traits@D@std@@V?$allocator@D@2@@1@0@Z
	??$?0V?$codecvt_utf8@_W$0BAPPPP@$0A@@std@@@locale@std@@QEAA@AEBV01@PEBV?$codecvt_utf8@_W$0BAPPPP@$0A@@1@@Z
	??$?0V?$future@U?$pair@PEAUggml_tensor@@_N@std@@@std@@@?$allocator@U_Container_proxy@std@@@std@@QEAA@AEBV?$allocator@V?$future@U?$pair@PEAUggml_tensor@@_N@std@@@std@@@1@@Z
	??$?0V?$set@HU?$less@H@std@@V?$allocator@H@2@@std@@@?$allocator@U_Container_proxy@std@@@std@@QEAA@AEBV?$allocator@V?$set@HU?$less@H@std@@V?$allocator@H@2@@std@@@1@@Z
	??$?0V?$sub_match@PEBD@std@@@?$allocator@U_Container_proxy@std@@@std@@QEAA@AEBV?$allocator@V?$sub_match@PEBD@std@@@1@@Z
	??$?0V?$sub_match@PEB_W@std@@@?$allocator@U_Container_proxy@std@@@std@@QEAA@AEBV?$allocator@V?$sub_match@PEB_W@std@@@1@@Z
	??$?0V?$tuple@$$QEAE@std@@V?$tuple@$$V@1@$0A@$$Z$S@?$pair@$$CBEV?$basic_string@DU?$char_traits@D@std@@V?$allocator@D@2@@std@@@std@@QEAA@AEAV?$tuple@$$QEAE@1@AEAV?$tuple@$$V@1@U?$integer_sequence@_K$0A@@1@U?$integer_sequence@_K$S@1@@Z
	??$?0V?$tuple@$$QEAPEAUggml_backend_buffer_type@@@std@@V?$tuple@$$V@1@$0A@$$Z$S@?$pair@QEAUggml_backend_buffer_type@@H@std@@QEAA@AEAV?$tuple@$$QEAPEAUggml_backend_buffer_type@@@1@AEAV?$tuple@$$V@1@U?$integer_sequence@_K$0A@@1@U?$integer_sequence@_K$S@1@@Z
	??$?0V?$tuple@$$QEAV?$basic_string@DU?$char_traits@D@std@@V?$allocator@D@2@@std@@@std@@V?$tuple@$$V@1@$0A@$$Z$S@?$pair@$$CBV?$basic_string@DU?$char_traits@D@std@@V?$allocator@D@2@@std@@E@std@@QEAA@AEAV?$tuple@$$QEAV?$basic_string@DU?$char_traits@D@std@@V?$allocator@D@2@@std@@@1@AEAV?$tuple@$$V@1@U?$integer_sequence@_K$0A@@1@U?$integer_sequence@_K$S@1@@Z
	??$?0V?$tuple@AEBH@std@@V?$tuple@$$V@1@$0A@$$Z$S@?$pair@$$CBHH@std@@QEAA@AEAV?$tuple@AEBH@1@AEAV?$tuple@$$V@1@U?$integer_sequence@_K$0A@@1@U?$integer_sequence@_K$S@1@@Z
	??$?0V?$tuple@AEBH@std@@V?$tuple@$$V@1@$0A@$$Z$S@?$pair@$$CBHV?$vector@MV?$allocator@M@std@@@std@@@std@@QEAA@AEAV?$tuple@AEBH@1@AEAV?$tuple@$$V@1@U?$integer_sequence@_K$0A@@1@U?$integer_sequence@_K$S@1@@Z
	??$?0V?$tuple@AEBQEAUggml_backend_buffer_type@@@std@@V?$tuple@$$V@1@$0A@$$Z$S@?$pair@QEAUggml_backend_buffer_type@@H@std@@QEAA@AEAV?$tuple@AEBQEAUggml_backend_buffer_type@@@1@AEAV?$tuple@$$V@1@U?$integer_sequence@_K$0A@@1@U?$integer_sequence@_K$S@1@@Z
	??$?0V?$tuple@AEBQEAUggml_backend_buffer_type@@@std@@V?$tuple@$$V@1@$0A@$$Z$S@?$pair@QEAUggml_backend_buffer_type@@PEAUggml_context@@@std@@QEAA@AEAV?$tuple@AEBQEAUggml_backend_buffer_type@@@1@AEAV?$tuple@$$V@1@U?$integer_sequence@_K$0A@@1@U?$integer_sequence@_K$S@1@@Z
	??$?0V?$tuple@AEBQEAUllama_lora_adapter@@@std@@V?$tuple@$$V@1@$0A@$$Z$S@?$pair@QEAUllama_lora_adapter@@M@std@@QEAA@AEAV?$tuple@AEBQEAUllama_lora_adapter@@@1@AEAV?$tuple@$$V@1@U?$integer_sequence@_K$0A@@1@U?$integer_sequence@_K$S@1@@Z
	??$?0V?$tuple@AEBV?$basic_string@DU?$char_traits@D@std@@V?$allocator@D@2@@std@@@std@@V?$tuple@$$V@1@$0A@$$Z$S@?$pair@$$CBV?$basic_string@DU?$char_traits@D@std@@V?$allocator@D@2@@std@@H@std@@QEAA@AEAV?$tuple@AEBV?$basic_string@DU?$char_traits@D@std@@V?$allocator@D@2@@std@@@1@AEAV?$tuple@$$V@1@U?$integer_sequence@_K$0A@@1@U?$integer_sequence@_K$S@1@@Z
	??$?0V?$tuple@AEBV?$basic_string@DU?$char_traits@D@std@@V?$allocator@D@2@@std@@@std@@V?$tuple@$$V@1@$0A@$$Z$S@?$pair@$$CBV?$basic_string@DU?$char_traits@D@std@@V?$allocator@D@2@@std@@U?$pair@HH@2@@std@@QEAA@AEAV?$tuple@AEBV?$basic_string@DU?$char_traits@D@std@@V?$allocator@D@2@@std@@@1@AEAV?$tuple@$$V@1@U?$integer_sequence@_K$0A@@1@U?$integer_sequence@_K$S@1@@Z
	??$?0V?$tuple@AEBV?$basic_string@DU?$char_traits@D@std@@V?$allocator@D@2@@std@@@std@@V?$tuple@$$V@1@$0A@$$Z$S@?$pair@$$CBV?$basic_string@DU?$char_traits@D@std@@V?$allocator@D@2@@std@@Ullama_lora_weight@@@std@@QEAA@AEAV?$tuple@AEBV?$basic_string@DU?$char_traits@D@std@@V?$allocator@D@2@@std@@@1@AEAV?$tuple@$$V@1@U?$integer_sequence@_K$0A@@1@U?$integer_sequence@_K$S@1@@Z
	??$?0V?$tuple@AEBW4ggml_type@@@std@@V?$tuple@$$V@1@$0A@$$Z$S@?$pair@$$CBW4ggml_type@@I@std@@QEAA@AEAV?$tuple@AEBW4ggml_type@@@1@AEAV?$tuple@$$V@1@U?$integer_sequence@_K$0A@@1@U?$integer_sequence@_K$S@1@@Z
	??$?0V?$unique_ptr@Ullama_file@@U?$default_delete@Ullama_file@@@std@@@std@@@?$allocator@U_Container_proxy@std@@@std@@QEAA@AEBV?$allocator@V?$unique_ptr@Ullama_file@@U?$default_delete@Ullama_file@@@std@@@std@@@1@@Z
	??$?0V?$unique_ptr@Ullama_mlock@@U?$default_delete@Ullama_mlock@@@std@@@std@@@?$allocator@U_Container_proxy@std@@@std@@QEAA@AEBV?$allocator@V?$unique_ptr@Ullama_mlock@@U?$default_delete@Ullama_mlock@@@std@@@std@@@1@@Z
	??$?0V?$unique_ptr@Ullama_mmap@@U?$default_delete@Ullama_mmap@@@std@@@std@@@?$allocator@U_Container_proxy@std@@@std@@QEAA@AEBV?$allocator@V?$unique_ptr@Ullama_mmap@@U?$default_delete@Ullama_mmap@@@std@@@std@@@1@@Z
	??$?0V?$vector@IV?$allocator@I@std@@@std@@Ullama_partial_utf8@@$0A@@?$pair@V?$vector@IV?$allocator@I@std@@@std@@Ullama_partial_utf8@@@std@@QEAA@$$QEAV?$vector@IV?$allocator@I@std@@@1@$$QEAUllama_partial_utf8@@@Z
	??$?0V?$vector@PEBUllama_grammar_element@@V?$allocator@PEBUllama_grammar_element@@@std@@@std@@@?$allocator@U_Container_proxy@std@@@std@@QEAA@AEBV?$allocator@V?$vector@PEBUllama_grammar_element@@V?$allocator@PEBUllama_grammar_element@@@std@@@std@@@1@@Z
	??$?0V?$vector@Ullama_grammar_element@@V?$allocator@Ullama_grammar_element@@@std@@@std@@@?$allocator@U_Container_proxy@std@@@std@@QEAA@AEBV?$allocator@V?$vector@Ullama_grammar_element@@V?$allocator@Ullama_grammar_element@@@std@@@std@@@1@@Z
	??$?0Vthread@std@@@?$allocator@U_Container_proxy@std@@@std@@QEAA@AEBV?$allocator@Vthread@std@@@1@@Z
	??$?0W4<unnamed-enum-UNDEFINED>@codepoint_flags@@AEAY03$$CBD$0A@@?$pair@$$CBHV?$basic_string@DU?$char_traits@D@std@@V?$allocator@D@2@@std@@@std@@QEAA@$$QEAW4<unnamed-enum-UNDEFINED>@codepoint_flags@@AEAY03$$CBD@Z
	??$?0W4<unnamed-enum-UNDEFINED>@codepoint_flags@@AEAY06$$CBD$0A@@?$pair@$$CBHV?$basic_string@DU?$char_traits@D@std@@V?$allocator@D@2@@std@@@std@@QEAA@$$QEAW4<unnamed-enum-UNDEFINED>@codepoint_flags@@AEAY06$$CBD@Z
	??$?0W4<unnamed-enum-UNDEFINED>@codepoint_flags@@AEAY0BK@$$CBD$0A@@?$pair@$$CBHV?$basic_string@DU?$char_traits@D@std@@V?$allocator@D@2@@std@@@std@@QEAA@$$QEAW4<unnamed-enum-UNDEFINED>@codepoint_flags@@AEAY0BK@$$CBD@Z
	??$?0W4<unnamed-enum-UNDEFINED>@codepoint_flags@@H$0A@@?$pair@$$CBHH@std@@QEAA@$$QEAW4<unnamed-enum-UNDEFINED>@codepoint_flags@@$$QEAH@Z
	??$?0W4llama_rope_scaling_type@@AEAY04$$CBD$0A@@?$pair@$$CBW4llama_rope_scaling_type@@PEBD@std@@QEAA@$$QEAW4llama_rope_scaling_type@@AEAY04$$CBD@Z
	??$?0W4llama_rope_scaling_type@@AEAY06$$CBD$0A@@?$pair@$$CBW4llama_rope_scaling_type@@PEBD@std@@QEAA@$$QEAW4llama_rope_scaling_type@@AEAY06$$CBD@Z
	??$?0W4llm_arch@@AEAY02$$CBD$0A@@?$pair@$$CBW4llm_arch@@PEBD@std@@QEAA@$$QEAW4llm_arch@@AEAY02$$CBD@Z
	??$?0W4llm_arch@@AEAY03$$CBD$0A@@?$pair@$$CBW4llm_arch@@PEBD@std@@QEAA@$$QEAW4llm_arch@@AEAY03$$CBD@Z
	??$?0W4llm_arch@@AEAY04$$CBD$0A@@?$pair@$$CBW4llm_arch@@PEBD@std@@QEAA@$$QEAW4llm_arch@@AEAY04$$CBD@Z
	??$?0W4llm_arch@@AEAY05$$CBD$0A@@?$pair@$$CBW4llm_arch@@PEBD@std@@QEAA@$$QEAW4llm_arch@@AEAY05$$CBD@Z
	??$?0W4llm_arch@@AEAY06$$CBD$0A@@?$pair@$$CBW4llm_arch@@PEBD@std@@QEAA@$$QEAW4llm_arch@@AEAY06$$CBD@Z
	??$?0W4llm_arch@@AEAY07$$CBD$0A@@?$pair@$$CBW4llm_arch@@PEBD@std@@QEAA@$$QEAW4llm_arch@@AEAY07$$CBD@Z
	??$?0W4llm_arch@@AEAY08$$CBD$0A@@?$pair@$$CBW4llm_arch@@PEBD@std@@QEAA@$$QEAW4llm_arch@@AEAY08$$CBD@Z
	??$?0W4llm_arch@@AEAY09$$CBD$0A@@?$pair@$$CBW4llm_arch@@PEBD@std@@QEAA@$$QEAW4llm_arch@@AEAY09$$CBD@Z
	??$?0W4llm_arch@@AEAY0L@$$CBD$0A@@?$pair@$$CBW4llm_arch@@PEBD@std@@QEAA@$$QEAW4llm_arch@@AEAY0L@$$CBD@Z
	??$?0W4llm_arch@@AEAY0N@$$CBD$0A@@?$pair@$$CBW4llm_arch@@PEBD@std@@QEAA@$$QEAW4llm_arch@@AEAY0N@$$CBD@Z
	??$?0W4llm_kv@@AEAH$0A@@?$pair@W4llm_kv@@AEAH@std@@QEAA@$$QEAW4llm_kv@@AEAH@Z
	??$?0W4llm_kv@@AEAY08$$CBD$0A@@?$pair@$$CBW4llm_kv@@PEBD@std@@QEAA@$$QEAW4llm_kv@@AEAY08$$CBD@Z
	??$?0W4llm_kv@@AEAY0BA@$$CBD$0A@@?$pair@$$CBW4llm_kv@@PEBD@std@@QEAA@$$QEAW4llm_kv@@AEAY0BA@$$CBD@Z
	??$?0W4llm_kv@@AEAY0BC@$$CBD$0A@@?$pair@$$CBW4llm_kv@@PEBD@std@@QEAA@$$QEAW4llm_kv@@AEAY0BC@$$CBD@Z
	??$?0W4llm_kv@@AEAY0BD@$$CBD$0A@@?$pair@$$CBW4llm_kv@@PEBD@std@@QEAA@$$QEAW4llm_kv@@AEAY0BD@$$CBD@Z
	??$?0W4llm_kv@@AEAY0BE@$$CBD$0A@@?$pair@$$CBW4llm_kv@@PEBD@std@@QEAA@$$QEAW4llm_kv@@AEAY0BE@$$CBD@Z
	??$?0W4llm_kv@@AEAY0BF@$$CBD$0A@@?$pair@$$CBW4llm_kv@@PEBD@std@@QEAA@$$QEAW4llm_kv@@AEAY0BF@$$CBD@Z
	??$?0W4llm_kv@@AEAY0BG@$$CBD$0A@@?$pair@$$CBW4llm_kv@@PEBD@std@@QEAA@$$QEAW4llm_kv@@AEAY0BG@$$CBD@Z
	??$?0W4llm_kv@@AEAY0BH@$$CBD$0A@@?$pair@$$CBW4llm_kv@@PEBD@std@@QEAA@$$QEAW4llm_kv@@AEAY0BH@$$CBD@Z
	??$?0W4llm_kv@@AEAY0BI@$$CBD$0A@@?$pair@$$CBW4llm_kv@@PEBD@std@@QEAA@$$QEAW4llm_kv@@AEAY0BI@$$CBD@Z
	??$?0W4llm_kv@@AEAY0BJ@$$CBD$0A@@?$pair@$$CBW4llm_kv@@PEBD@std@@QEAA@$$QEAW4llm_kv@@AEAY0BJ@$$CBD@Z
	??$?0W4llm_kv@@AEAY0BK@$$CBD$0A@@?$pair@$$CBW4llm_kv@@PEBD@std@@QEAA@$$QEAW4llm_kv@@AEAY0BK@$$CBD@Z
	??$?0W4llm_kv@@AEAY0BL@$$CBD$0A@@?$pair@$$CBW4llm_kv@@PEBD@std@@QEAA@$$QEAW4llm_kv@@AEAY0BL@$$CBD@Z
	??$?0W4llm_kv@@AEAY0BM@$$CBD$0A@@?$pair@$$CBW4llm_kv@@PEBD@std@@QEAA@$$QEAW4llm_kv@@AEAY0BM@$$CBD@Z
	??$?0W4llm_kv@@AEAY0BN@$$CBD$0A@@?$pair@$$CBW4llm_kv@@PEBD@std@@QEAA@$$QEAW4llm_kv@@AEAY0BN@$$CBD@Z
	??$?0W4llm_kv@@AEAY0BO@$$CBD$0A@@?$pair@$$CBW4llm_kv@@PEBD@std@@QEAA@$$QEAW4llm_kv@@AEAY0BO@$$CBD@Z
	??$?0W4llm_kv@@AEAY0BP@$$CBD$0A@@?$pair@$$CBW4llm_kv@@PEBD@std@@QEAA@$$QEAW4llm_kv@@AEAY0BP@$$CBD@Z
	??$?0W4llm_kv@@AEAY0CA@$$CBD$0A@@?$pair@$$CBW4llm_kv@@PEBD@std@@QEAA@$$QEAW4llm_kv@@AEAY0CA@$$CBD@Z
	??$?0W4llm_kv@@AEAY0CC@$$CBD$0A@@?$pair@$$CBW4llm_kv@@PEBD@std@@QEAA@$$QEAW4llm_kv@@AEAY0CC@$$CBD@Z
	??$?0W4llm_kv@@AEAY0CE@$$CBD$0A@@?$pair@$$CBW4llm_kv@@PEBD@std@@QEAA@$$QEAW4llm_kv@@AEAY0CE@$$CBD@Z
	??$?0W4llm_kv@@AEAY0CF@$$CBD$0A@@?$pair@$$CBW4llm_kv@@PEBD@std@@QEAA@$$QEAW4llm_kv@@AEAY0CF@$$CBD@Z
	??$?0W4llm_kv@@AEAY0CG@$$CBD$0A@@?$pair@$$CBW4llm_kv@@PEBD@std@@QEAA@$$QEAW4llm_kv@@AEAY0CG@$$CBD@Z
	??$?0W4llm_kv@@AEAY0CI@$$CBD$0A@@?$pair@$$CBW4llm_kv@@PEBD@std@@QEAA@$$QEAW4llm_kv@@AEAY0CI@$$CBD@Z
	??$?0W4llm_kv@@AEAY0M@$$CBD$0A@@?$pair@$$CBW4llm_kv@@PEBD@std@@QEAA@$$QEAW4llm_kv@@AEAY0M@$$CBD@Z
	??$?0W4llm_kv@@AEAY0N@$$CBD$0A@@?$pair@$$CBW4llm_kv@@PEBD@std@@QEAA@$$QEAW4llm_kv@@AEAY0N@$$CBD@Z
	??$?0W4llm_kv@@AEAY0O@$$CBD$0A@@?$pair@$$CBW4llm_kv@@PEBD@std@@QEAA@$$QEAW4llm_kv@@AEAY0O@$$CBD@Z
	??$?0W4llm_kv@@AEAY0P@$$CBD$0A@@?$pair@$$CBW4llm_kv@@PEBD@std@@QEAA@$$QEAW4llm_kv@@AEAY0P@$$CBD@Z
	??$?0W4llm_tensor@@AEAY06$$CBD$0A@@?$pair@$$CBW4llm_tensor@@V?$basic_string@DU?$char_traits@D@std@@V?$allocator@D@2@@std@@@std@@QEAA@$$QEAW4llm_tensor@@AEAY06$$CBD@Z
	??$?0W4llm_tensor@@AEAY0BA@$$CBD$0A@@?$pair@$$CBW4llm_tensor@@V?$basic_string@DU?$char_traits@D@std@@V?$allocator@D@2@@std@@@std@@QEAA@$$QEAW4llm_tensor@@AEAY0BA@$$CBD@Z
	??$?0W4llm_tensor@@AEAY0BB@$$CBD$0A@@?$pair@$$CBW4llm_tensor@@V?$basic_string@DU?$char_traits@D@std@@V?$allocator@D@2@@std@@@std@@QEAA@$$QEAW4llm_tensor@@AEAY0BB@$$CBD@Z
	??$?0W4llm_tensor@@AEAY0BC@$$CBD$0A@@?$pair@$$CBW4llm_tensor@@V?$basic_string@DU?$char_traits@D@std@@V?$allocator@D@2@@std@@@std@@QEAA@$$QEAW4llm_tensor@@AEAY0BC@$$CBD@Z
	??$?0W4llm_tensor@@AEAY0BD@$$CBD$0A@@?$pair@$$CBW4llm_tensor@@V?$basic_string@DU?$char_traits@D@std@@V?$allocator@D@2@@std@@@std@@QEAA@$$QEAW4llm_tensor@@AEAY0BD@$$CBD@Z
	??$?0W4llm_tensor@@AEAY0BE@$$CBD$0A@@?$pair@$$CBW4llm_tensor@@V?$basic_string@DU?$char_traits@D@std@@V?$allocator@D@2@@std@@@std@@QEAA@$$QEAW4llm_tensor@@AEAY0BE@$$CBD@Z
	??$?0W4llm_tensor@@AEAY0BF@$$CBD$0A@@?$pair@$$CBW4llm_tensor@@V?$basic_string@DU?$char_traits@D@std@@V?$allocator@D@2@@std@@@std@@QEAA@$$QEAW4llm_tensor@@AEAY0BF@$$CBD@Z
	??$?0W4llm_tensor@@AEAY0BG@$$CBD$0A@@?$pair@$$CBW4llm_tensor@@V?$basic_string@DU?$char_traits@D@std@@V?$allocator@D@2@@std@@@std@@QEAA@$$QEAW4llm_tensor@@AEAY0BG@$$CBD@Z
	??$?0W4llm_tensor@@AEAY0BI@$$CBD$0A@@?$pair@$$CBW4llm_tensor@@V?$basic_string@DU?$char_traits@D@std@@V?$allocator@D@2@@std@@@std@@QEAA@$$QEAW4llm_tensor@@AEAY0BI@$$CBD@Z
	??$?0W4llm_tensor@@AEAY0BJ@$$CBD$0A@@?$pair@$$CBW4llm_tensor@@V?$basic_string@DU?$char_traits@D@std@@V?$allocator@D@2@@std@@@std@@QEAA@$$QEAW4llm_tensor@@AEAY0BJ@$$CBD@Z
	??$?0W4llm_tensor@@AEAY0BK@$$CBD$0A@@?$pair@$$CBW4llm_tensor@@V?$basic_string@DU?$char_traits@D@std@@V?$allocator@D@2@@std@@@std@@QEAA@$$QEAW4llm_tensor@@AEAY0BK@$$CBD@Z
	??$?0W4llm_tensor@@AEAY0BL@$$CBD$0A@@?$pair@$$CBW4llm_tensor@@V?$basic_string@DU?$char_traits@D@std@@V?$allocator@D@2@@std@@@std@@QEAA@$$QEAW4llm_tensor@@AEAY0BL@$$CBD@Z
	??$?0W4llm_tensor@@AEAY0BM@$$CBD$0A@@?$pair@$$CBW4llm_tensor@@V?$basic_string@DU?$char_traits@D@std@@V?$allocator@D@2@@std@@@std@@QEAA@$$QEAW4llm_tensor@@AEAY0BM@$$CBD@Z
	??$?0W4llm_tensor@@AEAY0L@$$CBD$0A@@?$pair@$$CBW4llm_tensor@@V?$basic_string@DU?$char_traits@D@std@@V?$allocator@D@2@@std@@@std@@QEAA@$$QEAW4llm_tensor@@AEAY0L@$$CBD@Z
	??$?0W4llm_tensor@@AEAY0M@$$CBD$0A@@?$pair@$$CBW4llm_tensor@@V?$basic_string@DU?$char_traits@D@std@@V?$allocator@D@2@@std@@@std@@QEAA@$$QEAW4llm_tensor@@AEAY0M@$$CBD@Z
	??$?0W4llm_tensor@@AEAY0N@$$CBD$0A@@?$pair@$$CBW4llm_tensor@@V?$basic_string@DU?$char_traits@D@std@@V?$allocator@D@2@@std@@@std@@QEAA@$$QEAW4llm_tensor@@AEAY0N@$$CBD@Z
	??$?0W4llm_tensor@@AEAY0O@$$CBD$0A@@?$pair@$$CBW4llm_tensor@@V?$basic_string@DU?$char_traits@D@std@@V?$allocator@D@2@@std@@@std@@QEAA@$$QEAW4llm_tensor@@AEAY0O@$$CBD@Z
	??$?0W4llm_tensor@@AEAY0P@$$CBD$0A@@?$pair@$$CBW4llm_tensor@@V?$basic_string@DU?$char_traits@D@std@@V?$allocator@D@2@@std@@@std@@QEAA@$$QEAW4llm_tensor@@AEAY0P@$$CBD@Z
	??$?0_J@?$allocator@U_Container_proxy@std@@@std@@QEAA@AEBV?$allocator@_J@1@@Z
	??$?0_K@?$allocator@U_Container_proxy@std@@@std@@QEAA@AEBV?$allocator@_K@1@@Z
	??$?0_N@?$allocator@I@std@@QEAA@AEBV?$allocator@_N@1@@Z
	??$?0_NAEAPEBUllama_grammar_element@@$0A@@?$pair@_NPEBUllama_grammar_element@@@std@@QEAA@$$QEA_NAEAPEBUllama_grammar_element@@@Z
	??$?0_W@?$allocator@U_Container_proxy@std@@@std@@QEAA@AEBV?$allocator@_W@1@@Z
	??$?4U?$pair@HH@std@@$0A@@?$pair@HH@std@@QEAAAEAU01@$$QEAU01@@Z
	??$?4U?$pair@PEAUggml_tensor@@_N@std@@$0A@@?$pair@PEAUggml_tensor@@_N@std@@QEAAAEAU01@$$QEAU01@@Z
	??$?5DU?$char_traits@D@std@@@std@@YAAEAV?$basic_istream@DU?$char_traits@D@std@@@0@AEAV10@AEAV?$mersenne_twister@I$0CA@$0CHA@$0BIN@$0BP@$0JJAILANP@$0L@$06$0JNCMFGIA@$0P@$0OPMGAAAA@$0BC@@0@@Z
	??$?5DU?$char_traits@D@std@@@std@@YAAEAV?$basic_istream@DU?$char_traits@D@std@@@0@AEAV10@AEAV?$mersenne_twister_engine@I$0CA@$0CHA@$0BIN@$0BP@$0JJAILANP@$0L@$0PPPPPPPP@$06$0JNCMFGIA@$0P@$0OPMGAAAA@$0BC@$0GMAHIJGF@@0@@Z
	??$?6DU?$char_traits@D@std@@@std@@YAAEAV?$basic_ostream@DU?$char_traits@D@std@@@0@AEAV10@AEBV?$mersenne_twister@I$0CA@$0CHA@$0BIN@$0BP@$0JJAILANP@$0L@$06$0JNCMFGIA@$0P@$0OPMGAAAA@$0BC@@0@@Z
	??$?6DU?$char_traits@D@std@@@std@@YAAEAV?$basic_ostream@DU?$char_traits@D@std@@@0@AEAV10@AEBV?$mersenne_twister_engine@I$0CA@$0CHA@$0BIN@$0BP@$0JJAILANP@$0L@$0PPPPPPPP@$06$0JNCMFGIA@$0P@$0OPMGAAAA@$0BC@$0GMAHIJGF@@0@@Z
	??$?6DU?$char_traits@D@std@@V?$allocator@D@1@@std@@YAAEAV?$basic_ostream@DU?$char_traits@D@std@@@0@AEAV10@AEBV?$basic_string@DU?$char_traits@D@std@@V?$allocator@D@2@@0@@Z
	??$?6U?$char_traits@D@std@@@std@@YAAEAV?$basic_ostream@DU?$char_traits@D@std@@@0@AEAV10@D@Z
	??$?6U?$char_traits@D@std@@@std@@YAAEAV?$basic_ostream@DU?$char_traits@D@std@@@0@AEAV10@PEBD@Z
	??$?8DU?$char_traits@D@std@@V?$allocator@D@1@@std@@YA_NAEBV?$basic_string@DU?$char_traits@D@std@@V?$allocator@D@2@@0@0@Z
	??$?8DU?$char_traits@D@std@@V?$allocator@D@1@@std@@YA_NAEBV?$basic_string@DU?$char_traits@D@std@@V?$allocator@D@2@@0@QEBD@Z
	??$?8DU?$char_traits@D@std@@V?$allocator@D@1@@std@@YA_NQEBDAEBV?$basic_string@DU?$char_traits@D@std@@V?$allocator@D@2@@0@@Z
	??$?8PEBD@std@@YA_NAEBV?$sub_match@PEBD@0@0@Z
	??$?8PEBUllama_grammar_element@@V?$allocator@PEBUllama_grammar_element@@@std@@@std@@YA_NAEBV?$vector@PEBUllama_grammar_element@@V?$allocator@PEBUllama_grammar_element@@@std@@@0@0@Z
	??$?8PEB_W@std@@YA_NAEBV?$sub_match@PEB_W@0@0@Z
	??$?8U?$_Tree_node@HPEAX@std@@U01@@std@@YA_NAEBV?$allocator@U?$_Tree_node@HPEAX@std@@@0@0@Z
	??$?8V?$basic_string@DU?$char_traits@D@std@@V?$allocator@D@2@@std@@V01@@std@@YA_NAEBV?$allocator@V?$basic_string@DU?$char_traits@D@std@@V?$allocator@D@2@@std@@@0@0@Z
	??$?8_WU?$char_traits@_W@std@@V?$allocator@_W@1@@std@@YA_NAEBV?$basic_string@_WU?$char_traits@_W@std@@V?$allocator@_W@2@@0@0@Z
	??$?9DU?$char_traits@D@std@@V?$allocator@D@1@@std@@YA_NAEBV?$basic_string@DU?$char_traits@D@std@@V?$allocator@D@2@@0@0@Z
	??$?9DU?$char_traits@D@std@@V?$allocator@D@1@@std@@YA_NAEBV?$basic_string@DU?$char_traits@D@std@@V?$allocator@D@2@@0@QEBD@Z
	??$?9U_Task_impl_base@details@Concurrency@@@std@@YA_NAEBV?$shared_ptr@U_Task_impl_base@details@Concurrency@@@0@$$T@Z
	??$?CU?$_Task_impl@E@details@Concurrency@@$0A@@?$shared_ptr@U?$_Task_impl@E@details@Concurrency@@@std@@QEBAPEAU?$_Task_impl@E@details@Concurrency@@XZ
	??$?CU_ExceptionHolder@details@Concurrency@@$0A@@?$shared_ptr@U_ExceptionHolder@details@Concurrency@@@std@@QEBAPEAU_ExceptionHolder@details@Concurrency@@XZ
	??$?CU_Task_impl_base@details@Concurrency@@$0A@@?$shared_ptr@U_Task_impl_base@details@Concurrency@@@std@@QEBAPEAU_Task_impl_base@details@Concurrency@@XZ
	??$?CUscheduler_interface@Concurrency@@$0A@@?$shared_ptr@Uscheduler_interface@Concurrency@@@std@@QEBAPEAUscheduler_interface@Concurrency@@XZ
	??$?HDU?$char_traits@D@std@@V?$allocator@D@1@@std@@YA?AV?$basic_string@DU?$char_traits@D@std@@V?$allocator@D@2@@0@$$QEAV10@AEBV10@@Z
	??$?HDU?$char_traits@D@std@@V?$allocator@D@1@@std@@YA?AV?$basic_string@DU?$char_traits@D@std@@V?$allocator@D@2@@0@$$QEAV10@QEBD@Z
	??$?HDU?$char_traits@D@std@@V?$allocator@D@1@@std@@YA?AV?$basic_string@DU?$char_traits@D@std@@V?$allocator@D@2@@0@AEBV10@0@Z
	??$?HDU?$char_traits@D@std@@V?$allocator@D@1@@std@@YA?AV?$basic_string@DU?$char_traits@D@std@@V?$allocator@D@2@@0@AEBV10@QEBD@Z
	??$?HDU?$char_traits@D@std@@V?$allocator@D@1@@std@@YA?AV?$basic_string@DU?$char_traits@D@std@@V?$allocator@D@2@@0@QEBD$$QEAV10@@Z
	??$?HDU?$char_traits@D@std@@V?$allocator@D@1@@std@@YA?AV?$basic_string@DU?$char_traits@D@std@@V?$allocator@D@2@@0@QEBDAEBV10@@Z
	??$?MDU?$char_traits@D@std@@V?$allocator@D@1@@std@@YA_NAEBV?$basic_string@DU?$char_traits@D@std@@V?$allocator@D@2@@0@0@Z
	??$?MV?$basic_string@DU?$char_traits@D@std@@V?$allocator@D@2@@std@@V01@V01@V01@@std@@YA_NAEBU?$pair@V?$basic_string@DU?$char_traits@D@std@@V?$allocator@D@2@@std@@V12@@0@0@Z
	??$?RAEAMAEAM@?$less@X@std@@QEBA_NAEAM0@Z
	??$?RAEAMAEAM@?$plus@X@std@@QEBAMAEAM0@Z
	??$?RAEBMAEAM@?$less@X@std@@QEBA_NAEBMAEAM@Z
	??$?RAEBNAEBN@?$less@X@std@@QEBA_NAEBN0@Z
	??$?RAEBQEBUllama_grammar_element@@AEBQEBU0@@?$equal_to@X@std@@QEBA_NAEBQEBUllama_grammar_element@@0@Z
	??$?RE@?$_Uhash_compare@EU?$hash@E@std@@U?$equal_to@E@2@@std@@QEBA_KAEBE@Z
	??$?REE@?$_Uhash_compare@EU?$hash@E@std@@U?$equal_to@E@2@@std@@QEBA_NAEBE0@Z
	??$?RH@?$_Uhash_compare@HU?$hash@H@std@@U?$equal_to@H@2@@std@@QEBA_KAEBH@Z
	??$?RHH@?$_Uhash_compare@HU?$hash@H@std@@U?$equal_to@H@2@@std@@QEBA_NAEBH0@Z
	??$?RI@?$_Uhash_compare@IU?$hash@I@std@@U?$equal_to@I@2@@std@@QEBA_KAEBI@Z
	??$?RII@?$_Uhash_compare@IU?$hash@I@std@@U?$equal_to@I@2@@std@@QEBA_NAEBI0@Z
	??$?RPEAUllama_lora_adapter@@@?$_Uhash_compare@PEAUllama_lora_adapter@@U?$hash@PEAUllama_lora_adapter@@@std@@U?$equal_to@PEAUllama_lora_adapter@@@3@@std@@QEBA_KAEBQEAUllama_lora_adapter@@@Z
	??$?RPEAUllama_lora_adapter@@PEAU0@@?$_Uhash_compare@PEAUllama_lora_adapter@@U?$hash@PEAUllama_lora_adapter@@@std@@U?$equal_to@PEAUllama_lora_adapter@@@3@@std@@QEBA_NAEBQEAUllama_lora_adapter@@0@Z
	??$?RV?$basic_string@DU?$char_traits@D@std@@V?$allocator@D@2@@std@@@?$_Uhash_compare@V?$basic_string@DU?$char_traits@D@std@@V?$allocator@D@2@@std@@U?$hash@V?$basic_string@DU?$char_traits@D@std@@V?$allocator@D@2@@std@@@2@U?$equal_to@V?$basic_string@DU?$char_traits@D@std@@V?$allocator@D@2@@std@@@2@@std@@QEBA_KAEBV?$basic_string@DU?$char_traits@D@std@@V?$allocator@D@2@@1@@Z
	??$?RV?$basic_string@DU?$char_traits@D@std@@V?$allocator@D@2@@std@@V01@@?$_Uhash_compare@V?$basic_string@DU?$char_traits@D@std@@V?$allocator@D@2@@std@@U?$hash@V?$basic_string@DU?$char_traits@D@std@@V?$allocator@D@2@@std@@@2@U?$equal_to@V?$basic_string@DU?$char_traits@D@std@@V?$allocator@D@2@@std@@@2@@std@@QEBA_NAEBV?$basic_string@DU?$char_traits@D@std@@V?$allocator@D@2@@1@0@Z
	??$?RV?$mersenne_twister_engine@I$0CA@$0CHA@$0BIN@$0BP@$0JJAILANP@$0L@$0PPPPPPPP@$06$0JNCMFGIA@$0P@$0OPMGAAAA@$0BC@$0GMAHIJGF@@std@@@?$discrete_distribution@H@std@@QEAAHAEAV?$mersenne_twister_engine@I$0CA@$0CHA@$0BIN@$0BP@$0JJAILANP@$0L@$0PPPPPPPP@$06$0JNCMFGIA@$0P@$0OPMGAAAA@$0BC@$0GMAHIJGF@@1@@Z
	??$_Adl_verify_range@PEADPEAD@std@@YAXAEBQEAD0@Z
	??$_Adl_verify_range@PEAHPEAH@std@@YAXAEBQEAH0@Z
	??$_Adl_verify_range@PEAMPEAM@std@@YAXAEBQEAM0@Z
	??$_Adl_verify_range@PEANPEAN@std@@YAXAEBQEAN0@Z
	??$_Adl_verify_range@PEAUllama_token_data@@PEAU1@@std@@YAXAEBQEAUllama_token_data@@0@Z
	??$_Adl_verify_range@PEAV?$_List_unchecked_const_iterator@V?$_List_val@U?$_List_simple_types@I@std@@@std@@U_Iterator_base0@2@@std@@PEAV12@@std@@YAXAEBQEAV?$_List_unchecked_const_iterator@V?$_List_val@U?$_List_simple_types@I@std@@@std@@U_Iterator_base0@2@@0@0@Z
	??$_Adl_verify_range@PEAV?$_List_unchecked_iterator@V?$_List_val@U?$_List_simple_types@U?$pair@$$CBEV?$basic_string@DU?$char_traits@D@std@@V?$allocator@D@2@@std@@@std@@@std@@@std@@@std@@PEAV12@@std@@YAXAEBQEAV?$_List_unchecked_iterator@V?$_List_val@U?$_List_simple_types@U?$pair@$$CBEV?$basic_string@DU?$char_traits@D@std@@V?$allocator@D@2@@std@@@std@@@std@@@std@@@0@0@Z
	??$_Adl_verify_range@PEAV?$_List_unchecked_iterator@V?$_List_val@U?$_List_simple_types@U?$pair@$$CBHH@std@@@std@@@std@@@std@@PEAV12@@std@@YAXAEBQEAV?$_List_unchecked_iterator@V?$_List_val@U?$_List_simple_types@U?$pair@$$CBHH@std@@@std@@@std@@@0@0@Z
	??$_Adl_verify_range@PEAV?$_List_unchecked_iterator@V?$_List_val@U?$_List_simple_types@U?$pair@$$CBII@std@@@std@@@std@@@std@@PEAV12@@std@@YAXAEBQEAV?$_List_unchecked_iterator@V?$_List_val@U?$_List_simple_types@U?$pair@$$CBII@std@@@std@@@std@@@0@0@Z
	??$_Adl_verify_range@PEAV?$_List_unchecked_iterator@V?$_List_val@U?$_List_simple_types@U?$pair@$$CBIPEAUggml_backend_buffer@@@std@@@std@@@std@@@std@@PEAV12@@std@@YAXAEBQEAV?$_List_unchecked_iterator@V?$_List_val@U?$_List_simple_types@U?$pair@$$CBIPEAUggml_backend_buffer@@@std@@@std@@@std@@@0@0@Z
	??$_Adl_verify_range@PEAV?$_List_unchecked_iterator@V?$_List_val@U?$_List_simple_types@U?$pair@$$CBV?$basic_string@DU?$char_traits@D@std@@V?$allocator@D@2@@std@@E@std@@@std@@@std@@@std@@PEAV12@@std@@YAXAEBQEAV?$_List_unchecked_iterator@V?$_List_val@U?$_List_simple_types@U?$pair@$$CBV?$basic_string@DU?$char_traits@D@std@@V?$allocator@D@2@@std@@E@std@@@std@@@std@@@0@0@Z
	??$_Adl_verify_range@PEAV?$_List_unchecked_iterator@V?$_List_val@U?$_List_simple_types@U?$pair@$$CBV?$basic_string@DU?$char_traits@D@std@@V?$allocator@D@2@@std@@H@std@@@std@@@std@@@std@@PEAV12@@std@@YAXAEBQEAV?$_List_unchecked_iterator@V?$_List_val@U?$_List_simple_types@U?$pair@$$CBV?$basic_string@DU?$char_traits@D@std@@V?$allocator@D@2@@std@@H@std@@@std@@@std@@@0@0@Z
	??$_Adl_verify_range@PEAV?$_List_unchecked_iterator@V?$_List_val@U?$_List_simple_types@U?$pair@$$CBV?$basic_string@DU?$char_traits@D@std@@V?$allocator@D@2@@std@@Ullama_lora_weight@@@std@@@std@@@std@@@std@@PEAV12@@std@@YAXAEBQEAV?$_List_unchecked_iterator@V?$_List_val@U?$_List_simple_types@U?$pair@$$CBV?$basic_string@DU?$char_traits@D@std@@V?$allocator@D@2@@std@@Ullama_lora_weight@@@std@@@std@@@std@@@0@0@Z
	??$_Adl_verify_range@PEAV?$_List_unchecked_iterator@V?$_List_val@U?$_List_simple_types@U?$pair@$$CBV?$basic_string@DU?$char_traits@D@std@@V?$allocator@D@2@@std@@Ullama_model_kv_override@@@std@@@std@@@std@@@std@@PEAV12@@std@@YAXAEBQEAV?$_List_unchecked_iterator@V?$_List_val@U?$_List_simple_types@U?$pair@$$CBV?$basic_string@DU?$char_traits@D@std@@V?$allocator@D@2@@std@@Ullama_model_kv_override@@@std@@@std@@@std@@@0@0@Z
	??$_Adl_verify_range@PEAV?$_List_unchecked_iterator@V?$_List_val@U?$_List_simple_types@U?$pair@$$CBV?$basic_string@DU?$char_traits@D@std@@V?$allocator@D@2@@std@@V12@@std@@@std@@@std@@@std@@PEAV12@@std@@YAXAEBQEAV?$_List_unchecked_iterator@V?$_List_val@U?$_List_simple_types@U?$pair@$$CBV?$basic_string@DU?$char_traits@D@std@@V?$allocator@D@2@@std@@V12@@std@@@std@@@std@@@0@0@Z
	??$_Adl_verify_range@PEAV?$_List_unchecked_iterator@V?$_List_val@U?$_List_simple_types@U?$pair@QEAUllama_lora_adapter@@M@std@@@std@@@std@@@std@@PEAV12@@std@@YAXAEBQEAV?$_List_unchecked_iterator@V?$_List_val@U?$_List_simple_types@U?$pair@QEAUllama_lora_adapter@@M@std@@@std@@@std@@@0@0@Z
	??$_Adl_verify_range@PEA_WPEA_W@std@@YAXAEBQEA_W0@Z
	??$_Adl_verify_range@PEBDPEBD@std@@YAXAEBQEBD0@Z
	??$_Adl_verify_range@PEBIPEBI@std@@YAXAEBQEBI0@Z
	??$_Adl_verify_range@PEBMPEBM@std@@YAXAEBQEBM0@Z
	??$_Adl_verify_range@PEBQEBUllama_grammar_element@@PEBQEBU1@@std@@YAXAEBQEBQEBUllama_grammar_element@@0@Z
	??$_Adl_verify_range@PEB_WPEB_W@std@@YAXAEBQEB_W0@Z
	??$_Adl_verify_range@V?$_Array_iterator@I$0CAA@@std@@V12@@std@@YAXAEBV?$_Array_iterator@I$0CAA@@0@0@Z
	??$_Adl_verify_range@V?$_Flist_iterator@V?$_Flist_val@U?$_Flist_simple_types@Ufragment_buffer_variant@@@std@@@std@@@std@@V12@@std@@YAXAEBV?$_Flist_iterator@V?$_Flist_val@U?$_Flist_simple_types@Ufragment_buffer_variant@@@std@@@std@@@0@0@Z
	??$_Adl_verify_range@V?$_String_iterator@V?$_String_val@U?$_Simple_types@D@std@@@std@@@std@@V12@@std@@YAXAEBV?$_String_iterator@V?$_String_val@U?$_Simple_types@D@std@@@std@@@0@0@Z
	??$_Adl_verify_range@V?$_String_iterator@V?$_String_val@U?$_Simple_types@_W@std@@@std@@@std@@V12@@std@@YAXAEBV?$_String_iterator@V?$_String_val@U?$_Simple_types@_W@std@@@std@@@0@0@Z
	??$_Adl_verify_range@V?$_Tree_unchecked_const_iterator@V?$_Tree_val@U?$_Tree_simple_types@H@std@@@std@@U_Iterator_base0@2@@std@@V12@@std@@YAXAEBV?$_Tree_unchecked_const_iterator@V?$_Tree_val@U?$_Tree_simple_types@H@std@@@std@@U_Iterator_base0@2@@0@0@Z
	??$_Adl_verify_range@V?$_Vb_iterator@U?$_Wrap_alloc@V?$allocator@I@std@@@std@@@std@@V12@@std@@YAXAEBV?$_Vb_iterator@U?$_Wrap_alloc@V?$allocator@I@std@@@std@@@0@0@Z
	??$_Adl_verify_range@V?$_Vector_const_iterator@V?$_Vector_val@U?$_Simple_types@I@std@@@std@@@std@@V12@@std@@YAXAEBV?$_Vector_const_iterator@V?$_Vector_val@U?$_Simple_types@I@std@@@std@@@0@0@Z
	??$_Adl_verify_range@V?$_Vector_const_iterator@V?$_Vector_val@U?$_Simple_types@N@std@@@std@@@std@@V12@@std@@YAXAEBV?$_Vector_const_iterator@V?$_Vector_val@U?$_Simple_types@N@std@@@std@@@0@0@Z
	??$_Adl_verify_range@V?$_Vector_const_iterator@V?$_Vector_val@U?$_Simple_types@PEBUllama_grammar_element@@@std@@@std@@@std@@V12@@std@@YAXAEBV?$_Vector_const_iterator@V?$_Vector_val@U?$_Simple_types@PEBUllama_grammar_element@@@std@@@std@@@0@0@Z
	??$_Adl_verify_range@V?$_Vector_const_iterator@V?$_Vector_val@U?$_Simple_types@Urange_nfd@@@std@@@std@@@std@@V12@@std@@YAXAEBV?$_Vector_const_iterator@V?$_Vector_val@U?$_Simple_types@Urange_nfd@@@std@@@std@@@0@0@Z
	??$_Adl_verify_range@V?$_Vector_iterator@V?$_Vector_val@U?$_Simple_types@H@std@@@std@@@std@@V12@@std@@YAXAEBV?$_Vector_iterator@V?$_Vector_val@U?$_Simple_types@H@std@@@std@@@0@0@Z
	??$_Adl_verify_range@V?$_Vector_iterator@V?$_Vector_val@U?$_Simple_types@M@std@@@std@@@std@@V12@@std@@YAXAEBV?$_Vector_iterator@V?$_Vector_val@U?$_Simple_types@M@std@@@std@@@0@0@Z
	??$_Adl_verify_range@V?$_Vector_iterator@V?$_Vector_val@U?$_Simple_types@U?$pair@V?$basic_string@DU?$char_traits@D@std@@V?$allocator@D@2@@std@@PEAUggml_tensor@@@std@@@std@@@std@@@std@@V12@@std@@YAXAEBV?$_Vector_iterator@V?$_Vector_val@U?$_Simple_types@U?$pair@V?$basic_string@DU?$char_traits@D@std@@V?$allocator@D@2@@std@@PEAUggml_tensor@@@std@@@std@@@std@@@0@0@Z
	??$_Adl_verify_range@V?$_Vector_iterator@V?$_Vector_val@U?$_Simple_types@Ullama_sbatch_seq@@@std@@@std@@@std@@V12@@std@@YAXAEBV?$_Vector_iterator@V?$_Vector_val@U?$_Simple_types@Ullama_sbatch_seq@@@std@@@std@@@0@0@Z
	??$_Adl_verify_range@V?$_Vector_iterator@V?$_Vector_val@U?$_Simple_types@Ullama_token_data@@@std@@@std@@@std@@V12@@std@@YAXAEBV?$_Vector_iterator@V?$_Vector_val@U?$_Simple_types@Ullama_token_data@@@std@@@std@@@0@0@Z
	??$_Adl_verify_range@V?$_Vector_iterator@V?$_Vector_val@U?$_Simple_types@Ullm_bigram_bpe@@@std@@@std@@@std@@V12@@std@@YAXAEBV?$_Vector_iterator@V?$_Vector_val@U?$_Simple_types@Ullm_bigram_bpe@@@std@@@std@@@0@0@Z
	??$_Adl_verify_range@V?$_Vector_iterator@V?$_Vector_val@U?$_Simple_types@Ullm_bigram_spm@@@std@@@std@@@std@@V12@@std@@YAXAEBV?$_Vector_iterator@V?$_Vector_val@U?$_Simple_types@Ullm_bigram_spm@@@std@@@std@@@0@0@Z
	??$_Adl_verify_range@V?$_Vector_iterator@V?$_Vector_val@U?$_Simple_types@V?$vector@PEBUllama_grammar_element@@V?$allocator@PEBUllama_grammar_element@@@std@@@std@@@std@@@std@@@std@@V12@@std@@YAXAEBV?$_Vector_iterator@V?$_Vector_val@U?$_Simple_types@V?$vector@PEBUllama_grammar_element@@V?$allocator@PEBUllama_grammar_element@@@std@@@std@@@std@@@std@@@0@0@Z
	??$_Adl_verify_range@V?$_Vector_iterator@V?$_Vector_val@U?$_Simple_types@_K@std@@@std@@@std@@V12@@std@@YAXAEBV?$_Vector_iterator@V?$_Vector_val@U?$_Simple_types@_K@std@@@std@@@0@0@Z
	??$_Alloc_proxy@V?$allocator@U_Container_proxy@std@@@std@@@_Container_base12@std@@QEAAX$$QEAV?$allocator@U_Container_proxy@std@@@1@@Z
	??$_Allocate@$0BA@U_Default_allocate_traits@std@@@std@@YAPEAX_K@Z
	??$_Allocate_at_least_helper@V?$allocator@C@std@@@std@@YAPEACAEAV?$allocator@C@0@AEA_K@Z
	??$_Allocate_at_least_helper@V?$allocator@D@std@@@std@@YAPEADAEAV?$allocator@D@0@AEA_K@Z
	??$_Allocate_at_least_helper@V?$allocator@E@std@@@std@@YAPEAEAEAV?$allocator@E@0@AEA_K@Z
	??$_Allocate_at_least_helper@V?$allocator@H@std@@@std@@YAPEAHAEAV?$allocator@H@0@AEA_K@Z
	??$_Allocate_at_least_helper@V?$allocator@I@std@@@std@@YAPEAIAEAV?$allocator@I@0@AEA_K@Z
	??$_Allocate_at_least_helper@V?$allocator@M@std@@@std@@YAPEAMAEAV?$allocator@M@0@AEA_K@Z
	??$_Allocate_at_least_helper@V?$allocator@N@std@@@std@@YAPEANAEAV?$allocator@N@0@AEA_K@Z
	??$_Allocate_at_least_helper@V?$allocator@PEAH@std@@@std@@YAPEAPEAHAEAV?$allocator@PEAH@0@AEA_K@Z
	??$_Allocate_at_least_helper@V?$allocator@PEAUggml_backend@@@std@@@std@@YAPEAPEAUggml_backend@@AEAV?$allocator@PEAUggml_backend@@@0@AEA_K@Z
	??$_Allocate_at_least_helper@V?$allocator@PEAUggml_backend_buffer@@@std@@@std@@YAPEAPEAUggml_backend_buffer@@AEAV?$allocator@PEAUggml_backend_buffer@@@0@AEA_K@Z
	??$_Allocate_at_least_helper@V?$allocator@PEAUggml_backend_buffer_type@@@std@@@std@@YAPEAPEAUggml_backend_buffer_type@@AEAV?$allocator@PEAUggml_backend_buffer_type@@@0@AEA_K@Z
	??$_Allocate_at_least_helper@V?$allocator@PEAUggml_context@@@std@@@std@@YAPEAPEAUggml_context@@AEAV?$allocator@PEAUggml_context@@@0@AEA_K@Z
	??$_Allocate_at_least_helper@V?$allocator@PEAUggml_tensor@@@std@@@std@@YAPEAPEAUggml_tensor@@AEAV?$allocator@PEAUggml_tensor@@@0@AEA_K@Z
	??$_Allocate_at_least_helper@V?$allocator@PEAUgguf_context@@@std@@@std@@YAPEAPEAUgguf_context@@AEAV?$allocator@PEAUgguf_context@@@0@AEA_K@Z
	??$_Allocate_at_least_helper@V?$allocator@PEAUllama_token_data@@@std@@@std@@YAPEAPEAUllama_token_data@@AEAV?$allocator@PEAUllama_token_data@@@0@AEA_K@Z
	??$_Allocate_at_least_helper@V?$allocator@PEAX@std@@@std@@YAPEAPEAXAEAV?$allocator@PEAX@0@AEA_K@Z
	??$_Allocate_at_least_helper@V?$allocator@PEBUllama_chat_message@@@std@@@std@@YAPEAPEBUllama_chat_message@@AEAV?$allocator@PEBUllama_chat_message@@@0@AEA_K@Z
	??$_Allocate_at_least_helper@V?$allocator@PEBUllama_grammar_element@@@std@@@std@@YAPEAPEBUllama_grammar_element@@AEAV?$allocator@PEBUllama_grammar_element@@@0@AEA_K@Z
	??$_Allocate_at_least_helper@V?$allocator@U?$no_init@E@@@std@@@std@@YAPEAU?$no_init@E@@AEAV?$allocator@U?$no_init@E@@@0@AEA_K@Z
	??$_Allocate_at_least_helper@V?$allocator@U?$no_init@M@@@std@@@std@@YAPEAU?$no_init@M@@AEAV?$allocator@U?$no_init@M@@@0@AEA_K@Z
	??$_Allocate_at_least_helper@V?$allocator@U?$pair@IG@std@@@std@@@std@@YAPEAU?$pair@IG@0@AEAV?$allocator@U?$pair@IG@std@@@0@AEA_K@Z
	??$_Allocate_at_least_helper@V?$allocator@U?$pair@II@std@@@std@@@std@@YAPEAU?$pair@II@0@AEAV?$allocator@U?$pair@II@std@@@0@AEA_K@Z
	??$_Allocate_at_least_helper@V?$allocator@U?$pair@PEAUggml_context@@V?$unordered_map@IPEAUggml_backend_buffer@@U?$hash@I@std@@U?$equal_to@I@3@V?$allocator@U?$pair@$$CBIPEAUggml_backend_buffer@@@std@@@3@@std@@@std@@@std@@@std@@YAPEAU?$pair@PEAUggml_context@@V?$unordered_map@IPEAUggml_backend_buffer@@U?$hash@I@std@@U?$equal_to@I@3@V?$allocator@U?$pair@$$CBIPEAUggml_backend_buffer@@@std@@@3@@std@@@0@AEAV?$allocator@U?$pair@PEAUggml_context@@V?$unordered_map@IPEAUggml_backend_buffer@@U?$hash@I@std@@U?$equal_to@I@3@V?$allocator@U?$pair@$$CBIPEAUggml_backend_buffer@@@std@@@3@@std@@@std@@@0@AEA_K@Z
	??$_Allocate_at_least_helper@V?$allocator@U?$pair@V?$basic_string@DU?$char_traits@D@std@@V?$allocator@D@2@@std@@PEAUggml_tensor@@@std@@@std@@@std@@YAPEAU?$pair@V?$basic_string@DU?$char_traits@D@std@@V?$allocator@D@2@@std@@PEAUggml_tensor@@@0@AEAV?$allocator@U?$pair@V?$basic_string@DU?$char_traits@D@std@@V?$allocator@D@2@@std@@PEAUggml_tensor@@@std@@@0@AEA_K@Z
	??$_Allocate_at_least_helper@V?$allocator@U?$pair@V?$vector@IV?$allocator@I@std@@@std@@Ullama_partial_utf8@@@std@@@std@@@std@@YAPEAU?$pair@V?$vector@IV?$allocator@I@std@@@std@@Ullama_partial_utf8@@@0@AEAV?$allocator@U?$pair@V?$vector@IV?$allocator@I@std@@@std@@Ullama_partial_utf8@@@std@@@0@AEA_K@Z
	??$_Allocate_at_least_helper@V?$allocator@U?$pair@W4llm_kv@@AEAH@std@@@std@@@std@@YAPEAU?$pair@W4llm_kv@@AEAH@0@AEAV?$allocator@U?$pair@W4llm_kv@@AEAH@std@@@0@AEA_K@Z
	??$_Allocate_at_least_helper@V?$allocator@U?$pair@_K_K@std@@@std@@@std@@YAPEAU?$pair@_K_K@0@AEAV?$allocator@U?$pair@_K_K@std@@@0@AEA_K@Z
	??$_Allocate_at_least_helper@V?$allocator@U_Grp_t@?$_Tgt_state_t@PEBD@std@@@std@@@std@@YAPEAU_Grp_t@?$_Tgt_state_t@PEBD@0@AEAV?$allocator@U_Grp_t@?$_Tgt_state_t@PEBD@std@@@0@AEA_K@Z
	??$_Allocate_at_least_helper@V?$allocator@U_Grp_t@?$_Tgt_state_t@PEB_W@std@@@std@@@std@@YAPEAU_Grp_t@?$_Tgt_state_t@PEB_W@0@AEAV?$allocator@U_Grp_t@?$_Tgt_state_t@PEB_W@std@@@0@AEA_K@Z
	??$_Allocate_at_least_helper@V?$allocator@U_Loop_vals_t@std@@@std@@@std@@YAPEAU_Loop_vals_t@0@AEAV?$allocator@U_Loop_vals_t@std@@@0@AEA_K@Z
	??$_Allocate_at_least_helper@V?$allocator@Ubest_tokenization@llm_tokenizer_ugm@@@std@@@std@@YAPEAUbest_tokenization@llm_tokenizer_ugm@@AEAV?$allocator@Ubest_tokenization@llm_tokenizer_ugm@@@0@AEA_K@Z
	??$_Allocate_at_least_helper@V?$allocator@Ucodepoint_flags@@@std@@@std@@YAPEAUcodepoint_flags@@AEAV?$allocator@Ucodepoint_flags@@@0@AEA_K@Z
	??$_Allocate_at_least_helper@V?$allocator@Ulayer_buft@llama_model@@@std@@@std@@YAPEAUlayer_buft@llama_model@@AEAV?$allocator@Ulayer_buft@llama_model@@@0@AEA_K@Z
	??$_Allocate_at_least_helper@V?$allocator@Ullama_grammar_candidate@@@std@@@std@@YAPEAUllama_grammar_candidate@@AEAV?$allocator@Ullama_grammar_candidate@@@0@AEA_K@Z
	??$_Allocate_at_least_helper@V?$allocator@Ullama_grammar_element@@@std@@@std@@YAPEAUllama_grammar_element@@AEAV?$allocator@Ullama_grammar_element@@@0@AEA_K@Z
	??$_Allocate_at_least_helper@V?$allocator@Ullama_kv_cell@@@std@@@std@@YAPEAUllama_kv_cell@@AEAV?$allocator@Ullama_kv_cell@@@0@AEA_K@Z
	??$_Allocate_at_least_helper@V?$allocator@Ullama_layer@@@std@@@std@@YAPEAUllama_layer@@AEAV?$allocator@Ullama_layer@@@0@AEA_K@Z
	??$_Allocate_at_least_helper@V?$allocator@Ullama_sbatch_seq@@@std@@@std@@YAPEAUllama_sbatch_seq@@AEAV?$allocator@Ullama_sbatch_seq@@@0@AEA_K@Z
	??$_Allocate_at_least_helper@V?$allocator@Ullama_tensor_weight@llama_model_loader@@@std@@@std@@YAPEAUllama_tensor_weight@llama_model_loader@@AEAV?$allocator@Ullama_tensor_weight@llama_model_loader@@@0@AEA_K@Z
	??$_Allocate_at_least_helper@V?$allocator@Ullama_token_data@@@std@@@std@@YAPEAUllama_token_data@@AEAV?$allocator@Ullama_token_data@@@0@AEA_K@Z
	??$_Allocate_at_least_helper@V?$allocator@Ullm_bigram_bpe@@@std@@@std@@YAPEAUllm_bigram_bpe@@AEAV?$allocator@Ullm_bigram_bpe@@@0@AEA_K@Z
	??$_Allocate_at_least_helper@V?$allocator@Ullm_bigram_spm@@@std@@@std@@YAPEAUllm_bigram_spm@@AEAV?$allocator@Ullm_bigram_spm@@@0@AEA_K@Z
	??$_Allocate_at_least_helper@V?$allocator@Ullm_symbol@@@std@@@std@@YAPEAUllm_symbol@@AEAV?$allocator@Ullm_symbol@@@0@AEA_K@Z
	??$_Allocate_at_least_helper@V?$allocator@Urange_nfd@@@std@@@std@@YAPEAUrange_nfd@@AEAV?$allocator@Urange_nfd@@@0@AEA_K@Z
	??$_Allocate_at_least_helper@V?$allocator@Utoken_data@llama_vocab@@@std@@@std@@YAPEAUtoken_data@llama_vocab@@AEAV?$allocator@Utoken_data@llama_vocab@@@0@AEA_K@Z
	??$_Allocate_at_least_helper@V?$allocator@V?$basic_string@DU?$char_traits@D@std@@V?$allocator@D@2@@std@@@std@@@std@@YAPEAV?$basic_string@DU?$char_traits@D@std@@V?$allocator@D@2@@0@AEAV?$allocator@V?$basic_string@DU?$char_traits@D@std@@V?$allocator@D@2@@std@@@0@AEA_K@Z
	??$_Allocate_at_least_helper@V?$allocator@V?$future@U?$pair@PEAUggml_tensor@@_N@std@@@std@@@std@@@std@@YAPEAV?$future@U?$pair@PEAUggml_tensor@@_N@std@@@0@AEAV?$allocator@V?$future@U?$pair@PEAUggml_tensor@@_N@std@@@std@@@0@AEA_K@Z
	??$_Allocate_at_least_helper@V?$allocator@V?$set@HU?$less@H@std@@V?$allocator@H@2@@std@@@std@@@std@@YAPEAV?$set@HU?$less@H@std@@V?$allocator@H@2@@0@AEAV?$allocator@V?$set@HU?$less@H@std@@V?$allocator@H@2@@std@@@0@AEA_K@Z
	??$_Allocate_at_least_helper@V?$allocator@V?$sub_match@PEBD@std@@@std@@@std@@YAPEAV?$sub_match@PEBD@0@AEAV?$allocator@V?$sub_match@PEBD@std@@@0@AEA_K@Z
	??$_Allocate_at_least_helper@V?$allocator@V?$sub_match@PEB_W@std@@@std@@@std@@YAPEAV?$sub_match@PEB_W@0@AEAV?$allocator@V?$sub_match@PEB_W@std@@@0@AEA_K@Z
	??$_Allocate_at_least_helper@V?$allocator@V?$unique_ptr@Ullama_file@@U?$default_delete@Ullama_file@@@std@@@std@@@std@@@std@@YAPEAV?$unique_ptr@Ullama_file@@U?$default_delete@Ullama_file@@@std@@@0@AEAV?$allocator@V?$unique_ptr@Ullama_file@@U?$default_delete@Ullama_file@@@std@@@std@@@0@AEA_K@Z
	??$_Allocate_at_least_helper@V?$allocator@V?$unique_ptr@Ullama_mlock@@U?$default_delete@Ullama_mlock@@@std@@@std@@@std@@@std@@YAPEAV?$unique_ptr@Ullama_mlock@@U?$default_delete@Ullama_mlock@@@std@@@0@AEAV?$allocator@V?$unique_ptr@Ullama_mlock@@U?$default_delete@Ullama_mlock@@@std@@@std@@@0@AEA_K@Z
	??$_Allocate_at_least_helper@V?$allocator@V?$unique_ptr@Ullama_mmap@@U?$default_delete@Ullama_mmap@@@std@@@std@@@std@@@std@@YAPEAV?$unique_ptr@Ullama_mmap@@U?$default_delete@Ullama_mmap@@@std@@@0@AEAV?$allocator@V?$unique_ptr@Ullama_mmap@@U?$default_delete@Ullama_mmap@@@std@@@std@@@0@AEA_K@Z
	??$_Allocate_at_least_helper@V?$allocator@V?$vector@PEBUllama_grammar_element@@V?$allocator@PEBUllama_grammar_element@@@std@@@std@@@std@@@std@@YAPEAV?$vector@PEBUllama_grammar_element@@V?$allocator@PEBUllama_grammar_element@@@std@@@0@AEAV?$allocator@V?$vector@PEBUllama_grammar_element@@V?$allocator@PEBUllama_grammar_element@@@std@@@std@@@0@AEA_K@Z
	??$_Allocate_at_least_helper@V?$allocator@V?$vector@Ullama_grammar_element@@V?$allocator@Ullama_grammar_element@@@std@@@std@@@std@@@std@@YAPEAV?$vector@Ullama_grammar_element@@V?$allocator@Ullama_grammar_element@@@std@@@0@AEAV?$allocator@V?$vector@Ullama_grammar_element@@V?$allocator@Ullama_grammar_element@@@std@@@std@@@0@AEA_K@Z
	??$_Allocate_at_least_helper@V?$allocator@Vthread@std@@@std@@@std@@YAPEAVthread@0@AEAV?$allocator@Vthread@std@@@0@AEA_K@Z
	??$_Allocate_at_least_helper@V?$allocator@_J@std@@@std@@YAPEA_JAEAV?$allocator@_J@0@AEA_K@Z
	??$_Allocate_at_least_helper@V?$allocator@_K@std@@@std@@YAPEA_KAEAV?$allocator@_K@0@AEA_K@Z
	??$_Allocate_at_least_helper@V?$allocator@_W@std@@@std@@YAPEA_WAEAV?$allocator@_W@0@AEA_K@Z
	??$_Allocate_for_capacity@$0A@@?$basic_string@DU?$char_traits@D@std@@V?$allocator@D@2@@std@@CAPEADAEAV?$allocator@D@1@AEA_K@Z
	??$_Allocate_for_capacity@$0A@@?$basic_string@_WU?$char_traits@_W@std@@V?$allocator@_W@2@@std@@CAPEA_WAEAV?$allocator@_W@1@AEA_K@Z
	??$_Allocate_manually_vector_aligned@U_Default_allocate_traits@std@@@std@@YAPEAX_K@Z
	??$_Assign_counted_range@PEAI@?$vector@IV?$allocator@I@std@@@std@@AEAAXPEAI_K@Z
	??$_Assign_counted_range@PEAPEAX@?$vector@PEAXV?$allocator@PEAX@std@@@std@@AEAAXPEAPEAX_K@Z
	??$_Assign_counted_range@PEAPEBUllama_grammar_element@@@?$vector@PEBUllama_grammar_element@@V?$allocator@PEBUllama_grammar_element@@@std@@@std@@AEAAXPEAPEBUllama_grammar_element@@_K@Z
	??$_Assign_counted_range@PEAU_Grp_t@?$_Tgt_state_t@PEBD@std@@@?$vector@U_Grp_t@?$_Tgt_state_t@PEBD@std@@V?$allocator@U_Grp_t@?$_Tgt_state_t@PEBD@std@@@3@@std@@AEAAXPEAU_Grp_t@?$_Tgt_state_t@PEBD@1@_K@Z
	??$_Assign_counted_range@PEAU_Grp_t@?$_Tgt_state_t@PEB_W@std@@@?$vector@U_Grp_t@?$_Tgt_state_t@PEB_W@std@@V?$allocator@U_Grp_t@?$_Tgt_state_t@PEB_W@std@@@3@@std@@AEAAXPEAU_Grp_t@?$_Tgt_state_t@PEB_W@1@_K@Z
	??$_Assign_counted_range@PEAUllm_symbol@@@?$vector@Ullm_symbol@@V?$allocator@Ullm_symbol@@@std@@@std@@AEAAXPEAUllm_symbol@@_K@Z
	??$_Assign_counted_range@PEAV?$vector@PEBUllama_grammar_element@@V?$allocator@PEBUllama_grammar_element@@@std@@@std@@@?$vector@V?$vector@PEBUllama_grammar_element@@V?$allocator@PEBUllama_grammar_element@@@std@@@std@@V?$allocator@V?$vector@PEBUllama_grammar_element@@V?$allocator@PEBUllama_grammar_element@@@std@@@std@@@2@@std@@AEAAXPEAV?$vector@PEBUllama_grammar_element@@V?$allocator@PEBUllama_grammar_element@@@std@@@1@_K@Z
	??$_Assign_counted_range@PEBD@?$vector@DV?$allocator@D@std@@@std@@AEAAXPEBD_K@Z
	??$_Assign_counted_range@PEBV?$basic_string@DU?$char_traits@D@std@@V?$allocator@D@2@@std@@@?$vector@V?$basic_string@DU?$char_traits@D@std@@V?$allocator@D@2@@std@@V?$allocator@V?$basic_string@DU?$char_traits@D@std@@V?$allocator@D@2@@std@@@2@@std@@AEAAXPEBV?$basic_string@DU?$char_traits@D@std@@V?$allocator@D@2@@1@_K@Z
	??$_Atomic_address_as@HU?$_Atomic_padded@J@std@@@std@@YAPECHAEAU?$_Atomic_padded@J@0@@Z
	??$_Atomic_address_as@HU?$_Atomic_padded@J@std@@@std@@YAPEDHAEBU?$_Atomic_padded@J@0@@Z
	??$_Atomic_address_as@JU?$_Atomic_padded@J@std@@@std@@YAPECJAEAU?$_Atomic_padded@J@0@@Z
	??$_Atomic_reinterpret_as@HJ@std@@YAHAEBJ@Z
	??$_Atomic_reinterpret_as@JJ@std@@YAJAEBJ@Z
	??$_Bit_cast@_KT_Addr_storage@error_category@std@@$0A@@std@@YA_KAEBT_Addr_storage@error_category@0@@Z
	??$_Buyheadnode@V?$allocator@U?$_Tree_node@HPEAX@std@@@std@@@?$_Tree_node@HPEAX@std@@SAPEAU01@AEAV?$allocator@U?$_Tree_node@HPEAX@std@@@1@@Z
	??$_Buyheadnode@V?$allocator@U?$_Tree_node@PEAUllama_lora_adapter@@PEAX@std@@@std@@@?$_Tree_node@PEAUllama_lora_adapter@@PEAX@std@@SAPEAU01@AEAV?$allocator@U?$_Tree_node@PEAUllama_lora_adapter@@PEAX@std@@@1@@Z
	??$_Buyheadnode@V?$allocator@U?$_Tree_node@U?$pair@$$CBDUnaive_trie@@@std@@PEAX@std@@@std@@@?$_Tree_node@U?$pair@$$CBDUnaive_trie@@@std@@PEAX@std@@SAPEAU01@AEAV?$allocator@U?$_Tree_node@U?$pair@$$CBDUnaive_trie@@@std@@PEAX@std@@@1@@Z
	??$_Buyheadnode@V?$allocator@U?$_Tree_node@U?$pair@$$CBHH@std@@PEAX@std@@@std@@@?$_Tree_node@U?$pair@$$CBHH@std@@PEAX@std@@SAPEAU01@AEAV?$allocator@U?$_Tree_node@U?$pair@$$CBHH@std@@PEAX@std@@@1@@Z
	??$_Buyheadnode@V?$allocator@U?$_Tree_node@U?$pair@$$CBHV?$basic_string@DU?$char_traits@D@std@@V?$allocator@D@2@@std@@@std@@PEAX@std@@@std@@@?$_Tree_node@U?$pair@$$CBHV?$basic_string@DU?$char_traits@D@std@@V?$allocator@D@2@@std@@@std@@PEAX@std@@SAPEAU01@AEAV?$allocator@U?$_Tree_node@U?$pair@$$CBHV?$basic_string@DU?$char_traits@D@std@@V?$allocator@D@2@@std@@@std@@PEAX@std@@@1@@Z
	??$_Buyheadnode@V?$allocator@U?$_Tree_node@U?$pair@$$CBHV?$vector@MV?$allocator@M@std@@@std@@@std@@PEAX@std@@@std@@@?$_Tree_node@U?$pair@$$CBHV?$vector@MV?$allocator@M@std@@@std@@@std@@PEAX@std@@SAPEAU01@AEAV?$allocator@U?$_Tree_node@U?$pair@$$CBHV?$vector@MV?$allocator@M@std@@@std@@@std@@PEAX@std@@@1@@Z
	??$_Buyheadnode@V?$allocator@U?$_Tree_node@U?$pair@$$CBU?$pair@V?$basic_string@DU?$char_traits@D@std@@V?$allocator@D@2@@std@@V12@@std@@H@std@@PEAX@std@@@std@@@?$_Tree_node@U?$pair@$$CBU?$pair@V?$basic_string@DU?$char_traits@D@std@@V?$allocator@D@2@@std@@V12@@std@@H@std@@PEAX@std@@SAPEAU01@AEAV?$allocator@U?$_Tree_node@U?$pair@$$CBU?$pair@V?$basic_string@DU?$char_traits@D@std@@V?$allocator@D@2@@std@@V12@@std@@H@std@@PEAX@std@@@1@@Z
	??$_Buyheadnode@V?$allocator@U?$_Tree_node@U?$pair@$$CBV?$basic_string@DU?$char_traits@D@std@@V?$allocator@D@2@@std@@H@std@@PEAX@std@@@std@@@?$_Tree_node@U?$pair@$$CBV?$basic_string@DU?$char_traits@D@std@@V?$allocator@D@2@@std@@H@std@@PEAX@std@@SAPEAU01@AEAV?$allocator@U?$_Tree_node@U?$pair@$$CBV?$basic_string@DU?$char_traits@D@std@@V?$allocator@D@2@@std@@H@std@@PEAX@std@@@1@@Z
	??$_Buyheadnode@V?$allocator@U?$_Tree_node@U?$pair@$$CBV?$basic_string@DU?$char_traits@D@std@@V?$allocator@D@2@@std@@U?$pair@HH@2@@std@@PEAX@std@@@std@@@?$_Tree_node@U?$pair@$$CBV?$basic_string@DU?$char_traits@D@std@@V?$allocator@D@2@@std@@U?$pair@HH@2@@std@@PEAX@std@@SAPEAU01@AEAV?$allocator@U?$_Tree_node@U?$pair@$$CBV?$basic_string@DU?$char_traits@D@std@@V?$allocator@D@2@@std@@U?$pair@HH@2@@std@@PEAX@std@@@1@@Z
	??$_Buyheadnode@V?$allocator@U?$_Tree_node@U?$pair@$$CBV?$basic_string@DU?$char_traits@D@std@@V?$allocator@D@2@@std@@Ullama_lora_weight@@@std@@PEAX@std@@@std@@@?$_Tree_node@U?$pair@$$CBV?$basic_string@DU?$char_traits@D@std@@V?$allocator@D@2@@std@@Ullama_lora_weight@@@std@@PEAX@std@@SAPEAU01@AEAV?$allocator@U?$_Tree_node@U?$pair@$$CBV?$basic_string@DU?$char_traits@D@std@@V?$allocator@D@2@@std@@Ullama_lora_weight@@@std@@PEAX@std@@@1@@Z
	??$_Buyheadnode@V?$allocator@U?$_Tree_node@U?$pair@$$CBW4ggml_type@@I@std@@PEAX@std@@@std@@@?$_Tree_node@U?$pair@$$CBW4ggml_type@@I@std@@PEAX@std@@SAPEAU01@AEAV?$allocator@U?$_Tree_node@U?$pair@$$CBW4ggml_type@@I@std@@PEAX@std@@@1@@Z
	??$_Buyheadnode@V?$allocator@U?$_Tree_node@U?$pair@$$CBW4llama_rope_scaling_type@@PEBD@std@@PEAX@std@@@std@@@?$_Tree_node@U?$pair@$$CBW4llama_rope_scaling_type@@PEBD@std@@PEAX@std@@SAPEAU01@AEAV?$allocator@U?$_Tree_node@U?$pair@$$CBW4llama_rope_scaling_type@@PEBD@std@@PEAX@std@@@1@@Z
	??$_Buyheadnode@V?$allocator@U?$_Tree_node@U?$pair@$$CBW4llm_arch@@PEBD@std@@PEAX@std@@@std@@@?$_Tree_node@U?$pair@$$CBW4llm_arch@@PEBD@std@@PEAX@std@@SAPEAU01@AEAV?$allocator@U?$_Tree_node@U?$pair@$$CBW4llm_arch@@PEBD@std@@PEAX@std@@@1@@Z
	??$_Buyheadnode@V?$allocator@U?$_Tree_node@U?$pair@$$CBW4llm_arch@@V?$map@W4llm_tensor@@V?$basic_string@DU?$char_traits@D@std@@V?$allocator@D@2@@std@@U?$less@W4llm_tensor@@@3@V?$allocator@U?$pair@$$CBW4llm_tensor@@V?$basic_string@DU?$char_traits@D@std@@V?$allocator@D@2@@std@@@std@@@3@@std@@@std@@PEAX@std@@@std@@@?$_Tree_node@U?$pair@$$CBW4llm_arch@@V?$map@W4llm_tensor@@V?$basic_string@DU?$char_traits@D@std@@V?$allocator@D@2@@std@@U?$less@W4llm_tensor@@@3@V?$allocator@U?$pair@$$CBW4llm_tensor@@V?$basic_string@DU?$char_traits@D@std@@V?$allocator@D@2@@std@@@std@@@3@@std@@@std@@PEAX@std@@SAPEAU01@AEAV?$allocator@U?$_Tree_node@U?$pair@$$CBW4llm_arch@@V?$map@W4llm_tensor@@V?$basic_string@DU?$char_traits@D@std@@V?$allocator@D@2@@std@@U?$less@W4llm_tensor@@@3@V?$allocator@U?$pair@$$CBW4llm_tensor@@V?$basic_string@DU?$char_traits@D@std@@V?$allocator@D@2@@std@@@std@@@3@@std@@@std@@PEAX@std@@@1@@Z
	??$_Buyheadnode@V?$allocator@U?$_Tree_node@U?$pair@$$CBW4llm_kv@@PEBD@std@@PEAX@std@@@std@@@?$_Tree_node@U?$pair@$$CBW4llm_kv@@PEBD@std@@PEAX@std@@SAPEAU01@AEAV?$allocator@U?$_Tree_node@U?$pair@$$CBW4llm_kv@@PEBD@std@@PEAX@std@@@1@@Z
	??$_Buyheadnode@V?$allocator@U?$_Tree_node@U?$pair@$$CBW4llm_tensor@@V?$basic_string@DU?$char_traits@D@std@@V?$allocator@D@2@@std@@@std@@PEAX@std@@@std@@@?$_Tree_node@U?$pair@$$CBW4llm_tensor@@V?$basic_string@DU?$char_traits@D@std@@V?$allocator@D@2@@std@@@std@@PEAX@std@@SAPEAU01@AEAV?$allocator@U?$_Tree_node@U?$pair@$$CBW4llm_tensor@@V?$basic_string@DU?$char_traits@D@std@@V?$allocator@D@2@@std@@@std@@PEAX@std@@@1@@Z
	??$_Buyheadnode@V?$allocator@U?$_Tree_node@U?$pair@QEAUggml_backend_buffer_type@@H@std@@PEAX@std@@@std@@@?$_Tree_node@U?$pair@QEAUggml_backend_buffer_type@@H@std@@PEAX@std@@SAPEAU01@AEAV?$allocator@U?$_Tree_node@U?$pair@QEAUggml_backend_buffer_type@@H@std@@PEAX@std@@@1@@Z
	??$_Buyheadnode@V?$allocator@U?$_Tree_node@U?$pair@QEAUggml_backend_buffer_type@@PEAUggml_context@@@std@@PEAX@std@@@std@@@?$_Tree_node@U?$pair@QEAUggml_backend_buffer_type@@PEAUggml_context@@@std@@PEAX@std@@SAPEAU01@AEAV?$allocator@U?$_Tree_node@U?$pair@QEAUggml_backend_buffer_type@@PEAUggml_context@@@std@@PEAX@std@@@1@@Z
	??$_Buyheadnode@V?$allocator@U?$_Tree_node@V?$basic_string@DU?$char_traits@D@std@@V?$allocator@D@2@@std@@PEAX@std@@@std@@@?$_Tree_node@V?$basic_string@DU?$char_traits@D@std@@V?$allocator@D@2@@std@@PEAX@std@@SAPEAU01@AEAV?$allocator@U?$_Tree_node@V?$basic_string@DU?$char_traits@D@std@@V?$allocator@D@2@@std@@PEAX@std@@@1@@Z
	??$_Buynode@AEAH@?$_Tree@V?$_Tset_traits@HU?$less@H@std@@V?$allocator@H@2@$0A@@std@@@std@@IEAAPEAU?$_Tree_node@HPEAX@1@AEAH@Z
	??$_Buynode@AEAU?$pair@$$CBW4llm_tensor@@V?$basic_string@DU?$char_traits@D@std@@V?$allocator@D@2@@std@@@std@@@?$_Tree@V?$_Tmap_traits@W4llm_tensor@@V?$basic_string@DU?$char_traits@D@std@@V?$allocator@D@2@@std@@U?$less@W4llm_tensor@@@3@V?$allocator@U?$pair@$$CBW4llm_tensor@@V?$basic_string@DU?$char_traits@D@std@@V?$allocator@D@2@@std@@@std@@@3@$0A@@std@@@std@@IEAAPEAU?$_Tree_node@U?$pair@$$CBW4llm_tensor@@V?$basic_string@DU?$char_traits@D@std@@V?$allocator@D@2@@std@@@std@@PEAX@1@AEAU?$pair@$$CBW4llm_tensor@@V?$basic_string@DU?$char_traits@D@std@@V?$allocator@D@2@@std@@@1@@Z
	??$_Buynode@V?$allocator@U?$_Tree_node@HPEAX@std@@@std@@AEAH@?$_Tree_node@HPEAX@std@@SAPEAU01@AEAV?$allocator@U?$_Tree_node@HPEAX@std@@@1@PEAU01@AEAH@Z
	??$_Buynode@V?$allocator@U?$_Tree_node@U?$pair@$$CBW4llm_tensor@@V?$basic_string@DU?$char_traits@D@std@@V?$allocator@D@2@@std@@@std@@PEAX@std@@@std@@AEAU?$pair@$$CBW4llm_tensor@@V?$basic_string@DU?$char_traits@D@std@@V?$allocator@D@2@@std@@@2@@?$_Tree_node@U?$pair@$$CBW4llm_tensor@@V?$basic_string@DU?$char_traits@D@std@@V?$allocator@D@2@@std@@@std@@PEAX@std@@SAPEAU01@AEAV?$allocator@U?$_Tree_node@U?$pair@$$CBW4llm_tensor@@V?$basic_string@DU?$char_traits@D@std@@V?$allocator@D@2@@std@@@std@@PEAX@std@@@1@PEAU01@AEAU?$pair@$$CBW4llm_tensor@@V?$basic_string@DU?$char_traits@D@std@@V?$allocator@D@2@@std@@@1@@Z
	??$_Cmp_chrange@PEBDPEBDU?$_Cmp_collate@V?$regex_traits@D@std@@@std@@@std@@YAPEBDPEBD000U?$_Cmp_collate@V?$regex_traits@D@std@@@0@@Z
	??$_Cmp_chrange@PEBDPEBDU?$_Cmp_cs@V?$regex_traits@D@std@@@std@@@std@@YAPEBDPEBD000U?$_Cmp_cs@V?$regex_traits@D@std@@@0@@Z
	??$_Cmp_chrange@PEBDPEBDU?$_Cmp_icase@V?$regex_traits@D@std@@@std@@@std@@YAPEBDPEBD000U?$_Cmp_icase@V?$regex_traits@D@std@@@0@@Z
	??$_Cmp_chrange@PEB_WPEB_WU?$_Cmp_collate@V?$regex_traits@_W@std@@@std@@@std@@YAPEB_WPEB_W000U?$_Cmp_collate@V?$regex_traits@_W@std@@@0@@Z
	??$_Cmp_chrange@PEB_WPEB_WU?$_Cmp_cs@V?$regex_traits@_W@std@@@std@@@std@@YAPEB_WPEB_W000U?$_Cmp_cs@V?$regex_traits@_W@std@@@0@@Z
	??$_Cmp_chrange@PEB_WPEB_WU?$_Cmp_icase@V?$regex_traits@_W@std@@@std@@@std@@YAPEB_WPEB_W000U?$_Cmp_icase@V?$regex_traits@_W@std@@@0@@Z
	??$_Codecvt_do_length@V?$codecvt_utf8@_W$0BAPPPP@$0A@@std@@DU_Mbstatet@@@std@@YAHAEBV?$codecvt_utf8@_W$0BAPPPP@$0A@@0@AEAU_Mbstatet@@PEBD2_K@Z
	??$_Compare@PEBDPEBDV?$regex_traits@D@std@@@std@@YAPEBDPEBD000AEBV?$regex_traits@D@0@W4syntax_option_type@regex_constants@0@@Z
	??$_Compare@PEB_WPEB_WV?$regex_traits@_W@std@@@std@@YAPEB_WPEB_W000AEBV?$regex_traits@_W@0@W4syntax_option_type@regex_constants@0@@Z
	??$_Construct@$00PEAD@?$basic_string@DU?$char_traits@D@std@@V?$allocator@D@2@@std@@AEAAXQEAD_K@Z
	??$_Construct@$00PEBD@?$basic_string@DU?$char_traits@D@std@@V?$allocator@D@2@@std@@AEAAXQEBD_K@Z
	??$_Construct@$01PEBD@?$basic_string@DU?$char_traits@D@std@@V?$allocator@D@2@@std@@AEAAXQEBD_K@Z
	??$_Construct@$01PEB_W@?$basic_string@_WU?$char_traits@_W@std@@V?$allocator@_W@2@@std@@AEAAXQEB_W_K@Z
	??$_Construct@$0A@D@?$basic_string@DU?$char_traits@D@std@@V?$allocator@D@2@@std@@AEAAXD_K@Z
	??$_Construct_from_iter@PEBIPEBI_K@?$basic_string@_WU?$char_traits@_W@std@@V?$allocator@_W@2@@std@@AEAAXPEBIQEBI_K@Z
	??$_Construct_from_weak@U_Task_impl_base@details@Concurrency@@@?$_Ptr_base@U_Task_impl_base@details@Concurrency@@@std@@IEAA_NAEBV?$weak_ptr@U_Task_impl_base@details@Concurrency@@@1@@Z
	??$_Construct_in_place@HAEBH@std@@YAXAEAHAEBH@Z
	??$_Construct_in_place@IAEBI@std@@YAXAEAIAEBI@Z
	??$_Construct_in_place@II@std@@YAXAEAI$$QEAI@Z
	??$_Construct_in_place@MAEBM@std@@YAXAEAMAEBM@Z
	??$_Construct_in_place@NN@std@@YAXAEAN$$QEAN@Z
	??$_Construct_in_place@PEADAEAPEAD@std@@YAXAEAPEAD0@Z
	??$_Construct_in_place@PEADAEBQEAD@std@@YAXAEAPEADAEBQEAD@Z
	??$_Construct_in_place@PEAU?$_Flist_node@Ufragment_buffer_variant@@PEAX@std@@AEAPEAU12@@std@@YAXAEAPEAU?$_Flist_node@Ufragment_buffer_variant@@PEAX@0@0@Z
	??$_Construct_in_place@PEAU?$_List_node@IPEAX@std@@AEAPEAU12@@std@@YAXAEAPEAU?$_List_node@IPEAX@0@0@Z
	??$_Construct_in_place@PEAU?$_List_node@IPEAX@std@@AEBQEAU12@@std@@YAXAEAPEAU?$_List_node@IPEAX@0@AEBQEAU10@@Z
	??$_Construct_in_place@PEAU?$_List_node@U?$pair@$$CBEV?$basic_string@DU?$char_traits@D@std@@V?$allocator@D@2@@std@@@std@@PEAX@std@@AEAPEAU12@@std@@YAXAEAPEAU?$_List_node@U?$pair@$$CBEV?$basic_string@DU?$char_traits@D@std@@V?$allocator@D@2@@std@@@std@@PEAX@0@0@Z
	??$_Construct_in_place@PEAU?$_List_node@U?$pair@$$CBEV?$basic_string@DU?$char_traits@D@std@@V?$allocator@D@2@@std@@@std@@PEAX@std@@AEBQEAU12@@std@@YAXAEAPEAU?$_List_node@U?$pair@$$CBEV?$basic_string@DU?$char_traits@D@std@@V?$allocator@D@2@@std@@@std@@PEAX@0@AEBQEAU10@@Z
	??$_Construct_in_place@PEAU?$_List_node@U?$pair@$$CBHH@std@@PEAX@std@@AEAPEAU12@@std@@YAXAEAPEAU?$_List_node@U?$pair@$$CBHH@std@@PEAX@0@0@Z
	??$_Construct_in_place@PEAU?$_List_node@U?$pair@$$CBHH@std@@PEAX@std@@AEBQEAU12@@std@@YAXAEAPEAU?$_List_node@U?$pair@$$CBHH@std@@PEAX@0@AEBQEAU10@@Z
	??$_Construct_in_place@PEAU?$_List_node@U?$pair@$$CBII@std@@PEAX@std@@AEAPEAU12@@std@@YAXAEAPEAU?$_List_node@U?$pair@$$CBII@std@@PEAX@0@0@Z
	??$_Construct_in_place@PEAU?$_List_node@U?$pair@$$CBII@std@@PEAX@std@@AEBQEAU12@@std@@YAXAEAPEAU?$_List_node@U?$pair@$$CBII@std@@PEAX@0@AEBQEAU10@@Z
	??$_Construct_in_place@PEAU?$_List_node@U?$pair@$$CBIPEAUggml_backend_buffer@@@std@@PEAX@std@@AEAPEAU12@@std@@YAXAEAPEAU?$_List_node@U?$pair@$$CBIPEAUggml_backend_buffer@@@std@@PEAX@0@0@Z
	??$_Construct_in_place@PEAU?$_List_node@U?$pair@$$CBIPEAUggml_backend_buffer@@@std@@PEAX@std@@AEBQEAU12@@std@@YAXAEAPEAU?$_List_node@U?$pair@$$CBIPEAUggml_backend_buffer@@@std@@PEAX@0@AEBQEAU10@@Z
	??$_Construct_in_place@PEAU?$_List_node@U?$pair@$$CBV?$basic_string@DU?$char_traits@D@std@@V?$allocator@D@2@@std@@E@std@@PEAX@std@@AEAPEAU12@@std@@YAXAEAPEAU?$_List_node@U?$pair@$$CBV?$basic_string@DU?$char_traits@D@std@@V?$allocator@D@2@@std@@E@std@@PEAX@0@0@Z
	??$_Construct_in_place@PEAU?$_List_node@U?$pair@$$CBV?$basic_string@DU?$char_traits@D@std@@V?$allocator@D@2@@std@@E@std@@PEAX@std@@AEBQEAU12@@std@@YAXAEAPEAU?$_List_node@U?$pair@$$CBV?$basic_string@DU?$char_traits@D@std@@V?$allocator@D@2@@std@@E@std@@PEAX@0@AEBQEAU10@@Z
	??$_Construct_in_place@PEAU?$_List_node@U?$pair@$$CBV?$basic_string@DU?$char_traits@D@std@@V?$allocator@D@2@@std@@H@std@@PEAX@std@@AEAPEAU12@@std@@YAXAEAPEAU?$_List_node@U?$pair@$$CBV?$basic_string@DU?$char_traits@D@std@@V?$allocator@D@2@@std@@H@std@@PEAX@0@0@Z
	??$_Construct_in_place@PEAU?$_List_node@U?$pair@$$CBV?$basic_string@DU?$char_traits@D@std@@V?$allocator@D@2@@std@@H@std@@PEAX@std@@AEBQEAU12@@std@@YAXAEAPEAU?$_List_node@U?$pair@$$CBV?$basic_string@DU?$char_traits@D@std@@V?$allocator@D@2@@std@@H@std@@PEAX@0@AEBQEAU10@@Z
	??$_Construct_in_place@PEAU?$_List_node@U?$pair@$$CBV?$basic_string@DU?$char_traits@D@std@@V?$allocator@D@2@@std@@Ullama_lora_weight@@@std@@PEAX@std@@AEAPEAU12@@std@@YAXAEAPEAU?$_List_node@U?$pair@$$CBV?$basic_string@DU?$char_traits@D@std@@V?$allocator@D@2@@std@@Ullama_lora_weight@@@std@@PEAX@0@0@Z
	??$_Construct_in_place@PEAU?$_List_node@U?$pair@$$CBV?$basic_string@DU?$char_traits@D@std@@V?$allocator@D@2@@std@@Ullama_lora_weight@@@std@@PEAX@std@@AEBQEAU12@@std@@YAXAEAPEAU?$_List_node@U?$pair@$$CBV?$basic_string@DU?$char_traits@D@std@@V?$allocator@D@2@@std@@Ullama_lora_weight@@@std@@PEAX@0@AEBQEAU10@@Z
	??$_Construct_in_place@PEAU?$_List_node@U?$pair@$$CBV?$basic_string@DU?$char_traits@D@std@@V?$allocator@D@2@@std@@Ullama_model_kv_override@@@std@@PEAX@std@@AEAPEAU12@@std@@YAXAEAPEAU?$_List_node@U?$pair@$$CBV?$basic_string@DU?$char_traits@D@std@@V?$allocator@D@2@@std@@Ullama_model_kv_override@@@std@@PEAX@0@0@Z
	??$_Construct_in_place@PEAU?$_List_node@U?$pair@$$CBV?$basic_string@DU?$char_traits@D@std@@V?$allocator@D@2@@std@@Ullama_model_kv_override@@@std@@PEAX@std@@AEBQEAU12@@std@@YAXAEAPEAU?$_List_node@U?$pair@$$CBV?$basic_string@DU?$char_traits@D@std@@V?$allocator@D@2@@std@@Ullama_model_kv_override@@@std@@PEAX@0@AEBQEAU10@@Z
	??$_Construct_in_place@PEAU?$_List_node@U?$pair@$$CBV?$basic_string@DU?$char_traits@D@std@@V?$allocator@D@2@@std@@V12@@std@@PEAX@std@@AEAPEAU12@@std@@YAXAEAPEAU?$_List_node@U?$pair@$$CBV?$basic_string@DU?$char_traits@D@std@@V?$allocator@D@2@@std@@V12@@std@@PEAX@0@0@Z
	??$_Construct_in_place@PEAU?$_List_node@U?$pair@$$CBV?$basic_string@DU?$char_traits@D@std@@V?$allocator@D@2@@std@@V12@@std@@PEAX@std@@AEBQEAU12@@std@@YAXAEAPEAU?$_List_node@U?$pair@$$CBV?$basic_string@DU?$char_traits@D@std@@V?$allocator@D@2@@std@@V12@@std@@PEAX@0@AEBQEAU10@@Z
	??$_Construct_in_place@PEAU?$_List_node@U?$pair@QEAUllama_lora_adapter@@M@std@@PEAX@std@@AEAPEAU12@@std@@YAXAEAPEAU?$_List_node@U?$pair@QEAUllama_lora_adapter@@M@std@@PEAX@0@0@Z
	??$_Construct_in_place@PEAU?$_List_node@U?$pair@QEAUllama_lora_adapter@@M@std@@PEAX@std@@AEBQEAU12@@std@@YAXAEAPEAU?$_List_node@U?$pair@QEAUllama_lora_adapter@@M@std@@PEAX@0@AEBQEAU10@@Z
	??$_Construct_in_place@PEAU?$_Tree_node@HPEAX@std@@AEAPEAU12@@std@@YAXAEAPEAU?$_Tree_node@HPEAX@0@0@Z
	??$_Construct_in_place@PEAU?$_Tree_node@HPEAX@std@@AEBQEAU12@@std@@YAXAEAPEAU?$_Tree_node@HPEAX@0@AEBQEAU10@@Z
	??$_Construct_in_place@PEAU?$_Tree_node@PEAUllama_lora_adapter@@PEAX@std@@AEAPEAU12@@std@@YAXAEAPEAU?$_Tree_node@PEAUllama_lora_adapter@@PEAX@0@0@Z
	??$_Construct_in_place@PEAU?$_Tree_node@PEAUllama_lora_adapter@@PEAX@std@@AEBQEAU12@@std@@YAXAEAPEAU?$_Tree_node@PEAUllama_lora_adapter@@PEAX@0@AEBQEAU10@@Z
	??$_Construct_in_place@PEAU?$_Tree_node@U?$pair@$$CBDUnaive_trie@@@std@@PEAX@std@@AEAPEAU12@@std@@YAXAEAPEAU?$_Tree_node@U?$pair@$$CBDUnaive_trie@@@std@@PEAX@0@0@Z
	??$_Construct_in_place@PEAU?$_Tree_node@U?$pair@$$CBDUnaive_trie@@@std@@PEAX@std@@AEBQEAU12@@std@@YAXAEAPEAU?$_Tree_node@U?$pair@$$CBDUnaive_trie@@@std@@PEAX@0@AEBQEAU10@@Z
	??$_Construct_in_place@PEAU?$_Tree_node@U?$pair@$$CBHH@std@@PEAX@std@@AEAPEAU12@@std@@YAXAEAPEAU?$_Tree_node@U?$pair@$$CBHH@std@@PEAX@0@0@Z
	??$_Construct_in_place@PEAU?$_Tree_node@U?$pair@$$CBHH@std@@PEAX@std@@AEBQEAU12@@std@@YAXAEAPEAU?$_Tree_node@U?$pair@$$CBHH@std@@PEAX@0@AEBQEAU10@@Z
	??$_Construct_in_place@PEAU?$_Tree_node@U?$pair@$$CBHV?$basic_string@DU?$char_traits@D@std@@V?$allocator@D@2@@std@@@std@@PEAX@std@@AEAPEAU12@@std@@YAXAEAPEAU?$_Tree_node@U?$pair@$$CBHV?$basic_string@DU?$char_traits@D@std@@V?$allocator@D@2@@std@@@std@@PEAX@0@0@Z
	??$_Construct_in_place@PEAU?$_Tree_node@U?$pair@$$CBHV?$basic_string@DU?$char_traits@D@std@@V?$allocator@D@2@@std@@@std@@PEAX@std@@AEBQEAU12@@std@@YAXAEAPEAU?$_Tree_node@U?$pair@$$CBHV?$basic_string@DU?$char_traits@D@std@@V?$allocator@D@2@@std@@@std@@PEAX@0@AEBQEAU10@@Z
	??$_Construct_in_place@PEAU?$_Tree_node@U?$pair@$$CBHV?$vector@MV?$allocator@M@std@@@std@@@std@@PEAX@std@@AEAPEAU12@@std@@YAXAEAPEAU?$_Tree_node@U?$pair@$$CBHV?$vector@MV?$allocator@M@std@@@std@@@std@@PEAX@0@0@Z
	??$_Construct_in_place@PEAU?$_Tree_node@U?$pair@$$CBHV?$vector@MV?$allocator@M@std@@@std@@@std@@PEAX@std@@AEBQEAU12@@std@@YAXAEAPEAU?$_Tree_node@U?$pair@$$CBHV?$vector@MV?$allocator@M@std@@@std@@@std@@PEAX@0@AEBQEAU10@@Z
	??$_Construct_in_place@PEAU?$_Tree_node@U?$pair@$$CBU?$pair@V?$basic_string@DU?$char_traits@D@std@@V?$allocator@D@2@@std@@V12@@std@@H@std@@PEAX@std@@AEAPEAU12@@std@@YAXAEAPEAU?$_Tree_node@U?$pair@$$CBU?$pair@V?$basic_string@DU?$char_traits@D@std@@V?$allocator@D@2@@std@@V12@@std@@H@std@@PEAX@0@0@Z
	??$_Construct_in_place@PEAU?$_Tree_node@U?$pair@$$CBU?$pair@V?$basic_string@DU?$char_traits@D@std@@V?$allocator@D@2@@std@@V12@@std@@H@std@@PEAX@std@@AEBQEAU12@@std@@YAXAEAPEAU?$_Tree_node@U?$pair@$$CBU?$pair@V?$basic_string@DU?$char_traits@D@std@@V?$allocator@D@2@@std@@V12@@std@@H@std@@PEAX@0@AEBQEAU10@@Z
	??$_Construct_in_place@PEAU?$_Tree_node@U?$pair@$$CBV?$basic_string@DU?$char_traits@D@std@@V?$allocator@D@2@@std@@H@std@@PEAX@std@@AEAPEAU12@@std@@YAXAEAPEAU?$_Tree_node@U?$pair@$$CBV?$basic_string@DU?$char_traits@D@std@@V?$allocator@D@2@@std@@H@std@@PEAX@0@0@Z
	??$_Construct_in_place@PEAU?$_Tree_node@U?$pair@$$CBV?$basic_string@DU?$char_traits@D@std@@V?$allocator@D@2@@std@@H@std@@PEAX@std@@AEBQEAU12@@std@@YAXAEAPEAU?$_Tree_node@U?$pair@$$CBV?$basic_string@DU?$char_traits@D@std@@V?$allocator@D@2@@std@@H@std@@PEAX@0@AEBQEAU10@@Z
	??$_Construct_in_place@PEAU?$_Tree_node@U?$pair@$$CBV?$basic_string@DU?$char_traits@D@std@@V?$allocator@D@2@@std@@U?$pair@HH@2@@std@@PEAX@std@@AEAPEAU12@@std@@YAXAEAPEAU?$_Tree_node@U?$pair@$$CBV?$basic_string@DU?$char_traits@D@std@@V?$allocator@D@2@@std@@U?$pair@HH@2@@std@@PEAX@0@0@Z
	??$_Construct_in_place@PEAU?$_Tree_node@U?$pair@$$CBV?$basic_string@DU?$char_traits@D@std@@V?$allocator@D@2@@std@@U?$pair@HH@2@@std@@PEAX@std@@AEBQEAU12@@std@@YAXAEAPEAU?$_Tree_node@U?$pair@$$CBV?$basic_string@DU?$char_traits@D@std@@V?$allocator@D@2@@std@@U?$pair@HH@2@@std@@PEAX@0@AEBQEAU10@@Z
	??$_Construct_in_place@PEAU?$_Tree_node@U?$pair@$$CBV?$basic_string@DU?$char_traits@D@std@@V?$allocator@D@2@@std@@Ullama_lora_weight@@@std@@PEAX@std@@AEAPEAU12@@std@@YAXAEAPEAU?$_Tree_node@U?$pair@$$CBV?$basic_string@DU?$char_traits@D@std@@V?$allocator@D@2@@std@@Ullama_lora_weight@@@std@@PEAX@0@0@Z
	??$_Construct_in_place@PEAU?$_Tree_node@U?$pair@$$CBV?$basic_string@DU?$char_traits@D@std@@V?$allocator@D@2@@std@@Ullama_lora_weight@@@std@@PEAX@std@@AEBQEAU12@@std@@YAXAEAPEAU?$_Tree_node@U?$pair@$$CBV?$basic_string@DU?$char_traits@D@std@@V?$allocator@D@2@@std@@Ullama_lora_weight@@@std@@PEAX@0@AEBQEAU10@@Z
	??$_Construct_in_place@PEAU?$_Tree_node@U?$pair@$$CBW4ggml_type@@I@std@@PEAX@std@@AEAPEAU12@@std@@YAXAEAPEAU?$_Tree_node@U?$pair@$$CBW4ggml_type@@I@std@@PEAX@0@0@Z
	??$_Construct_in_place@PEAU?$_Tree_node@U?$pair@$$CBW4ggml_type@@I@std@@PEAX@std@@AEBQEAU12@@std@@YAXAEAPEAU?$_Tree_node@U?$pair@$$CBW4ggml_type@@I@std@@PEAX@0@AEBQEAU10@@Z
	??$_Construct_in_place@PEAU?$_Tree_node@U?$pair@$$CBW4llama_rope_scaling_type@@PEBD@std@@PEAX@std@@AEAPEAU12@@std@@YAXAEAPEAU?$_Tree_node@U?$pair@$$CBW4llama_rope_scaling_type@@PEBD@std@@PEAX@0@0@Z
	??$_Construct_in_place@PEAU?$_Tree_node@U?$pair@$$CBW4llama_rope_scaling_type@@PEBD@std@@PEAX@std@@AEBQEAU12@@std@@YAXAEAPEAU?$_Tree_node@U?$pair@$$CBW4llama_rope_scaling_type@@PEBD@std@@PEAX@0@AEBQEAU10@@Z
	??$_Construct_in_place@PEAU?$_Tree_node@U?$pair@$$CBW4llm_arch@@PEBD@std@@PEAX@std@@AEAPEAU12@@std@@YAXAEAPEAU?$_Tree_node@U?$pair@$$CBW4llm_arch@@PEBD@std@@PEAX@0@0@Z
	??$_Construct_in_place@PEAU?$_Tree_node@U?$pair@$$CBW4llm_arch@@PEBD@std@@PEAX@std@@AEBQEAU12@@std@@YAXAEAPEAU?$_Tree_node@U?$pair@$$CBW4llm_arch@@PEBD@std@@PEAX@0@AEBQEAU10@@Z
	??$_Construct_in_place@PEAU?$_Tree_node@U?$pair@$$CBW4llm_arch@@V?$map@W4llm_tensor@@V?$basic_string@DU?$char_traits@D@std@@V?$allocator@D@2@@std@@U?$less@W4llm_tensor@@@3@V?$allocator@U?$pair@$$CBW4llm_tensor@@V?$basic_string@DU?$char_traits@D@std@@V?$allocator@D@2@@std@@@std@@@3@@std@@@std@@PEAX@std@@AEAPEAU12@@std@@YAXAEAPEAU?$_Tree_node@U?$pair@$$CBW4llm_arch@@V?$map@W4llm_tensor@@V?$basic_string@DU?$char_traits@D@std@@V?$allocator@D@2@@std@@U?$less@W4llm_tensor@@@3@V?$allocator@U?$pair@$$CBW4llm_tensor@@V?$basic_string@DU?$char_traits@D@std@@V?$allocator@D@2@@std@@@std@@@3@@std@@@std@@PEAX@0@0@Z
	??$_Construct_in_place@PEAU?$_Tree_node@U?$pair@$$CBW4llm_arch@@V?$map@W4llm_tensor@@V?$basic_string@DU?$char_traits@D@std@@V?$allocator@D@2@@std@@U?$less@W4llm_tensor@@@3@V?$allocator@U?$pair@$$CBW4llm_tensor@@V?$basic_string@DU?$char_traits@D@std@@V?$allocator@D@2@@std@@@std@@@3@@std@@@std@@PEAX@std@@AEBQEAU12@@std@@YAXAEAPEAU?$_Tree_node@U?$pair@$$CBW4llm_arch@@V?$map@W4llm_tensor@@V?$basic_string@DU?$char_traits@D@std@@V?$allocator@D@2@@std@@U?$less@W4llm_tensor@@@3@V?$allocator@U?$pair@$$CBW4llm_tensor@@V?$basic_string@DU?$char_traits@D@std@@V?$allocator@D@2@@std@@@std@@@3@@std@@@std@@PEAX@0@AEBQEAU10@@Z
	??$_Construct_in_place@PEAU?$_Tree_node@U?$pair@$$CBW4llm_kv@@PEBD@std@@PEAX@std@@AEAPEAU12@@std@@YAXAEAPEAU?$_Tree_node@U?$pair@$$CBW4llm_kv@@PEBD@std@@PEAX@0@0@Z
	??$_Construct_in_place@PEAU?$_Tree_node@U?$pair@$$CBW4llm_kv@@PEBD@std@@PEAX@std@@AEBQEAU12@@std@@YAXAEAPEAU?$_Tree_node@U?$pair@$$CBW4llm_kv@@PEBD@std@@PEAX@0@AEBQEAU10@@Z
	??$_Construct_in_place@PEAU?$_Tree_node@U?$pair@$$CBW4llm_tensor@@V?$basic_string@DU?$char_traits@D@std@@V?$allocator@D@2@@std@@@std@@PEAX@std@@AEAPEAU12@@std@@YAXAEAPEAU?$_Tree_node@U?$pair@$$CBW4llm_tensor@@V?$basic_string@DU?$char_traits@D@std@@V?$allocator@D@2@@std@@@std@@PEAX@0@0@Z
	??$_Construct_in_place@PEAU?$_Tree_node@U?$pair@$$CBW4llm_tensor@@V?$basic_string@DU?$char_traits@D@std@@V?$allocator@D@2@@std@@@std@@PEAX@std@@AEBQEAU12@@std@@YAXAEAPEAU?$_Tree_node@U?$pair@$$CBW4llm_tensor@@V?$basic_string@DU?$char_traits@D@std@@V?$allocator@D@2@@std@@@std@@PEAX@0@AEBQEAU10@@Z
	??$_Construct_in_place@PEAU?$_Tree_node@U?$pair@QEAUggml_backend_buffer_type@@H@std@@PEAX@std@@AEAPEAU12@@std@@YAXAEAPEAU?$_Tree_node@U?$pair@QEAUggml_backend_buffer_type@@H@std@@PEAX@0@0@Z
	??$_Construct_in_place@PEAU?$_Tree_node@U?$pair@QEAUggml_backend_buffer_type@@H@std@@PEAX@std@@AEBQEAU12@@std@@YAXAEAPEAU?$_Tree_node@U?$pair@QEAUggml_backend_buffer_type@@H@std@@PEAX@0@AEBQEAU10@@Z
	??$_Construct_in_place@PEAU?$_Tree_node@U?$pair@QEAUggml_backend_buffer_type@@PEAUggml_context@@@std@@PEAX@std@@AEAPEAU12@@std@@YAXAEAPEAU?$_Tree_node@U?$pair@QEAUggml_backend_buffer_type@@PEAUggml_context@@@std@@PEAX@0@0@Z
	??$_Construct_in_place@PEAU?$_Tree_node@U?$pair@QEAUggml_backend_buffer_type@@PEAUggml_context@@@std@@PEAX@std@@AEBQEAU12@@std@@YAXAEAPEAU?$_Tree_node@U?$pair@QEAUggml_backend_buffer_type@@PEAUggml_context@@@std@@PEAX@0@AEBQEAU10@@Z
	??$_Construct_in_place@PEAU?$_Tree_node@V?$basic_string@DU?$char_traits@D@std@@V?$allocator@D@2@@std@@PEAX@std@@AEAPEAU12@@std@@YAXAEAPEAU?$_Tree_node@V?$basic_string@DU?$char_traits@D@std@@V?$allocator@D@2@@std@@PEAX@0@0@Z
	??$_Construct_in_place@PEAU?$_Tree_node@V?$basic_string@DU?$char_traits@D@std@@V?$allocator@D@2@@std@@PEAX@std@@AEBQEAU12@@std@@YAXAEAPEAU?$_Tree_node@V?$basic_string@DU?$char_traits@D@std@@V?$allocator@D@2@@std@@PEAX@0@AEBQEAU10@@Z
	??$_Construct_in_place@PEAUggml_backend@@AEBQEAU1@@std@@YAXAEAPEAUggml_backend@@AEBQEAU1@@Z
	??$_Construct_in_place@PEAUggml_backend_buffer@@AEBQEAU1@@std@@YAXAEAPEAUggml_backend_buffer@@AEBQEAU1@@Z
	??$_Construct_in_place@PEAUggml_backend_buffer_type@@PEAU1@@std@@YAXAEAPEAUggml_backend_buffer_type@@$$QEAPEAU1@@Z
	??$_Construct_in_place@PEAUggml_context@@AEAPEAU1@@std@@YAXAEAPEAUggml_context@@0@Z
	??$_Construct_in_place@PEAUggml_context@@AEBQEAU1@@std@@YAXAEAPEAUggml_context@@AEBQEAU1@@Z
	??$_Construct_in_place@PEAUggml_tensor@@AEBQEAU1@@std@@YAXAEAPEAUggml_tensor@@AEBQEAU1@@Z
	??$_Construct_in_place@PEAUggml_tensor@@PEAU1@@std@@YAXAEAPEAUggml_tensor@@$$QEAPEAU1@@Z
	??$_Construct_in_place@PEAUllama_token_data@@AEBQEAU1@@std@@YAXAEAPEAUllama_token_data@@AEBQEAU1@@Z
	??$_Construct_in_place@PEA_WAEAPEA_W@std@@YAXAEAPEA_W0@Z
	??$_Construct_in_place@PEA_WAEBQEA_W@std@@YAXAEAPEA_WAEBQEA_W@Z
	??$_Construct_in_place@PEBUllama_grammar_element@@AEBQEBU1@@std@@YAXAEAPEBUllama_grammar_element@@AEBQEBU1@@Z
	??$_Construct_in_place@PEBUllama_grammar_element@@PEBU1@@std@@YAXAEAPEBUllama_grammar_element@@$$QEAPEBU1@@Z
	??$_Construct_in_place@U?$_Task_impl@E@details@Concurrency@@AEAPEAV_CancellationTokenState@23@AEAUscheduler_ptr@3@@std@@YAXAEAU?$_Task_impl@E@details@Concurrency@@AEAPEAV_CancellationTokenState@23@AEAUscheduler_ptr@3@@Z
	??$_Construct_in_place@U?$pair@II@std@@AEAIAEAI@std@@YAXAEAU?$pair@II@0@AEAI1@Z
	??$_Construct_in_place@U?$pair@II@std@@AEAIAEBI@std@@YAXAEAU?$pair@II@0@AEAIAEBI@Z
	??$_Construct_in_place@U?$pair@V?$vector@IV?$allocator@I@std@@@std@@Ullama_partial_utf8@@@std@@U12@@std@@YAXAEAU?$pair@V?$vector@IV?$allocator@I@std@@@std@@Ullama_partial_utf8@@@0@$$QEAU10@@Z
	??$_Construct_in_place@U?$pair@_K_K@std@@AEA_KH@std@@YAXAEAU?$pair@_K_K@0@AEA_K$$QEAH@Z
	??$_Construct_in_place@U_Container_proxy@std@@PEAU_Container_base12@2@@std@@YAXAEAU_Container_proxy@0@$$QEAPEAU_Container_base12@0@@Z
	??$_Construct_in_place@U_ExceptionHolder@details@Concurrency@@AEBVexception_ptr@std@@V_TaskCreationCallstack@23@@std@@YAXAEAU_ExceptionHolder@details@Concurrency@@AEBVexception_ptr@0@$$QEAV_TaskCreationCallstack@23@@Z
	??$_Construct_in_place@Ullama_grammar_candidate@@AEBU1@@std@@YAXAEAUllama_grammar_candidate@@AEBU1@@Z
	??$_Construct_in_place@Ullama_grammar_candidate@@U1@@std@@YAXAEAUllama_grammar_candidate@@$$QEAU1@@Z
	??$_Construct_in_place@Ullama_grammar_element@@AEBU1@@std@@YAXAEAUllama_grammar_element@@AEBU1@@Z
	??$_Construct_in_place@Ullama_grammar_element@@U1@@std@@YAXAEAUllama_grammar_element@@$$QEAU1@@Z
	??$_Construct_in_place@Ullama_sbatch_seq@@AEBU1@@std@@YAXAEAUllama_sbatch_seq@@AEBU1@@Z
	??$_Construct_in_place@Ullama_token_data@@AEBU1@@std@@YAXAEAUllama_token_data@@AEBU1@@Z
	??$_Construct_in_place@Ullm_bigram_spm@@AEBU1@@std@@YAXAEAUllm_bigram_spm@@AEBU1@@Z
	??$_Construct_in_place@Ullm_symbol@@AEAU1@@std@@YAXAEAUllm_symbol@@0@Z
	??$_Construct_in_place@Ullm_symbol@@U1@@std@@YAXAEAUllm_symbol@@$$QEAU1@@Z
	??$_Construct_in_place@V?$_List_unchecked_const_iterator@V?$_List_val@U?$_List_simple_types@I@std@@@std@@U_Iterator_base0@2@@std@@AEBV12@@std@@YAXAEAV?$_List_unchecked_const_iterator@V?$_List_val@U?$_List_simple_types@I@std@@@std@@U_Iterator_base0@2@@0@AEBV10@@Z
	??$_Construct_in_place@V?$_List_unchecked_iterator@V?$_List_val@U?$_List_simple_types@U?$pair@$$CBEV?$basic_string@DU?$char_traits@D@std@@V?$allocator@D@2@@std@@@std@@@std@@@std@@@std@@AEBV12@@std@@YAXAEAV?$_List_unchecked_iterator@V?$_List_val@U?$_List_simple_types@U?$pair@$$CBEV?$basic_string@DU?$char_traits@D@std@@V?$allocator@D@2@@std@@@std@@@std@@@std@@@0@AEBV10@@Z
	??$_Construct_in_place@V?$_List_unchecked_iterator@V?$_List_val@U?$_List_simple_types@U?$pair@$$CBHH@std@@@std@@@std@@@std@@AEBV12@@std@@YAXAEAV?$_List_unchecked_iterator@V?$_List_val@U?$_List_simple_types@U?$pair@$$CBHH@std@@@std@@@std@@@0@AEBV10@@Z
	??$_Construct_in_place@V?$_List_unchecked_iterator@V?$_List_val@U?$_List_simple_types@U?$pair@$$CBII@std@@@std@@@std@@@std@@AEBV12@@std@@YAXAEAV?$_List_unchecked_iterator@V?$_List_val@U?$_List_simple_types@U?$pair@$$CBII@std@@@std@@@std@@@0@AEBV10@@Z
	??$_Construct_in_place@V?$_List_unchecked_iterator@V?$_List_val@U?$_List_simple_types@U?$pair@$$CBIPEAUggml_backend_buffer@@@std@@@std@@@std@@@std@@AEBV12@@std@@YAXAEAV?$_List_unchecked_iterator@V?$_List_val@U?$_List_simple_types@U?$pair@$$CBIPEAUggml_backend_buffer@@@std@@@std@@@std@@@0@AEBV10@@Z
	??$_Construct_in_place@V?$_List_unchecked_iterator@V?$_List_val@U?$_List_simple_types@U?$pair@$$CBV?$basic_string@DU?$char_traits@D@std@@V?$allocator@D@2@@std@@E@std@@@std@@@std@@@std@@AEBV12@@std@@YAXAEAV?$_List_unchecked_iterator@V?$_List_val@U?$_List_simple_types@U?$pair@$$CBV?$basic_string@DU?$char_traits@D@std@@V?$allocator@D@2@@std@@E@std@@@std@@@std@@@0@AEBV10@@Z
	??$_Construct_in_place@V?$_List_unchecked_iterator@V?$_List_val@U?$_List_simple_types@U?$pair@$$CBV?$basic_string@DU?$char_traits@D@std@@V?$allocator@D@2@@std@@H@std@@@std@@@std@@@std@@AEBV12@@std@@YAXAEAV?$_List_unchecked_iterator@V?$_List_val@U?$_List_simple_types@U?$pair@$$CBV?$basic_string@DU?$char_traits@D@std@@V?$allocator@D@2@@std@@H@std@@@std@@@std@@@0@AEBV10@@Z
	??$_Construct_in_place@V?$_List_unchecked_iterator@V?$_List_val@U?$_List_simple_types@U?$pair@$$CBV?$basic_string@DU?$char_traits@D@std@@V?$allocator@D@2@@std@@Ullama_lora_weight@@@std@@@std@@@std@@@std@@AEBV12@@std@@YAXAEAV?$_List_unchecked_iterator@V?$_List_val@U?$_List_simple_types@U?$pair@$$CBV?$basic_string@DU?$char_traits@D@std@@V?$allocator@D@2@@std@@Ullama_lora_weight@@@std@@@std@@@std@@@0@AEBV10@@Z
	??$_Construct_in_place@V?$_List_unchecked_iterator@V?$_List_val@U?$_List_simple_types@U?$pair@$$CBV?$basic_string@DU?$char_traits@D@std@@V?$allocator@D@2@@std@@Ullama_model_kv_override@@@std@@@std@@@std@@@std@@AEBV12@@std@@YAXAEAV?$_List_unchecked_iterator@V?$_List_val@U?$_List_simple_types@U?$pair@$$CBV?$basic_string@DU?$char_traits@D@std@@V?$allocator@D@2@@std@@Ullama_model_kv_override@@@std@@@std@@@std@@@0@AEBV10@@Z
	??$_Construct_in_place@V?$_List_unchecked_iterator@V?$_List_val@U?$_List_simple_types@U?$pair@$$CBV?$basic_string@DU?$char_traits@D@std@@V?$allocator@D@2@@std@@V12@@std@@@std@@@std@@@std@@AEBV12@@std@@YAXAEAV?$_List_unchecked_iterator@V?$_List_val@U?$_List_simple_types@U?$pair@$$CBV?$basic_string@DU?$char_traits@D@std@@V?$allocator@D@2@@std@@V12@@std@@@std@@@std@@@0@AEBV10@@Z
	??$_Construct_in_place@V?$_List_unchecked_iterator@V?$_List_val@U?$_List_simple_types@U?$pair@QEAUllama_lora_adapter@@M@std@@@std@@@std@@@std@@AEBV12@@std@@YAXAEAV?$_List_unchecked_iterator@V?$_List_val@U?$_List_simple_types@U?$pair@QEAUllama_lora_adapter@@M@std@@@std@@@std@@@0@AEBV10@@Z
	??$_Construct_in_place@V?$basic_string@DU?$char_traits@D@std@@V?$allocator@D@2@@std@@$$V@std@@YAXAEAV?$basic_string@DU?$char_traits@D@std@@V?$allocator@D@2@@0@@Z
	??$_Construct_in_place@V?$future@U?$pair@PEAUggml_tensor@@_N@std@@@std@@V12@@std@@YAXAEAV?$future@U?$pair@PEAUggml_tensor@@_N@std@@@0@$$QEAV10@@Z
	??$_Construct_in_place@V?$unique_ptr@Ullama_file@@U?$default_delete@Ullama_file@@@std@@@std@@PEAUllama_file@@@std@@YAXAEAV?$unique_ptr@Ullama_file@@U?$default_delete@Ullama_file@@@std@@@0@$$QEAPEAUllama_file@@@Z
	??$_Construct_in_place@V?$unique_ptr@Ullama_mlock@@U?$default_delete@Ullama_mlock@@@std@@@std@@PEAUllama_mlock@@@std@@YAXAEAV?$unique_ptr@Ullama_mlock@@U?$default_delete@Ullama_mlock@@@std@@@0@$$QEAPEAUllama_mlock@@@Z
	??$_Construct_in_place@V?$unique_ptr@Ullama_mlock@@U?$default_delete@Ullama_mlock@@@std@@@std@@V12@@std@@YAXAEAV?$unique_ptr@Ullama_mlock@@U?$default_delete@Ullama_mlock@@@std@@@0@$$QEAV10@@Z
	??$_Construct_in_place@V?$unique_ptr@Ullama_mmap@@U?$default_delete@Ullama_mmap@@@std@@@std@@V12@@std@@YAXAEAV?$unique_ptr@Ullama_mmap@@U?$default_delete@Ullama_mmap@@@std@@@0@$$QEAV10@@Z
	??$_Construct_in_place@_KAEB_K@std@@YAXAEA_KAEB_K@Z
	??$_Construct_in_place@_K_J@std@@YAXAEA_K$$QEA_J@Z
	??$_Construct_in_place@_K_K@std@@YAXAEA_K$$QEA_K@Z
	??$_Construct_n@$$V@?$vector@DV?$allocator@D@std@@@std@@AEAAX_K@Z
	??$_Construct_n@$$V@?$vector@EV?$allocator@E@std@@@std@@AEAAX_K@Z
	??$_Construct_n@$$V@?$vector@HV?$allocator@H@std@@@std@@AEAAX_K@Z
	??$_Construct_n@$$V@?$vector@IV?$allocator@I@std@@@std@@AEAAX_K@Z
	??$_Construct_n@$$V@?$vector@MV?$allocator@M@std@@@std@@AEAAX_K@Z
	??$_Construct_n@$$V@?$vector@Ullama_token_data@@V?$allocator@Ullama_token_data@@@std@@@std@@AEAAX_K@Z
	??$_Construct_n@$$V@?$vector@V?$basic_string@DU?$char_traits@D@std@@V?$allocator@D@2@@std@@V?$allocator@V?$basic_string@DU?$char_traits@D@std@@V?$allocator@D@2@@std@@@2@@std@@AEAAX_K@Z
	??$_Construct_n@$$V@?$vector@V?$vector@Ullama_grammar_element@@V?$allocator@Ullama_grammar_element@@@std@@@std@@V?$allocator@V?$vector@Ullama_grammar_element@@V?$allocator@Ullama_grammar_element@@@std@@@std@@@2@@std@@AEAAX_K@Z
	??$_Construct_n@$$V@?$vector@_KV?$allocator@_K@std@@@std@@AEAAX_K@Z
	??$_Construct_n@AEBD@?$vector@DV?$allocator@D@std@@@std@@AEAAX_KAEBD@Z
	??$_Construct_n@AEBH@?$vector@HV?$allocator@H@std@@@std@@AEAAX_KAEBH@Z
	??$_Construct_n@AEBI@?$vector@IV?$allocator@I@std@@@std@@AEAAX_KAEBI@Z
	??$_Construct_n@AEBM@?$vector@MV?$allocator@M@std@@@std@@AEAAX_KAEBM@Z
	??$_Construct_n@AEBQEAIAEBQEAI@?$vector@IV?$allocator@I@std@@@std@@AEAAX_KAEBQEAI1@Z
	??$_Construct_n@AEBQEAPEAXAEBQEAPEAX@?$vector@PEAXV?$allocator@PEAX@std@@@std@@AEAAX_KAEBQEAPEAX1@Z
	??$_Construct_n@AEBQEAPEBUllama_grammar_element@@AEBQEAPEBU1@@?$vector@PEBUllama_grammar_element@@V?$allocator@PEBUllama_grammar_element@@@std@@@std@@AEAAX_KAEBQEAPEBUllama_grammar_element@@1@Z
	??$_Construct_n@AEBQEAU_Grp_t@?$_Tgt_state_t@PEBD@std@@AEBQEAU123@@?$vector@U_Grp_t@?$_Tgt_state_t@PEBD@std@@V?$allocator@U_Grp_t@?$_Tgt_state_t@PEBD@std@@@3@@std@@AEAAX_KAEBQEAU_Grp_t@?$_Tgt_state_t@PEBD@1@1@Z
	??$_Construct_n@AEBQEAU_Grp_t@?$_Tgt_state_t@PEB_W@std@@AEBQEAU123@@?$vector@U_Grp_t@?$_Tgt_state_t@PEB_W@std@@V?$allocator@U_Grp_t@?$_Tgt_state_t@PEB_W@std@@@3@@std@@AEAAX_KAEBQEAU_Grp_t@?$_Tgt_state_t@PEB_W@1@1@Z
	??$_Construct_n@AEBQEAUgguf_context@@@?$vector@PEAUgguf_context@@V?$allocator@PEAUgguf_context@@@std@@@std@@AEAAX_KAEBQEAUgguf_context@@@Z
	??$_Construct_n@AEBQEAUllama_grammar_element@@AEBQEAU1@@?$vector@Ullama_grammar_element@@V?$allocator@Ullama_grammar_element@@@std@@@std@@AEAAX_KAEBQEAUllama_grammar_element@@1@Z
	??$_Construct_n@AEBQEAV?$sub_match@PEBD@std@@AEBQEAV12@@?$vector@V?$sub_match@PEBD@std@@V?$allocator@V?$sub_match@PEBD@std@@@2@@std@@AEAAX_KAEBQEAV?$sub_match@PEBD@1@1@Z
	??$_Construct_n@AEBQEAV?$sub_match@PEB_W@std@@AEBQEAV12@@?$vector@V?$sub_match@PEB_W@std@@V?$allocator@V?$sub_match@PEB_W@std@@@2@@std@@AEAAX_KAEBQEAV?$sub_match@PEB_W@1@1@Z
	??$_Construct_n@AEBQEAV?$vector@PEBUllama_grammar_element@@V?$allocator@PEBUllama_grammar_element@@@std@@@std@@AEBQEAV12@@?$vector@V?$vector@PEBUllama_grammar_element@@V?$allocator@PEBUllama_grammar_element@@@std@@@std@@V?$allocator@V?$vector@PEBUllama_grammar_element@@V?$allocator@PEBUllama_grammar_element@@@std@@@std@@@2@@std@@AEAAX_KAEBQEAV?$vector@PEBUllama_grammar_element@@V?$allocator@PEBUllama_grammar_element@@@std@@@1@1@Z
	??$_Construct_n@AEBQEAV?$vector@Ullama_grammar_element@@V?$allocator@Ullama_grammar_element@@@std@@@std@@AEBQEAV12@@?$vector@V?$vector@Ullama_grammar_element@@V?$allocator@Ullama_grammar_element@@@std@@@std@@V?$allocator@V?$vector@Ullama_grammar_element@@V?$allocator@Ullama_grammar_element@@@std@@@std@@@2@@std@@AEAAX_KAEBQEAV?$vector@Ullama_grammar_element@@V?$allocator@Ullama_grammar_element@@@std@@@1@1@Z
	??$_Construct_n@AEBUbest_tokenization@llm_tokenizer_ugm@@@?$vector@Ubest_tokenization@llm_tokenizer_ugm@@V?$allocator@Ubest_tokenization@llm_tokenizer_ugm@@@std@@@std@@AEAAX_KAEBUbest_tokenization@llm_tokenizer_ugm@@@Z
	??$_Construct_n@AEBUcodepoint_flags@@@?$vector@Ucodepoint_flags@@V?$allocator@Ucodepoint_flags@@@std@@@std@@AEAAX_KAEBUcodepoint_flags@@@Z
	??$_Construct_n@AEBV?$basic_string@DU?$char_traits@D@std@@V?$allocator@D@2@@std@@@?$vector@V?$basic_string@DU?$char_traits@D@std@@V?$allocator@D@2@@std@@V?$allocator@V?$basic_string@DU?$char_traits@D@std@@V?$allocator@D@2@@std@@@2@@std@@AEAAX_KAEBV?$basic_string@DU?$char_traits@D@std@@V?$allocator@D@2@@1@@Z
	??$_Construct_n@AEB_K@?$vector@_KV?$allocator@_K@std@@@std@@AEAAX_KAEB_K@Z
	??$_Construct_n@PEADPEAD@?$vector@DV?$allocator@D@std@@@std@@AEAAX_K$$QEAPEAD1@Z
	??$_Construct_n@PEAMPEAM@?$vector@NV?$allocator@N@std@@@std@@AEAAX_K$$QEAPEAM1@Z
	??$_Construct_n@PEA_WPEA_W@?$vector@_WV?$allocator@_W@std@@@std@@AEAAX_K$$QEAPEA_W1@Z
	??$_Construct_n@PEBDPEBD@?$vector@DV?$allocator@D@std@@@std@@AEAAX_K$$QEAPEBD1@Z
	??$_Construct_n@PEBQEBUllama_grammar_element@@PEBQEBU1@@?$vector@PEBUllama_grammar_element@@V?$allocator@PEBUllama_grammar_element@@@std@@@std@@AEAAX_K$$QEAPEBQEBUllama_grammar_element@@1@Z
	??$_Construct_n@PEBU?$pair@IG@std@@PEBU12@@?$vector@U?$pair@IG@std@@V?$allocator@U?$pair@IG@std@@@2@@std@@AEAAX_K$$QEAPEBU?$pair@IG@1@1@Z
	??$_Construct_n@PEBU?$pair@W4llm_kv@@AEAH@std@@PEBU12@@?$vector@U?$pair@W4llm_kv@@AEAH@std@@V?$allocator@U?$pair@W4llm_kv@@AEAH@std@@@2@@std@@AEAAX_K$$QEAPEBU?$pair@W4llm_kv@@AEAH@1@1@Z
	??$_Construct_n@PEBUrange_nfd@@PEBU1@@?$vector@Urange_nfd@@V?$allocator@Urange_nfd@@@std@@@std@@AEAAX_K$$QEAPEBUrange_nfd@@1@Z
	??$_Construct_n@PEBV?$basic_string@DU?$char_traits@D@std@@V?$allocator@D@2@@std@@PEBV12@@?$vector@V?$basic_string@DU?$char_traits@D@std@@V?$allocator@D@2@@std@@V?$allocator@V?$basic_string@DU?$char_traits@D@std@@V?$allocator@D@2@@std@@@2@@std@@AEAAX_K$$QEAPEBV?$basic_string@DU?$char_traits@D@std@@V?$allocator@D@2@@1@1@Z
	??$_Construct_n@PEB_JPEB_J@?$vector@_JV?$allocator@_J@std@@@std@@AEAAX_K$$QEAPEB_J1@Z
	??$_Construct_n@PEB_KPEB_K@?$vector@_KV?$allocator@_K@std@@@std@@AEAAX_K$$QEAPEB_K1@Z
	??$_Construct_n@PEB_WPEB_W@?$vector@_WV?$allocator@_W@std@@@std@@AEAAX_K$$QEAPEB_W1@Z
	??$_Convert_size@_K_K@std@@YA_K_K@Z
	??$_Copy@$0A@@?$_Tree@V?$_Tmap_traits@W4llm_tensor@@V?$basic_string@DU?$char_traits@D@std@@V?$allocator@D@2@@std@@U?$less@W4llm_tensor@@@3@V?$allocator@U?$pair@$$CBW4llm_tensor@@V?$basic_string@DU?$char_traits@D@std@@V?$allocator@D@2@@std@@@std@@@3@$0A@@std@@@std@@IEAAXAEBV01@@Z
	??$_Copy@$0A@@?$_Tree@V?$_Tset_traits@HU?$less@H@std@@V?$allocator@H@2@$0A@@std@@@std@@IEAAXAEBV01@@Z
	??$_Copy_backward_memmove@PEAHPEAH@std@@YAPEAHPEAH00@Z
	??$_Copy_backward_memmove@PEAUllama_sbatch_seq@@PEAU1@@std@@YAPEAUllama_sbatch_seq@@PEAU1@00@Z
	??$_Copy_backward_memmove@PEAUllama_token_data@@PEAU1@@std@@YAPEAUllama_token_data@@PEAU1@00@Z
	??$_Copy_backward_memmove@PEA_KPEA_K@std@@YAPEA_KPEA_K00@Z
	??$_Copy_backward_unchecked@V?$_Vb_iterator@U?$_Wrap_alloc@V?$allocator@I@std@@@std@@@std@@V12@@std@@YA?AV?$_Vb_iterator@U?$_Wrap_alloc@V?$allocator@I@std@@@std@@@0@V10@00@Z
	??$_Copy_construct_from@U?$_Task_impl@E@details@Concurrency@@@?$_Ptr_base@U?$_Task_impl@E@details@Concurrency@@@std@@IEAAXAEBV?$shared_ptr@U?$_Task_impl@E@details@Concurrency@@@1@@Z
	??$_Copy_construct_from@U_ExceptionHolder@details@Concurrency@@@?$_Ptr_base@U_ExceptionHolder@details@Concurrency@@@std@@IEAAXAEBV?$shared_ptr@U_ExceptionHolder@details@Concurrency@@@1@@Z
	??$_Copy_construct_from@U_Task_impl_base@details@Concurrency@@@?$_Ptr_base@U_Task_impl_base@details@Concurrency@@@std@@IEAAXAEBV?$shared_ptr@U_Task_impl_base@details@Concurrency@@@1@@Z
	??$_Copy_construct_from@Uscheduler_interface@Concurrency@@@?$_Ptr_base@Uscheduler_interface@Concurrency@@@std@@IEAAXAEBV?$shared_ptr@Uscheduler_interface@Concurrency@@@1@@Z
	??$_Copy_memmove@PEACPEAC@std@@YAPEACPEAC00@Z
	??$_Copy_memmove@PEADPEAD@std@@YAPEADPEAD00@Z
	??$_Copy_memmove@PEAEPEAE@std@@YAPEAEPEAE00@Z
	??$_Copy_memmove@PEAHPEAH@std@@YAPEAHPEAH00@Z
	??$_Copy_memmove@PEAIPEAI@std@@YAPEAIPEAI00@Z
	??$_Copy_memmove@PEAMPEAM@std@@YAPEAMPEAM00@Z
	??$_Copy_memmove@PEANPEAN@std@@YAPEANPEAN00@Z
	??$_Copy_memmove@PEAPEAHPEAPEAH@std@@YAPEAPEAHPEAPEAH00@Z
	??$_Copy_memmove@PEAPEAUggml_backend@@PEAPEAU1@@std@@YAPEAPEAUggml_backend@@PEAPEAU1@00@Z
	??$_Copy_memmove@PEAPEAUggml_backend_buffer@@PEAPEAU1@@std@@YAPEAPEAUggml_backend_buffer@@PEAPEAU1@00@Z
	??$_Copy_memmove@PEAPEAUggml_backend_buffer_type@@PEAPEAU1@@std@@YAPEAPEAUggml_backend_buffer_type@@PEAPEAU1@00@Z
	??$_Copy_memmove@PEAPEAUggml_context@@PEAPEAU1@@std@@YAPEAPEAUggml_context@@PEAPEAU1@00@Z
	??$_Copy_memmove@PEAPEAUggml_tensor@@PEAPEAU1@@std@@YAPEAPEAUggml_tensor@@PEAPEAU1@00@Z
	??$_Copy_memmove@PEAPEAUllama_token_data@@PEAPEAU1@@std@@YAPEAPEAUllama_token_data@@PEAPEAU1@00@Z
	??$_Copy_memmove@PEAPEAXPEAPEAX@std@@YAPEAPEAXPEAPEAX00@Z
	??$_Copy_memmove@PEAPEBUllama_chat_message@@PEAPEBU1@@std@@YAPEAPEBUllama_chat_message@@PEAPEBU1@00@Z
	??$_Copy_memmove@PEAPEBUllama_grammar_element@@PEAPEBU1@@std@@YAPEAPEBUllama_grammar_element@@PEAPEBU1@00@Z
	??$_Copy_memmove@PEAU?$no_init@E@@PEAU1@@std@@YAPEAU?$no_init@E@@PEAU1@00@Z
	??$_Copy_memmove@PEAU?$no_init@M@@PEAU1@@std@@YAPEAU?$no_init@M@@PEAU1@00@Z
	??$_Copy_memmove@PEAU?$pair@II@std@@PEAU12@@std@@YAPEAU?$pair@II@0@PEAU10@00@Z
	??$_Copy_memmove@PEAU?$pair@_K_K@std@@PEAU12@@std@@YAPEAU?$pair@_K_K@0@PEAU10@00@Z
	??$_Copy_memmove@PEAU_Grp_t@?$_Tgt_state_t@PEBD@std@@PEAU123@@std@@YAPEAU_Grp_t@?$_Tgt_state_t@PEBD@0@PEAU120@00@Z
	??$_Copy_memmove@PEAU_Grp_t@?$_Tgt_state_t@PEB_W@std@@PEAU123@@std@@YAPEAU_Grp_t@?$_Tgt_state_t@PEB_W@0@PEAU120@00@Z
	??$_Copy_memmove@PEAU_Loop_vals_t@std@@PEAU12@@std@@YAPEAU_Loop_vals_t@0@PEAU10@00@Z
	??$_Copy_memmove@PEAUlayer_buft@llama_model@@PEAU12@@std@@YAPEAUlayer_buft@llama_model@@PEAU12@00@Z
	??$_Copy_memmove@PEAUllama_grammar_candidate@@PEAU1@@std@@YAPEAUllama_grammar_candidate@@PEAU1@00@Z
	??$_Copy_memmove@PEAUllama_grammar_element@@PEAU1@@std@@YAPEAUllama_grammar_element@@PEAU1@00@Z
	??$_Copy_memmove@PEAUllama_layer@@PEAU1@@std@@YAPEAUllama_layer@@PEAU1@00@Z
	??$_Copy_memmove@PEAUllama_sbatch_seq@@PEAU1@@std@@YAPEAUllama_sbatch_seq@@PEAU1@00@Z
	??$_Copy_memmove@PEAUllama_tensor_weight@llama_model_loader@@PEAU12@@std@@YAPEAUllama_tensor_weight@llama_model_loader@@PEAU12@00@Z
	??$_Copy_memmove@PEAUllama_token_data@@PEAU1@@std@@YAPEAUllama_token_data@@PEAU1@00@Z
	??$_Copy_memmove@PEAUllm_bigram_spm@@PEAU1@@std@@YAPEAUllm_bigram_spm@@PEAU1@00@Z
	??$_Copy_memmove@PEAUllm_symbol@@PEAU1@@std@@YAPEAUllm_symbol@@PEAU1@00@Z
	??$_Copy_memmove@PEAV?$sub_match@PEBD@std@@PEAV12@@std@@YAPEAV?$sub_match@PEBD@0@PEAV10@00@Z
	??$_Copy_memmove@PEAV?$sub_match@PEB_W@std@@PEAV12@@std@@YAPEAV?$sub_match@PEB_W@0@PEAV10@00@Z
	??$_Copy_memmove@PEA_KPEA_K@std@@YAPEA_KPEA_K00@Z
	??$_Copy_memmove@PEA_WPEA_W@std@@YAPEA_WPEA_W00@Z
	??$_Copy_memmove@PEBDPEAD@std@@YAPEADPEBD0PEAD@Z
	??$_Copy_memmove@PEBIPEAI@std@@YAPEAIPEBI0PEAI@Z
	??$_Copy_memmove@PEBMPEAM@std@@YAPEAMPEBM0PEAM@Z
	??$_Copy_memmove@PEBQEBUllama_grammar_element@@PEAPEBU1@@std@@YAPEAPEBUllama_grammar_element@@PEBQEBU1@0PEAPEBU1@@Z
	??$_Copy_memmove@PEBU?$pair@IG@std@@PEAU12@@std@@YAPEAU?$pair@IG@0@PEBU10@0PEAU10@@Z
	??$_Copy_memmove@PEBU?$pair@W4llm_kv@@AEAH@std@@PEAU12@@std@@YAPEAU?$pair@W4llm_kv@@AEAH@0@PEBU10@0PEAU10@@Z
	??$_Copy_memmove@PEBUrange_nfd@@PEAU1@@std@@YAPEAUrange_nfd@@PEBU1@0PEAU1@@Z
	??$_Copy_memmove@PEB_JPEA_J@std@@YAPEA_JPEB_J0PEA_J@Z
	??$_Copy_memmove@PEB_KPEA_K@std@@YAPEA_KPEB_K0PEA_K@Z
	??$_Copy_memmove@PEB_WPEA_W@std@@YAPEA_WPEB_W0PEA_W@Z
	??$_Copy_memmove_n@PEAIPEAI@std@@YAPEAIPEAI_K0@Z
	??$_Copy_memmove_n@PEAPEAXPEAPEAX@std@@YAPEAPEAXPEAPEAX_K0@Z
	??$_Copy_memmove_n@PEAPEBUllama_grammar_element@@PEAPEBU1@@std@@YAPEAPEBUllama_grammar_element@@PEAPEBU1@_K0@Z
	??$_Copy_memmove_n@PEAU_Grp_t@?$_Tgt_state_t@PEBD@std@@PEAU123@@std@@YAPEAU_Grp_t@?$_Tgt_state_t@PEBD@0@PEAU120@_K0@Z
	??$_Copy_memmove_n@PEAU_Grp_t@?$_Tgt_state_t@PEB_W@std@@PEAU123@@std@@YAPEAU_Grp_t@?$_Tgt_state_t@PEB_W@0@PEAU120@_K0@Z
	??$_Copy_memmove_n@PEAUllm_symbol@@PEAU1@@std@@YAPEAUllm_symbol@@PEAU1@_K0@Z
	??$_Copy_memmove_n@PEBDPEAD@std@@YAPEADPEBD_KPEAD@Z
	??$_Copy_n_unchecked4@PEAI_KPEAI@std@@YAPEAIPEAI_K0@Z
	??$_Copy_n_unchecked4@PEAPEAX_KPEAPEAX@std@@YAPEAPEAXPEAPEAX_K0@Z
	??$_Copy_n_unchecked4@PEAPEBUllama_grammar_element@@_KPEAPEBU1@@std@@YAPEAPEBUllama_grammar_element@@PEAPEBU1@_K0@Z
	??$_Copy_n_unchecked4@PEAU_Grp_t@?$_Tgt_state_t@PEBD@std@@_KPEAU123@@std@@YAPEAU_Grp_t@?$_Tgt_state_t@PEBD@0@PEAU120@_K0@Z
	??$_Copy_n_unchecked4@PEAU_Grp_t@?$_Tgt_state_t@PEB_W@std@@_KPEAU123@@std@@YAPEAU_Grp_t@?$_Tgt_state_t@PEB_W@0@PEAU120@_K0@Z
	??$_Copy_n_unchecked4@PEAUllm_symbol@@_KPEAU1@@std@@YAPEAUllm_symbol@@PEAU1@_K0@Z
	??$_Copy_n_unchecked4@PEAV?$vector@PEBUllama_grammar_element@@V?$allocator@PEBUllama_grammar_element@@@std@@@std@@_KPEAV12@@std@@YAPEAV?$vector@PEBUllama_grammar_element@@V?$allocator@PEBUllama_grammar_element@@@std@@@0@PEAV10@_K0@Z
	??$_Copy_n_unchecked4@PEBD_KPEAD@std@@YAPEADPEBD_KPEAD@Z
	??$_Copy_n_unchecked4@PEBI_KPEA_W@std@@YAPEA_WPEBI_KPEA_W@Z
	??$_Copy_n_unchecked4@PEBV?$basic_string@DU?$char_traits@D@std@@V?$allocator@D@2@@std@@_KPEAV12@@std@@YAPEAV?$basic_string@DU?$char_traits@D@std@@V?$allocator@D@2@@0@PEBV10@_KPEAV10@@Z
	??$_Copy_nodes@$0A@@?$_Tree@V?$_Tmap_traits@W4llm_tensor@@V?$basic_string@DU?$char_traits@D@std@@V?$allocator@D@2@@std@@U?$less@W4llm_tensor@@@3@V?$allocator@U?$pair@$$CBW4llm_tensor@@V?$basic_string@DU?$char_traits@D@std@@V?$allocator@D@2@@std@@@std@@@3@$0A@@std@@@std@@IEAAPEAU?$_Tree_node@U?$pair@$$CBW4llm_tensor@@V?$basic_string@DU?$char_traits@D@std@@V?$allocator@D@2@@std@@@std@@PEAX@1@PEAU21@0@Z
	??$_Copy_nodes@$0A@@?$_Tree@V?$_Tset_traits@HU?$less@H@std@@V?$allocator@H@2@$0A@@std@@@std@@IEAAPEAU?$_Tree_node@HPEAX@1@PEAU21@0@Z
	??$_Copy_or_move@$0A@H@?$_Tree@V?$_Tset_traits@HU?$less@H@std@@V?$allocator@H@2@$0A@@std@@@std@@IEAAPEAU?$_Tree_node@HPEAX@1@AEAH@Z
	??$_Copy_or_move@$0A@U?$pair@$$CBW4llm_tensor@@V?$basic_string@DU?$char_traits@D@std@@V?$allocator@D@2@@std@@@std@@@?$_Tree@V?$_Tmap_traits@W4llm_tensor@@V?$basic_string@DU?$char_traits@D@std@@V?$allocator@D@2@@std@@U?$less@W4llm_tensor@@@3@V?$allocator@U?$pair@$$CBW4llm_tensor@@V?$basic_string@DU?$char_traits@D@std@@V?$allocator@D@2@@std@@@std@@@3@$0A@@std@@@std@@IEAAPEAU?$_Tree_node@U?$pair@$$CBW4llm_tensor@@V?$basic_string@DU?$char_traits@D@std@@V?$allocator@D@2@@std@@@std@@PEAX@1@AEAU?$pair@$$CBW4llm_tensor@@V?$basic_string@DU?$char_traits@D@std@@V?$allocator@D@2@@std@@@1@@Z
	??$_Copy_unchecked@PEAUllama_token_data@@PEAU1@PEAU1@@std@@YAPEAUllama_token_data@@PEAU1@00@Z
	??$_Copy_unchecked@PEBDPEBDPEAD@std@@YAPEADPEBD0PEAD@Z
	??$_Copy_unchecked@PEBIPEBIPEAI@std@@YAPEAIPEBI0PEAI@Z
	??$_Copy_unchecked@PEBMPEBMPEAM@std@@YAPEAMPEBM0PEAM@Z
	??$_Copy_unchecked@V?$_Vb_iterator@U?$_Wrap_alloc@V?$allocator@I@std@@@std@@@std@@V12@V12@@std@@YA?AV?$_Vb_iterator@U?$_Wrap_alloc@V?$allocator@I@std@@@std@@@0@V10@00@Z
	??$_Copy_vbool@V?$_Vb_iterator@U?$_Wrap_alloc@V?$allocator@I@std@@@std@@@std@@V12@@std@@YA?AV?$_Vb_iterator@U?$_Wrap_alloc@V?$allocator@I@std@@@std@@@0@V10@00@Z
	??$_Could_compare_equal_to_value_type@PEAIH@std@@YA_NAEBH@Z
	??$_Could_compare_equal_to_value_type@PEBDE@std@@YA_NAEBE@Z
	??$_Could_compare_equal_to_value_type@PEB_WG@std@@YA_NAEBG@Z
	??$_Count_vectorized@IH@std@@YA_KQEAI0H@Z
	??$_Deallocate@$07@std@@YAXPEAX_K@Z
	??$_Deallocate@$0BA@@std@@YAXPEAX_K@Z
	??$_Deallocate_plain@V?$allocator@U_Container_proxy@std@@@std@@@std@@YAXAEAV?$allocator@U_Container_proxy@std@@@0@QEAU_Container_proxy@0@@Z
	??$_Debug_lt_pred@AEAU?$less@X@std@@AEAMAEAM@std@@YA_NAEAU?$less@X@0@AEAM1@Z
	??$_Debug_lt_pred@AEAUcomparator@llm_bigram_bpe@@AEAU2@AEAU2@@std@@YA_NAEAUcomparator@llm_bigram_bpe@@AEAU2@1@Z
	??$_Debug_lt_pred@AEAUcomparator@llm_bigram_spm@@AEAU2@AEAU2@@std@@YA_NAEAUcomparator@llm_bigram_spm@@AEAU2@1@Z
	??$_Debug_lt_pred@AEAV<lambda_313471036486df38593e8d47e8fa7539>@@AEAUllama_sbatch_seq@@AEAU2@@std@@YA_NAEAV<lambda_313471036486df38593e8d47e8fa7539>@@AEAUllama_sbatch_seq@@1@Z
	??$_Debug_lt_pred@AEAV<lambda_dbe0312d54f1cfd9e2926868c057ca79>@@AEA_KAEA_K@std@@YA_NAEAV<lambda_dbe0312d54f1cfd9e2926868c057ca79>@@AEA_K1@Z
	??$_Debug_lt_pred@AEBU?$less@D@std@@AEBDAEBD@std@@YA_NAEBU?$less@D@0@AEBD1@Z
	??$_Debug_lt_pred@AEBU?$less@H@std@@AEBHAEBH@std@@YA_NAEBU?$less@H@0@AEBH1@Z
	??$_Debug_lt_pred@AEBU?$less@PEAUggml_backend_buffer_type@@@std@@AEBQEAUggml_backend_buffer_type@@AEBQEAU3@@std@@YA_NAEBU?$less@PEAUggml_backend_buffer_type@@@0@AEBQEAUggml_backend_buffer_type@@1@Z
	??$_Debug_lt_pred@AEBU?$less@PEAUllama_lora_adapter@@@std@@AEBQEAUllama_lora_adapter@@AEBQEAU3@@std@@YA_NAEBU?$less@PEAUllama_lora_adapter@@@0@AEBQEAUllama_lora_adapter@@1@Z
	??$_Debug_lt_pred@AEBU?$less@U?$pair@V?$basic_string@DU?$char_traits@D@std@@V?$allocator@D@2@@std@@V12@@std@@@std@@AEBU?$pair@V?$basic_string@DU?$char_traits@D@std@@V?$allocator@D@2@@std@@V12@@2@AEBU32@@std@@YA_NAEBU?$less@U?$pair@V?$basic_string@DU?$char_traits@D@std@@V?$allocator@D@2@@std@@V12@@std@@@0@AEBU?$pair@V?$basic_string@DU?$char_traits@D@std@@V?$allocator@D@2@@std@@V12@@0@1@Z
	??$_Debug_lt_pred@AEBU?$less@V?$basic_string@DU?$char_traits@D@std@@V?$allocator@D@2@@std@@@std@@AEBV?$basic_string@DU?$char_traits@D@std@@V?$allocator@D@2@@2@AEBV32@@std@@YA_NAEBU?$less@V?$basic_string@DU?$char_traits@D@std@@V?$allocator@D@2@@std@@@0@AEBV?$basic_string@DU?$char_traits@D@std@@V?$allocator@D@2@@0@1@Z
	??$_Debug_lt_pred@AEBU?$less@W4ggml_type@@@std@@AEBW4ggml_type@@AEBW43@@std@@YA_NAEBU?$less@W4ggml_type@@@0@AEBW4ggml_type@@1@Z
	??$_Debug_lt_pred@AEBU?$less@W4llama_rope_scaling_type@@@std@@AEBW4llama_rope_scaling_type@@AEBW43@@std@@YA_NAEBU?$less@W4llama_rope_scaling_type@@@0@AEBW4llama_rope_scaling_type@@1@Z
	??$_Debug_lt_pred@AEBU?$less@W4llm_arch@@@std@@AEBW4llm_arch@@AEBW43@@std@@YA_NAEBU?$less@W4llm_arch@@@0@AEBW4llm_arch@@1@Z
	??$_Debug_lt_pred@AEBU?$less@W4llm_kv@@@std@@AEBW4llm_kv@@AEBW43@@std@@YA_NAEBU?$less@W4llm_kv@@@0@AEBW4llm_kv@@1@Z
	??$_Debug_lt_pred@AEBU?$less@W4llm_tensor@@@std@@AEBW4llm_tensor@@AEBW43@@std@@YA_NAEBU?$less@W4llm_tensor@@@0@AEBW4llm_tensor@@1@Z
	??$_Delete_plain_internal@V?$allocator@U_Container_proxy@std@@@std@@@std@@YAXAEAV?$allocator@U_Container_proxy@std@@@0@QEAU_Container_proxy@0@@Z
	??$_Destroy_in_place@PEAD@std@@YAXAEAPEAD@Z
	??$_Destroy_in_place@PEAU?$_Flist_node@Ufragment_buffer_variant@@PEAX@std@@@std@@YAXAEAPEAU?$_Flist_node@Ufragment_buffer_variant@@PEAX@0@@Z
	??$_Destroy_in_place@PEAU?$_List_node@IPEAX@std@@@std@@YAXAEAPEAU?$_List_node@IPEAX@0@@Z
	??$_Destroy_in_place@PEAU?$_List_node@U?$pair@$$CBEV?$basic_string@DU?$char_traits@D@std@@V?$allocator@D@2@@std@@@std@@PEAX@std@@@std@@YAXAEAPEAU?$_List_node@U?$pair@$$CBEV?$basic_string@DU?$char_traits@D@std@@V?$allocator@D@2@@std@@@std@@PEAX@0@@Z
	??$_Destroy_in_place@PEAU?$_List_node@U?$pair@$$CBHH@std@@PEAX@std@@@std@@YAXAEAPEAU?$_List_node@U?$pair@$$CBHH@std@@PEAX@0@@Z
	??$_Destroy_in_place@PEAU?$_List_node@U?$pair@$$CBII@std@@PEAX@std@@@std@@YAXAEAPEAU?$_List_node@U?$pair@$$CBII@std@@PEAX@0@@Z
	??$_Destroy_in_place@PEAU?$_List_node@U?$pair@$$CBIPEAUggml_backend_buffer@@@std@@PEAX@std@@@std@@YAXAEAPEAU?$_List_node@U?$pair@$$CBIPEAUggml_backend_buffer@@@std@@PEAX@0@@Z
	??$_Destroy_in_place@PEAU?$_List_node@U?$pair@$$CBV?$basic_string@DU?$char_traits@D@std@@V?$allocator@D@2@@std@@E@std@@PEAX@std@@@std@@YAXAEAPEAU?$_List_node@U?$pair@$$CBV?$basic_string@DU?$char_traits@D@std@@V?$allocator@D@2@@std@@E@std@@PEAX@0@@Z
	??$_Destroy_in_place@PEAU?$_List_node@U?$pair@$$CBV?$basic_string@DU?$char_traits@D@std@@V?$allocator@D@2@@std@@H@std@@PEAX@std@@@std@@YAXAEAPEAU?$_List_node@U?$pair@$$CBV?$basic_string@DU?$char_traits@D@std@@V?$allocator@D@2@@std@@H@std@@PEAX@0@@Z
	??$_Destroy_in_place@PEAU?$_List_node@U?$pair@$$CBV?$basic_string@DU?$char_traits@D@std@@V?$allocator@D@2@@std@@Ullama_lora_weight@@@std@@PEAX@std@@@std@@YAXAEAPEAU?$_List_node@U?$pair@$$CBV?$basic_string@DU?$char_traits@D@std@@V?$allocator@D@2@@std@@Ullama_lora_weight@@@std@@PEAX@0@@Z
	??$_Destroy_in_place@PEAU?$_List_node@U?$pair@$$CBV?$basic_string@DU?$char_traits@D@std@@V?$allocator@D@2@@std@@Ullama_model_kv_override@@@std@@PEAX@std@@@std@@YAXAEAPEAU?$_List_node@U?$pair@$$CBV?$basic_string@DU?$char_traits@D@std@@V?$allocator@D@2@@std@@Ullama_model_kv_override@@@std@@PEAX@0@@Z
	??$_Destroy_in_place@PEAU?$_List_node@U?$pair@$$CBV?$basic_string@DU?$char_traits@D@std@@V?$allocator@D@2@@std@@V12@@std@@PEAX@std@@@std@@YAXAEAPEAU?$_List_node@U?$pair@$$CBV?$basic_string@DU?$char_traits@D@std@@V?$allocator@D@2@@std@@V12@@std@@PEAX@0@@Z
	??$_Destroy_in_place@PEAU?$_List_node@U?$pair@QEAUllama_lora_adapter@@M@std@@PEAX@std@@@std@@YAXAEAPEAU?$_List_node@U?$pair@QEAUllama_lora_adapter@@M@std@@PEAX@0@@Z
	??$_Destroy_in_place@PEAU?$_Tree_node@HPEAX@std@@@std@@YAXAEAPEAU?$_Tree_node@HPEAX@0@@Z
	??$_Destroy_in_place@PEAU?$_Tree_node@PEAUllama_lora_adapter@@PEAX@std@@@std@@YAXAEAPEAU?$_Tree_node@PEAUllama_lora_adapter@@PEAX@0@@Z
	??$_Destroy_in_place@PEAU?$_Tree_node@U?$pair@$$CBDUnaive_trie@@@std@@PEAX@std@@@std@@YAXAEAPEAU?$_Tree_node@U?$pair@$$CBDUnaive_trie@@@std@@PEAX@0@@Z
	??$_Destroy_in_place@PEAU?$_Tree_node@U?$pair@$$CBHH@std@@PEAX@std@@@std@@YAXAEAPEAU?$_Tree_node@U?$pair@$$CBHH@std@@PEAX@0@@Z
	??$_Destroy_in_place@PEAU?$_Tree_node@U?$pair@$$CBHV?$basic_string@DU?$char_traits@D@std@@V?$allocator@D@2@@std@@@std@@PEAX@std@@@std@@YAXAEAPEAU?$_Tree_node@U?$pair@$$CBHV?$basic_string@DU?$char_traits@D@std@@V?$allocator@D@2@@std@@@std@@PEAX@0@@Z
	??$_Destroy_in_place@PEAU?$_Tree_node@U?$pair@$$CBHV?$vector@MV?$allocator@M@std@@@std@@@std@@PEAX@std@@@std@@YAXAEAPEAU?$_Tree_node@U?$pair@$$CBHV?$vector@MV?$allocator@M@std@@@std@@@std@@PEAX@0@@Z
	??$_Destroy_in_place@PEAU?$_Tree_node@U?$pair@$$CBU?$pair@V?$basic_string@DU?$char_traits@D@std@@V?$allocator@D@2@@std@@V12@@std@@H@std@@PEAX@std@@@std@@YAXAEAPEAU?$_Tree_node@U?$pair@$$CBU?$pair@V?$basic_string@DU?$char_traits@D@std@@V?$allocator@D@2@@std@@V12@@std@@H@std@@PEAX@0@@Z
	??$_Destroy_in_place@PEAU?$_Tree_node@U?$pair@$$CBV?$basic_string@DU?$char_traits@D@std@@V?$allocator@D@2@@std@@H@std@@PEAX@std@@@std@@YAXAEAPEAU?$_Tree_node@U?$pair@$$CBV?$basic_string@DU?$char_traits@D@std@@V?$allocator@D@2@@std@@H@std@@PEAX@0@@Z
	??$_Destroy_in_place@PEAU?$_Tree_node@U?$pair@$$CBV?$basic_string@DU?$char_traits@D@std@@V?$allocator@D@2@@std@@U?$pair@HH@2@@std@@PEAX@std@@@std@@YAXAEAPEAU?$_Tree_node@U?$pair@$$CBV?$basic_string@DU?$char_traits@D@std@@V?$allocator@D@2@@std@@U?$pair@HH@2@@std@@PEAX@0@@Z
	??$_Destroy_in_place@PEAU?$_Tree_node@U?$pair@$$CBV?$basic_string@DU?$char_traits@D@std@@V?$allocator@D@2@@std@@Ullama_lora_weight@@@std@@PEAX@std@@@std@@YAXAEAPEAU?$_Tree_node@U?$pair@$$CBV?$basic_string@DU?$char_traits@D@std@@V?$allocator@D@2@@std@@Ullama_lora_weight@@@std@@PEAX@0@@Z
	??$_Destroy_in_place@PEAU?$_Tree_node@U?$pair@$$CBW4ggml_type@@I@std@@PEAX@std@@@std@@YAXAEAPEAU?$_Tree_node@U?$pair@$$CBW4ggml_type@@I@std@@PEAX@0@@Z
	??$_Destroy_in_place@PEAU?$_Tree_node@U?$pair@$$CBW4llama_rope_scaling_type@@PEBD@std@@PEAX@std@@@std@@YAXAEAPEAU?$_Tree_node@U?$pair@$$CBW4llama_rope_scaling_type@@PEBD@std@@PEAX@0@@Z
	??$_Destroy_in_place@PEAU?$_Tree_node@U?$pair@$$CBW4llm_arch@@PEBD@std@@PEAX@std@@@std@@YAXAEAPEAU?$_Tree_node@U?$pair@$$CBW4llm_arch@@PEBD@std@@PEAX@0@@Z
	??$_Destroy_in_place@PEAU?$_Tree_node@U?$pair@$$CBW4llm_arch@@V?$map@W4llm_tensor@@V?$basic_string@DU?$char_traits@D@std@@V?$allocator@D@2@@std@@U?$less@W4llm_tensor@@@3@V?$allocator@U?$pair@$$CBW4llm_tensor@@V?$basic_string@DU?$char_traits@D@std@@V?$allocator@D@2@@std@@@std@@@3@@std@@@std@@PEAX@std@@@std@@YAXAEAPEAU?$_Tree_node@U?$pair@$$CBW4llm_arch@@V?$map@W4llm_tensor@@V?$basic_string@DU?$char_traits@D@std@@V?$allocator@D@2@@std@@U?$less@W4llm_tensor@@@3@V?$allocator@U?$pair@$$CBW4llm_tensor@@V?$basic_string@DU?$char_traits@D@std@@V?$allocator@D@2@@std@@@std@@@3@@std@@@std@@PEAX@0@@Z
	??$_Destroy_in_place@PEAU?$_Tree_node@U?$pair@$$CBW4llm_kv@@PEBD@std@@PEAX@std@@@std@@YAXAEAPEAU?$_Tree_node@U?$pair@$$CBW4llm_kv@@PEBD@std@@PEAX@0@@Z
	??$_Destroy_in_place@PEAU?$_Tree_node@U?$pair@$$CBW4llm_tensor@@V?$basic_string@DU?$char_traits@D@std@@V?$allocator@D@2@@std@@@std@@PEAX@std@@@std@@YAXAEAPEAU?$_Tree_node@U?$pair@$$CBW4llm_tensor@@V?$basic_string@DU?$char_traits@D@std@@V?$allocator@D@2@@std@@@std@@PEAX@0@@Z
	??$_Destroy_in_place@PEAU?$_Tree_node@U?$pair@QEAUggml_backend_buffer_type@@H@std@@PEAX@std@@@std@@YAXAEAPEAU?$_Tree_node@U?$pair@QEAUggml_backend_buffer_type@@H@std@@PEAX@0@@Z
	??$_Destroy_in_place@PEAU?$_Tree_node@U?$pair@QEAUggml_backend_buffer_type@@PEAUggml_context@@@std@@PEAX@std@@@std@@YAXAEAPEAU?$_Tree_node@U?$pair@QEAUggml_backend_buffer_type@@PEAUggml_context@@@std@@PEAX@0@@Z
	??$_Destroy_in_place@PEAU?$_Tree_node@V?$basic_string@DU?$char_traits@D@std@@V?$allocator@D@2@@std@@PEAX@std@@@std@@YAXAEAPEAU?$_Tree_node@V?$basic_string@DU?$char_traits@D@std@@V?$allocator@D@2@@std@@PEAX@0@@Z
	??$_Destroy_in_place@PEA_W@std@@YAXAEAPEA_W@Z
	??$_Destroy_in_place@U?$_Task_impl@E@details@Concurrency@@@std@@YAXAEAU?$_Task_impl@E@details@Concurrency@@@Z
	??$_Destroy_in_place@U_ExceptionHolder@details@Concurrency@@@std@@YAXAEAU_ExceptionHolder@details@Concurrency@@@Z
	??$_Destroy_range@PEAV?$_List_unchecked_const_iterator@V?$_List_val@U?$_List_simple_types@I@std@@@std@@U_Iterator_base0@2@@std@@PEAV12@@std@@YAXPEAV?$_List_unchecked_const_iterator@V?$_List_val@U?$_List_simple_types@I@std@@@std@@U_Iterator_base0@2@@0@QEAV10@@Z
	??$_Destroy_range@PEAV?$_List_unchecked_iterator@V?$_List_val@U?$_List_simple_types@U?$pair@$$CBEV?$basic_string@DU?$char_traits@D@std@@V?$allocator@D@2@@std@@@std@@@std@@@std@@@std@@PEAV12@@std@@YAXPEAV?$_List_unchecked_iterator@V?$_List_val@U?$_List_simple_types@U?$pair@$$CBEV?$basic_string@DU?$char_traits@D@std@@V?$allocator@D@2@@std@@@std@@@std@@@std@@@0@QEAV10@@Z
	??$_Destroy_range@PEAV?$_List_unchecked_iterator@V?$_List_val@U?$_List_simple_types@U?$pair@$$CBHH@std@@@std@@@std@@@std@@PEAV12@@std@@YAXPEAV?$_List_unchecked_iterator@V?$_List_val@U?$_List_simple_types@U?$pair@$$CBHH@std@@@std@@@std@@@0@QEAV10@@Z
	??$_Destroy_range@PEAV?$_List_unchecked_iterator@V?$_List_val@U?$_List_simple_types@U?$pair@$$CBII@std@@@std@@@std@@@std@@PEAV12@@std@@YAXPEAV?$_List_unchecked_iterator@V?$_List_val@U?$_List_simple_types@U?$pair@$$CBII@std@@@std@@@std@@@0@QEAV10@@Z
	??$_Destroy_range@PEAV?$_List_unchecked_iterator@V?$_List_val@U?$_List_simple_types@U?$pair@$$CBIPEAUggml_backend_buffer@@@std@@@std@@@std@@@std@@PEAV12@@std@@YAXPEAV?$_List_unchecked_iterator@V?$_List_val@U?$_List_simple_types@U?$pair@$$CBIPEAUggml_backend_buffer@@@std@@@std@@@std@@@0@QEAV10@@Z
	??$_Destroy_range@PEAV?$_List_unchecked_iterator@V?$_List_val@U?$_List_simple_types@U?$pair@$$CBV?$basic_string@DU?$char_traits@D@std@@V?$allocator@D@2@@std@@E@std@@@std@@@std@@@std@@PEAV12@@std@@YAXPEAV?$_List_unchecked_iterator@V?$_List_val@U?$_List_simple_types@U?$pair@$$CBV?$basic_string@DU?$char_traits@D@std@@V?$allocator@D@2@@std@@E@std@@@std@@@std@@@0@QEAV10@@Z
	??$_Destroy_range@PEAV?$_List_unchecked_iterator@V?$_List_val@U?$_List_simple_types@U?$pair@$$CBV?$basic_string@DU?$char_traits@D@std@@V?$allocator@D@2@@std@@H@std@@@std@@@std@@@std@@PEAV12@@std@@YAXPEAV?$_List_unchecked_iterator@V?$_List_val@U?$_List_simple_types@U?$pair@$$CBV?$basic_string@DU?$char_traits@D@std@@V?$allocator@D@2@@std@@H@std@@@std@@@std@@@0@QEAV10@@Z
	??$_Destroy_range@PEAV?$_List_unchecked_iterator@V?$_List_val@U?$_List_simple_types@U?$pair@$$CBV?$basic_string@DU?$char_traits@D@std@@V?$allocator@D@2@@std@@Ullama_lora_weight@@@std@@@std@@@std@@@std@@PEAV12@@std@@YAXPEAV?$_List_unchecked_iterator@V?$_List_val@U?$_List_simple_types@U?$pair@$$CBV?$basic_string@DU?$char_traits@D@std@@V?$allocator@D@2@@std@@Ullama_lora_weight@@@std@@@std@@@std@@@0@QEAV10@@Z
	??$_Destroy_range@PEAV?$_List_unchecked_iterator@V?$_List_val@U?$_List_simple_types@U?$pair@$$CBV?$basic_string@DU?$char_traits@D@std@@V?$allocator@D@2@@std@@Ullama_model_kv_override@@@std@@@std@@@std@@@std@@PEAV12@@std@@YAXPEAV?$_List_unchecked_iterator@V?$_List_val@U?$_List_simple_types@U?$pair@$$CBV?$basic_string@DU?$char_traits@D@std@@V?$allocator@D@2@@std@@Ullama_model_kv_override@@@std@@@std@@@std@@@0@QEAV10@@Z
	??$_Destroy_range@PEAV?$_List_unchecked_iterator@V?$_List_val@U?$_List_simple_types@U?$pair@$$CBV?$basic_string@DU?$char_traits@D@std@@V?$allocator@D@2@@std@@V12@@std@@@std@@@std@@@std@@PEAV12@@std@@YAXPEAV?$_List_unchecked_iterator@V?$_List_val@U?$_List_simple_types@U?$pair@$$CBV?$basic_string@DU?$char_traits@D@std@@V?$allocator@D@2@@std@@V12@@std@@@std@@@std@@@0@QEAV10@@Z
	??$_Destroy_range@PEAV?$_List_unchecked_iterator@V?$_List_val@U?$_List_simple_types@U?$pair@QEAUllama_lora_adapter@@M@std@@@std@@@std@@@std@@PEAV12@@std@@YAXPEAV?$_List_unchecked_iterator@V?$_List_val@U?$_List_simple_types@U?$pair@QEAUllama_lora_adapter@@M@std@@@std@@@std@@@0@QEAV10@@Z
	??$_Destroy_range@V?$allocator@C@std@@@std@@YAXPEACQEACAEAV?$allocator@C@0@@Z
	??$_Destroy_range@V?$allocator@D@std@@@std@@YAXPEADQEADAEAV?$allocator@D@0@@Z
	??$_Destroy_range@V?$allocator@E@std@@@std@@YAXPEAEQEAEAEAV?$allocator@E@0@@Z
	??$_Destroy_range@V?$allocator@H@std@@@std@@YAXPEAHQEAHAEAV?$allocator@H@0@@Z
	??$_Destroy_range@V?$allocator@I@std@@@std@@YAXPEAIQEAIAEAV?$allocator@I@0@@Z
	??$_Destroy_range@V?$allocator@M@std@@@std@@YAXPEAMQEAMAEAV?$allocator@M@0@@Z
	??$_Destroy_range@V?$allocator@N@std@@@std@@YAXPEANQEANAEAV?$allocator@N@0@@Z
	??$_Destroy_range@V?$allocator@PEAH@std@@@std@@YAXPEAPEAHQEAPEAHAEAV?$allocator@PEAH@0@@Z
	??$_Destroy_range@V?$allocator@PEAUggml_backend@@@std@@@std@@YAXPEAPEAUggml_backend@@QEAPEAU1@AEAV?$allocator@PEAUggml_backend@@@0@@Z
	??$_Destroy_range@V?$allocator@PEAUggml_backend_buffer@@@std@@@std@@YAXPEAPEAUggml_backend_buffer@@QEAPEAU1@AEAV?$allocator@PEAUggml_backend_buffer@@@0@@Z
	??$_Destroy_range@V?$allocator@PEAUggml_backend_buffer_type@@@std@@@std@@YAXPEAPEAUggml_backend_buffer_type@@QEAPEAU1@AEAV?$allocator@PEAUggml_backend_buffer_type@@@0@@Z
	??$_Destroy_range@V?$allocator@PEAUggml_context@@@std@@@std@@YAXPEAPEAUggml_context@@QEAPEAU1@AEAV?$allocator@PEAUggml_context@@@0@@Z
	??$_Destroy_range@V?$allocator@PEAUggml_tensor@@@std@@@std@@YAXPEAPEAUggml_tensor@@QEAPEAU1@AEAV?$allocator@PEAUggml_tensor@@@0@@Z
	??$_Destroy_range@V?$allocator@PEAUgguf_context@@@std@@@std@@YAXPEAPEAUgguf_context@@QEAPEAU1@AEAV?$allocator@PEAUgguf_context@@@0@@Z
	??$_Destroy_range@V?$allocator@PEAUllama_token_data@@@std@@@std@@YAXPEAPEAUllama_token_data@@QEAPEAU1@AEAV?$allocator@PEAUllama_token_data@@@0@@Z
	??$_Destroy_range@V?$allocator@PEAX@std@@@std@@YAXPEAPEAXQEAPEAXAEAV?$allocator@PEAX@0@@Z
	??$_Destroy_range@V?$allocator@PEBUllama_chat_message@@@std@@@std@@YAXPEAPEBUllama_chat_message@@QEAPEBU1@AEAV?$allocator@PEBUllama_chat_message@@@0@@Z
	??$_Destroy_range@V?$allocator@PEBUllama_grammar_element@@@std@@@std@@YAXPEAPEBUllama_grammar_element@@QEAPEBU1@AEAV?$allocator@PEBUllama_grammar_element@@@0@@Z
	??$_Destroy_range@V?$allocator@U?$no_init@E@@@std@@@std@@YAXPEAU?$no_init@E@@QEAU1@AEAV?$allocator@U?$no_init@E@@@0@@Z
	??$_Destroy_range@V?$allocator@U?$no_init@M@@@std@@@std@@YAXPEAU?$no_init@M@@QEAU1@AEAV?$allocator@U?$no_init@M@@@0@@Z
	??$_Destroy_range@V?$allocator@U?$pair@IG@std@@@std@@@std@@YAXPEAU?$pair@IG@0@QEAU10@AEAV?$allocator@U?$pair@IG@std@@@0@@Z
	??$_Destroy_range@V?$allocator@U?$pair@II@std@@@std@@@std@@YAXPEAU?$pair@II@0@QEAU10@AEAV?$allocator@U?$pair@II@std@@@0@@Z
	??$_Destroy_range@V?$allocator@U?$pair@PEAUggml_context@@V?$unordered_map@IPEAUggml_backend_buffer@@U?$hash@I@std@@U?$equal_to@I@3@V?$allocator@U?$pair@$$CBIPEAUggml_backend_buffer@@@std@@@3@@std@@@std@@@std@@@std@@YAXPEAU?$pair@PEAUggml_context@@V?$unordered_map@IPEAUggml_backend_buffer@@U?$hash@I@std@@U?$equal_to@I@3@V?$allocator@U?$pair@$$CBIPEAUggml_backend_buffer@@@std@@@3@@std@@@0@QEAU10@AEAV?$allocator@U?$pair@PEAUggml_context@@V?$unordered_map@IPEAUggml_backend_buffer@@U?$hash@I@std@@U?$equal_to@I@3@V?$allocator@U?$pair@$$CBIPEAUggml_backend_buffer@@@std@@@3@@std@@@std@@@0@@Z
	??$_Destroy_range@V?$allocator@U?$pair@V?$basic_string@DU?$char_traits@D@std@@V?$allocator@D@2@@std@@PEAUggml_tensor@@@std@@@std@@@std@@YAXPEAU?$pair@V?$basic_string@DU?$char_traits@D@std@@V?$allocator@D@2@@std@@PEAUggml_tensor@@@0@QEAU10@AEAV?$allocator@U?$pair@V?$basic_string@DU?$char_traits@D@std@@V?$allocator@D@2@@std@@PEAUggml_tensor@@@std@@@0@@Z
	??$_Destroy_range@V?$allocator@U?$pair@V?$vector@IV?$allocator@I@std@@@std@@Ullama_partial_utf8@@@std@@@std@@@std@@YAXPEAU?$pair@V?$vector@IV?$allocator@I@std@@@std@@Ullama_partial_utf8@@@0@QEAU10@AEAV?$allocator@U?$pair@V?$vector@IV?$allocator@I@std@@@std@@Ullama_partial_utf8@@@std@@@0@@Z
	??$_Destroy_range@V?$allocator@U?$pair@W4llm_kv@@AEAH@std@@@std@@@std@@YAXPEAU?$pair@W4llm_kv@@AEAH@0@QEAU10@AEAV?$allocator@U?$pair@W4llm_kv@@AEAH@std@@@0@@Z
	??$_Destroy_range@V?$allocator@U?$pair@_K_K@std@@@std@@@std@@YAXPEAU?$pair@_K_K@0@QEAU10@AEAV?$allocator@U?$pair@_K_K@std@@@0@@Z
	??$_Destroy_range@V?$allocator@U_Grp_t@?$_Tgt_state_t@PEBD@std@@@std@@@std@@YAXPEAU_Grp_t@?$_Tgt_state_t@PEBD@0@QEAU120@AEAV?$allocator@U_Grp_t@?$_Tgt_state_t@PEBD@std@@@0@@Z
	??$_Destroy_range@V?$allocator@U_Grp_t@?$_Tgt_state_t@PEB_W@std@@@std@@@std@@YAXPEAU_Grp_t@?$_Tgt_state_t@PEB_W@0@QEAU120@AEAV?$allocator@U_Grp_t@?$_Tgt_state_t@PEB_W@std@@@0@@Z
	??$_Destroy_range@V?$allocator@U_Loop_vals_t@std@@@std@@@std@@YAXPEAU_Loop_vals_t@0@QEAU10@AEAV?$allocator@U_Loop_vals_t@std@@@0@@Z
	??$_Destroy_range@V?$allocator@Ubest_tokenization@llm_tokenizer_ugm@@@std@@@std@@YAXPEAUbest_tokenization@llm_tokenizer_ugm@@QEAU12@AEAV?$allocator@Ubest_tokenization@llm_tokenizer_ugm@@@0@@Z
	??$_Destroy_range@V?$allocator@Ucodepoint_flags@@@std@@@std@@YAXPEAUcodepoint_flags@@QEAU1@AEAV?$allocator@Ucodepoint_flags@@@0@@Z
	??$_Destroy_range@V?$allocator@Ulayer_buft@llama_model@@@std@@@std@@YAXPEAUlayer_buft@llama_model@@QEAU12@AEAV?$allocator@Ulayer_buft@llama_model@@@0@@Z
	??$_Destroy_range@V?$allocator@Ullama_grammar_candidate@@@std@@@std@@YAXPEAUllama_grammar_candidate@@QEAU1@AEAV?$allocator@Ullama_grammar_candidate@@@0@@Z
	??$_Destroy_range@V?$allocator@Ullama_grammar_element@@@std@@@std@@YAXPEAUllama_grammar_element@@QEAU1@AEAV?$allocator@Ullama_grammar_element@@@0@@Z
	??$_Destroy_range@V?$allocator@Ullama_kv_cell@@@std@@@std@@YAXPEAUllama_kv_cell@@QEAU1@AEAV?$allocator@Ullama_kv_cell@@@0@@Z
	??$_Destroy_range@V?$allocator@Ullama_layer@@@std@@@std@@YAXPEAUllama_layer@@QEAU1@AEAV?$allocator@Ullama_layer@@@0@@Z
	??$_Destroy_range@V?$allocator@Ullama_sbatch_seq@@@std@@@std@@YAXPEAUllama_sbatch_seq@@QEAU1@AEAV?$allocator@Ullama_sbatch_seq@@@0@@Z
	??$_Destroy_range@V?$allocator@Ullama_tensor_weight@llama_model_loader@@@std@@@std@@YAXPEAUllama_tensor_weight@llama_model_loader@@QEAU12@AEAV?$allocator@Ullama_tensor_weight@llama_model_loader@@@0@@Z
	??$_Destroy_range@V?$allocator@Ullama_token_data@@@std@@@std@@YAXPEAUllama_token_data@@QEAU1@AEAV?$allocator@Ullama_token_data@@@0@@Z
	??$_Destroy_range@V?$allocator@Ullm_bigram_bpe@@@std@@@std@@YAXPEAUllm_bigram_bpe@@QEAU1@AEAV?$allocator@Ullm_bigram_bpe@@@0@@Z
	??$_Destroy_range@V?$allocator@Ullm_bigram_spm@@@std@@@std@@YAXPEAUllm_bigram_spm@@QEAU1@AEAV?$allocator@Ullm_bigram_spm@@@0@@Z
	??$_Destroy_range@V?$allocator@Ullm_symbol@@@std@@@std@@YAXPEAUllm_symbol@@QEAU1@AEAV?$allocator@Ullm_symbol@@@0@@Z
	??$_Destroy_range@V?$allocator@Urange_nfd@@@std@@@std@@YAXPEAUrange_nfd@@QEAU1@AEAV?$allocator@Urange_nfd@@@0@@Z
	??$_Destroy_range@V?$allocator@Utoken_data@llama_vocab@@@std@@@std@@YAXPEAUtoken_data@llama_vocab@@QEAU12@AEAV?$allocator@Utoken_data@llama_vocab@@@0@@Z
	??$_Destroy_range@V?$allocator@V?$basic_string@DU?$char_traits@D@std@@V?$allocator@D@2@@std@@@std@@@std@@YAXPEAV?$basic_string@DU?$char_traits@D@std@@V?$allocator@D@2@@0@QEAV10@AEAV?$allocator@V?$basic_string@DU?$char_traits@D@std@@V?$allocator@D@2@@std@@@0@@Z
	??$_Destroy_range@V?$allocator@V?$future@U?$pair@PEAUggml_tensor@@_N@std@@@std@@@std@@@std@@YAXPEAV?$future@U?$pair@PEAUggml_tensor@@_N@std@@@0@QEAV10@AEAV?$allocator@V?$future@U?$pair@PEAUggml_tensor@@_N@std@@@std@@@0@@Z
	??$_Destroy_range@V?$allocator@V?$set@HU?$less@H@std@@V?$allocator@H@2@@std@@@std@@@std@@YAXPEAV?$set@HU?$less@H@std@@V?$allocator@H@2@@0@QEAV10@AEAV?$allocator@V?$set@HU?$less@H@std@@V?$allocator@H@2@@std@@@0@@Z
	??$_Destroy_range@V?$allocator@V?$sub_match@PEBD@std@@@std@@@std@@YAXPEAV?$sub_match@PEBD@0@QEAV10@AEAV?$allocator@V?$sub_match@PEBD@std@@@0@@Z
	??$_Destroy_range@V?$allocator@V?$sub_match@PEB_W@std@@@std@@@std@@YAXPEAV?$sub_match@PEB_W@0@QEAV10@AEAV?$allocator@V?$sub_match@PEB_W@std@@@0@@Z
	??$_Destroy_range@V?$allocator@V?$unique_ptr@Ullama_file@@U?$default_delete@Ullama_file@@@std@@@std@@@std@@@std@@YAXPEAV?$unique_ptr@Ullama_file@@U?$default_delete@Ullama_file@@@std@@@0@QEAV10@AEAV?$allocator@V?$unique_ptr@Ullama_file@@U?$default_delete@Ullama_file@@@std@@@std@@@0@@Z
	??$_Destroy_range@V?$allocator@V?$unique_ptr@Ullama_mlock@@U?$default_delete@Ullama_mlock@@@std@@@std@@@std@@@std@@YAXPEAV?$unique_ptr@Ullama_mlock@@U?$default_delete@Ullama_mlock@@@std@@@0@QEAV10@AEAV?$allocator@V?$unique_ptr@Ullama_mlock@@U?$default_delete@Ullama_mlock@@@std@@@std@@@0@@Z
	??$_Destroy_range@V?$allocator@V?$unique_ptr@Ullama_mmap@@U?$default_delete@Ullama_mmap@@@std@@@std@@@std@@@std@@YAXPEAV?$unique_ptr@Ullama_mmap@@U?$default_delete@Ullama_mmap@@@std@@@0@QEAV10@AEAV?$allocator@V?$unique_ptr@Ullama_mmap@@U?$default_delete@Ullama_mmap@@@std@@@std@@@0@@Z
	??$_Destroy_range@V?$allocator@V?$vector@PEBUllama_grammar_element@@V?$allocator@PEBUllama_grammar_element@@@std@@@std@@@std@@@std@@YAXPEAV?$vector@PEBUllama_grammar_element@@V?$allocator@PEBUllama_grammar_element@@@std@@@0@QEAV10@AEAV?$allocator@V?$vector@PEBUllama_grammar_element@@V?$allocator@PEBUllama_grammar_element@@@std@@@std@@@0@@Z
	??$_Destroy_range@V?$allocator@V?$vector@Ullama_grammar_element@@V?$allocator@Ullama_grammar_element@@@std@@@std@@@std@@@std@@YAXPEAV?$vector@Ullama_grammar_element@@V?$allocator@Ullama_grammar_element@@@std@@@0@QEAV10@AEAV?$allocator@V?$vector@Ullama_grammar_element@@V?$allocator@Ullama_grammar_element@@@std@@@std@@@0@@Z
	??$_Destroy_range@V?$allocator@Vthread@std@@@std@@@std@@YAXPEAVthread@0@QEAV10@AEAV?$allocator@Vthread@std@@@0@@Z
	??$_Destroy_range@V?$allocator@_J@std@@@std@@YAXPEA_JQEA_JAEAV?$allocator@_J@0@@Z
	??$_Destroy_range@V?$allocator@_K@std@@@std@@YAXPEA_KQEA_KAEAV?$allocator@_K@0@@Z
	??$_Destroy_range@V?$allocator@_W@std@@@std@@YAXPEA_WQEA_WAEAV?$allocator@_W@0@@Z
	??$_Emplace@AEBH@?$_Tree@V?$_Tset_traits@HU?$less@H@std@@V?$allocator@H@2@$0A@@std@@@std@@IEAA?AU?$pair@PEAU?$_Tree_node@HPEAX@std@@_N@1@AEBH@Z
	??$_Emplace@AEBV?$basic_string@DU?$char_traits@D@std@@V?$allocator@D@2@@std@@@?$_Tree@V?$_Tset_traits@V?$basic_string@DU?$char_traits@D@std@@V?$allocator@D@2@@std@@U?$less@V?$basic_string@DU?$char_traits@D@std@@V?$allocator@D@2@@std@@@2@V?$allocator@V?$basic_string@DU?$char_traits@D@std@@V?$allocator@D@2@@std@@@2@$0A@@std@@@std@@IEAA?AU?$pair@PEAU?$_Tree_node@V?$basic_string@DU?$char_traits@D@std@@V?$allocator@D@2@@std@@PEAX@std@@_N@1@AEBV?$basic_string@DU?$char_traits@D@std@@V?$allocator@D@2@@1@@Z
	??$_Emplace@PEAUllama_lora_adapter@@@?$_Tree@V?$_Tset_traits@PEAUllama_lora_adapter@@U?$less@PEAUllama_lora_adapter@@@std@@V?$allocator@PEAUllama_lora_adapter@@@3@$0A@@std@@@std@@IEAA?AU?$pair@PEAU?$_Tree_node@PEAUllama_lora_adapter@@PEAX@std@@_N@1@$$QEAPEAUllama_lora_adapter@@@Z
	??$_Emplace@U?$pair@DUnaive_trie@@@std@@@?$_Tree@V?$_Tmap_traits@DUnaive_trie@@U?$less@D@std@@V?$allocator@U?$pair@$$CBDUnaive_trie@@@std@@@3@$0A@@std@@@std@@IEAA?AU?$pair@PEAU?$_Tree_node@U?$pair@$$CBDUnaive_trie@@@std@@PEAX@std@@_N@1@$$QEAU?$pair@DUnaive_trie@@@1@@Z
	??$_Emplace@U?$pair@V?$basic_string@DU?$char_traits@D@std@@V?$allocator@D@2@@std@@V12@@std@@AEAH@?$_Tree@V?$_Tmap_traits@U?$pair@V?$basic_string@DU?$char_traits@D@std@@V?$allocator@D@2@@std@@V12@@std@@HU?$less@U?$pair@V?$basic_string@DU?$char_traits@D@std@@V?$allocator@D@2@@std@@V12@@std@@@2@V?$allocator@U?$pair@$$CBU?$pair@V?$basic_string@DU?$char_traits@D@std@@V?$allocator@D@2@@std@@V12@@std@@H@std@@@2@$0A@@std@@@std@@IEAA?AU?$pair@PEAU?$_Tree_node@U?$pair@$$CBU?$pair@V?$basic_string@DU?$char_traits@D@std@@V?$allocator@D@2@@std@@V12@@std@@H@std@@PEAX@std@@_N@1@$$QEAU?$pair@V?$basic_string@DU?$char_traits@D@std@@V?$allocator@D@2@@std@@V12@@1@AEAH@Z
	??$_Emplace_back@$$V@?$_Uninitialized_backout_al@V?$allocator@C@std@@@std@@QEAAXXZ
	??$_Emplace_back@$$V@?$_Uninitialized_backout_al@V?$allocator@D@std@@@std@@QEAAXXZ
	??$_Emplace_back@$$V@?$_Uninitialized_backout_al@V?$allocator@E@std@@@std@@QEAAXXZ
	??$_Emplace_back@$$V@?$_Uninitialized_backout_al@V?$allocator@H@std@@@std@@QEAAXXZ
	??$_Emplace_back@$$V@?$_Uninitialized_backout_al@V?$allocator@I@std@@@std@@QEAAXXZ
	??$_Emplace_back@$$V@?$_Uninitialized_backout_al@V?$allocator@M@std@@@std@@QEAAXXZ
	??$_Emplace_back@$$V@?$_Uninitialized_backout_al@V?$allocator@PEAH@std@@@std@@QEAAXXZ
	??$_Emplace_back@$$V@?$_Uninitialized_backout_al@V?$allocator@PEAX@std@@@std@@QEAAXXZ
	??$_Emplace_back@$$V@?$_Uninitialized_backout_al@V?$allocator@PEBUllama_chat_message@@@std@@@std@@QEAAXXZ
	??$_Emplace_back@$$V@?$_Uninitialized_backout_al@V?$allocator@U?$no_init@E@@@std@@@std@@QEAAXXZ
	??$_Emplace_back@$$V@?$_Uninitialized_backout_al@V?$allocator@U?$no_init@M@@@std@@@std@@QEAAXXZ
	??$_Emplace_back@$$V@?$_Uninitialized_backout_al@V?$allocator@U_Grp_t@?$_Tgt_state_t@PEBD@std@@@std@@@std@@QEAAXXZ
	??$_Emplace_back@$$V@?$_Uninitialized_backout_al@V?$allocator@U_Grp_t@?$_Tgt_state_t@PEB_W@std@@@std@@@std@@QEAAXXZ
	??$_Emplace_back@$$V@?$_Uninitialized_backout_al@V?$allocator@U_Loop_vals_t@std@@@std@@@std@@QEAAXXZ
	??$_Emplace_back@$$V@?$_Uninitialized_backout_al@V?$allocator@Ulayer_buft@llama_model@@@std@@@std@@QEAAXXZ
	??$_Emplace_back@$$V@?$_Uninitialized_backout_al@V?$allocator@Ullama_kv_cell@@@std@@@std@@QEAAXXZ
	??$_Emplace_back@$$V@?$_Uninitialized_backout_al@V?$allocator@Ullama_layer@@@std@@@std@@QEAAXXZ
	??$_Emplace_back@$$V@?$_Uninitialized_backout_al@V?$allocator@Ullama_sbatch_seq@@@std@@@std@@QEAAXXZ
	??$_Emplace_back@$$V@?$_Uninitialized_backout_al@V?$allocator@Ullama_token_data@@@std@@@std@@QEAAXXZ
	??$_Emplace_back@$$V@?$_Uninitialized_backout_al@V?$allocator@Utoken_data@llama_vocab@@@std@@@std@@QEAAXXZ
	??$_Emplace_back@$$V@?$_Uninitialized_backout_al@V?$allocator@V?$basic_string@DU?$char_traits@D@std@@V?$allocator@D@2@@std@@@std@@@std@@QEAAXXZ
	??$_Emplace_back@$$V@?$_Uninitialized_backout_al@V?$allocator@V?$set@HU?$less@H@std@@V?$allocator@H@2@@std@@@std@@@std@@QEAAXXZ
	??$_Emplace_back@$$V@?$_Uninitialized_backout_al@V?$allocator@V?$sub_match@PEBD@std@@@std@@@std@@QEAAXXZ
	??$_Emplace_back@$$V@?$_Uninitialized_backout_al@V?$allocator@V?$sub_match@PEB_W@std@@@std@@@std@@QEAAXXZ
	??$_Emplace_back@$$V@?$_Uninitialized_backout_al@V?$allocator@V?$vector@Ullama_grammar_element@@V?$allocator@Ullama_grammar_element@@@std@@@std@@@std@@@std@@QEAAXXZ
	??$_Emplace_back@$$V@?$_Uninitialized_backout_al@V?$allocator@_K@std@@@std@@QEAAXXZ
	??$_Emplace_back@AEAD@?$_Uninitialized_backout_al@V?$allocator@D@std@@@std@@QEAAXAEAD@Z
	??$_Emplace_back@AEAI@?$_Uninitialized_backout_al@V?$allocator@I@std@@@std@@QEAAXAEAI@Z
	??$_Emplace_back@AEAM@?$_Uninitialized_backout_al@V?$allocator@N@std@@@std@@QEAAXAEAM@Z
	??$_Emplace_back@AEAPEAX@?$_Uninitialized_backout_al@V?$allocator@PEAX@std@@@std@@QEAAXAEAPEAX@Z
	??$_Emplace_back@AEAPEBUllama_grammar_element@@@?$_Uninitialized_backout_al@V?$allocator@PEBUllama_grammar_element@@@std@@@std@@QEAAXAEAPEBUllama_grammar_element@@@Z
	??$_Emplace_back@AEAU?$pair@PEAUggml_context@@V?$unordered_map@IPEAUggml_backend_buffer@@U?$hash@I@std@@U?$equal_to@I@3@V?$allocator@U?$pair@$$CBIPEAUggml_backend_buffer@@@std@@@3@@std@@@std@@@?$_Uninitialized_backout_al@V?$allocator@U?$pair@PEAUggml_context@@V?$unordered_map@IPEAUggml_backend_buffer@@U?$hash@I@std@@U?$equal_to@I@3@V?$allocator@U?$pair@$$CBIPEAUggml_backend_buffer@@@std@@@3@@std@@@std@@@std@@@std@@QEAAXAEAU?$pair@PEAUggml_context@@V?$unordered_map@IPEAUggml_backend_buffer@@U?$hash@I@std@@U?$equal_to@I@3@V?$allocator@U?$pair@$$CBIPEAUggml_backend_buffer@@@std@@@3@@std@@@1@@Z
	??$_Emplace_back@AEAU_Grp_t@?$_Tgt_state_t@PEBD@std@@@?$_Uninitialized_backout_al@V?$allocator@U_Grp_t@?$_Tgt_state_t@PEBD@std@@@std@@@std@@QEAAXAEAU_Grp_t@?$_Tgt_state_t@PEBD@1@@Z
	??$_Emplace_back@AEAU_Grp_t@?$_Tgt_state_t@PEB_W@std@@@?$_Uninitialized_backout_al@V?$allocator@U_Grp_t@?$_Tgt_state_t@PEB_W@std@@@std@@@std@@QEAAXAEAU_Grp_t@?$_Tgt_state_t@PEB_W@1@@Z
	??$_Emplace_back@AEAUllama_grammar_element@@@?$_Uninitialized_backout_al@V?$allocator@Ullama_grammar_element@@@std@@@std@@QEAAXAEAUllama_grammar_element@@@Z
	??$_Emplace_back@AEAUllama_kv_cell@@@?$_Uninitialized_backout_al@V?$allocator@Ullama_kv_cell@@@std@@@std@@QEAAXAEAUllama_kv_cell@@@Z
	??$_Emplace_back@AEAUllm_symbol@@@?$_Uninitialized_backout_al@V?$allocator@Ullm_symbol@@@std@@@std@@QEAAXAEAUllm_symbol@@@Z
	??$_Emplace_back@AEAV?$set@HU?$less@H@std@@V?$allocator@H@2@@std@@@?$_Uninitialized_backout_al@V?$allocator@V?$set@HU?$less@H@std@@V?$allocator@H@2@@std@@@std@@@std@@QEAAXAEAV?$set@HU?$less@H@std@@V?$allocator@H@2@@1@@Z
	??$_Emplace_back@AEAV?$sub_match@PEBD@std@@@?$_Uninitialized_backout_al@V?$allocator@V?$sub_match@PEBD@std@@@std@@@std@@QEAAXAEAV?$sub_match@PEBD@1@@Z
	??$_Emplace_back@AEAV?$sub_match@PEB_W@std@@@?$_Uninitialized_backout_al@V?$allocator@V?$sub_match@PEB_W@std@@@std@@@std@@QEAAXAEAV?$sub_match@PEB_W@1@@Z
	??$_Emplace_back@AEAV?$vector@PEBUllama_grammar_element@@V?$allocator@PEBUllama_grammar_element@@@std@@@std@@@?$_Uninitialized_backout_al@V?$allocator@V?$vector@PEBUllama_grammar_element@@V?$allocator@PEBUllama_grammar_element@@@std@@@std@@@std@@@std@@QEAAXAEAV?$vector@PEBUllama_grammar_element@@V?$allocator@PEBUllama_grammar_element@@@std@@@1@@Z
	??$_Emplace_back@AEAV?$vector@Ullama_grammar_element@@V?$allocator@Ullama_grammar_element@@@std@@@std@@@?$_Uninitialized_backout_al@V?$allocator@V?$vector@Ullama_grammar_element@@V?$allocator@Ullama_grammar_element@@@std@@@std@@@std@@@std@@QEAAXAEAV?$vector@Ullama_grammar_element@@V?$allocator@Ullama_grammar_element@@@std@@@1@@Z
	??$_Emplace_back@AEA_W@?$_Uninitialized_backout_al@V?$allocator@_W@std@@@std@@QEAAXAEA_W@Z
	??$_Emplace_back@AEBD@?$_Uninitialized_backout_al@V?$allocator@D@std@@@std@@QEAAXAEBD@Z
	??$_Emplace_back@AEBH@?$_Uninitialized_backout_al@V?$allocator@H@std@@@std@@QEAAXAEBH@Z
	??$_Emplace_back@AEBI@?$_Uninitialized_backout_al@V?$allocator@I@std@@@std@@QEAAXAEBI@Z
	??$_Emplace_back@AEBM@?$_Uninitialized_backout_al@V?$allocator@M@std@@@std@@QEAAXAEBM@Z
	??$_Emplace_back@AEBN@?$_Uninitialized_backout_al@V?$allocator@N@std@@@std@@QEAAXAEBN@Z
	??$_Emplace_back@AEBQEAUgguf_context@@@?$_Uninitialized_backout_al@V?$allocator@PEAUgguf_context@@@std@@@std@@QEAAXAEBQEAUgguf_context@@@Z
	??$_Emplace_back@AEBQEBUllama_grammar_element@@@?$_Uninitialized_backout_al@V?$allocator@PEBUllama_grammar_element@@@std@@@std@@QEAAXAEBQEBUllama_grammar_element@@@Z
	??$_Emplace_back@AEBU?$pair@IG@std@@@?$_Uninitialized_backout_al@V?$allocator@U?$pair@IG@std@@@std@@@std@@QEAAXAEBU?$pair@IG@1@@Z
	??$_Emplace_back@AEBU?$pair@W4llm_kv@@AEAH@std@@@?$_Uninitialized_backout_al@V?$allocator@U?$pair@W4llm_kv@@AEAH@std@@@std@@@std@@QEAAXAEBU?$pair@W4llm_kv@@AEAH@1@@Z
	??$_Emplace_back@AEBUbest_tokenization@llm_tokenizer_ugm@@@?$_Uninitialized_backout_al@V?$allocator@Ubest_tokenization@llm_tokenizer_ugm@@@std@@@std@@QEAAXAEBUbest_tokenization@llm_tokenizer_ugm@@@Z
	??$_Emplace_back@AEBUcodepoint_flags@@@?$_Uninitialized_backout_al@V?$allocator@Ucodepoint_flags@@@std@@@std@@QEAAXAEBUcodepoint_flags@@@Z
	??$_Emplace_back@AEBUrange_nfd@@@?$_Uninitialized_backout_al@V?$allocator@Urange_nfd@@@std@@@std@@QEAAXAEBUrange_nfd@@@Z
	??$_Emplace_back@AEBV?$_List_unchecked_const_iterator@V?$_List_val@U?$_List_simple_types@I@std@@@std@@U_Iterator_base0@2@@std@@@?$_Uninitialized_backout@PEAV?$_List_unchecked_const_iterator@V?$_List_val@U?$_List_simple_types@I@std@@@std@@U_Iterator_base0@2@@std@@@std@@QEAAXAEBV?$_List_unchecked_const_iterator@V?$_List_val@U?$_List_simple_types@I@std@@@std@@U_Iterator_base0@2@@1@@Z
	??$_Emplace_back@AEBV?$_List_unchecked_iterator@V?$_List_val@U?$_List_simple_types@U?$pair@$$CBEV?$basic_string@DU?$char_traits@D@std@@V?$allocator@D@2@@std@@@std@@@std@@@std@@@std@@@?$_Uninitialized_backout@PEAV?$_List_unchecked_iterator@V?$_List_val@U?$_List_simple_types@U?$pair@$$CBEV?$basic_string@DU?$char_traits@D@std@@V?$allocator@D@2@@std@@@std@@@std@@@std@@@std@@@std@@QEAAXAEBV?$_List_unchecked_iterator@V?$_List_val@U?$_List_simple_types@U?$pair@$$CBEV?$basic_string@DU?$char_traits@D@std@@V?$allocator@D@2@@std@@@std@@@std@@@std@@@1@@Z
	??$_Emplace_back@AEBV?$_List_unchecked_iterator@V?$_List_val@U?$_List_simple_types@U?$pair@$$CBHH@std@@@std@@@std@@@std@@@?$_Uninitialized_backout@PEAV?$_List_unchecked_iterator@V?$_List_val@U?$_List_simple_types@U?$pair@$$CBHH@std@@@std@@@std@@@std@@@std@@QEAAXAEBV?$_List_unchecked_iterator@V?$_List_val@U?$_List_simple_types@U?$pair@$$CBHH@std@@@std@@@std@@@1@@Z
	??$_Emplace_back@AEBV?$_List_unchecked_iterator@V?$_List_val@U?$_List_simple_types@U?$pair@$$CBII@std@@@std@@@std@@@std@@@?$_Uninitialized_backout@PEAV?$_List_unchecked_iterator@V?$_List_val@U?$_List_simple_types@U?$pair@$$CBII@std@@@std@@@std@@@std@@@std@@QEAAXAEBV?$_List_unchecked_iterator@V?$_List_val@U?$_List_simple_types@U?$pair@$$CBII@std@@@std@@@std@@@1@@Z
	??$_Emplace_back@AEBV?$_List_unchecked_iterator@V?$_List_val@U?$_List_simple_types@U?$pair@$$CBIPEAUggml_backend_buffer@@@std@@@std@@@std@@@std@@@?$_Uninitialized_backout@PEAV?$_List_unchecked_iterator@V?$_List_val@U?$_List_simple_types@U?$pair@$$CBIPEAUggml_backend_buffer@@@std@@@std@@@std@@@std@@@std@@QEAAXAEBV?$_List_unchecked_iterator@V?$_List_val@U?$_List_simple_types@U?$pair@$$CBIPEAUggml_backend_buffer@@@std@@@std@@@std@@@1@@Z
	??$_Emplace_back@AEBV?$_List_unchecked_iterator@V?$_List_val@U?$_List_simple_types@U?$pair@$$CBV?$basic_string@DU?$char_traits@D@std@@V?$allocator@D@2@@std@@E@std@@@std@@@std@@@std@@@?$_Uninitialized_backout@PEAV?$_List_unchecked_iterator@V?$_List_val@U?$_List_simple_types@U?$pair@$$CBV?$basic_string@DU?$char_traits@D@std@@V?$allocator@D@2@@std@@E@std@@@std@@@std@@@std@@@std@@QEAAXAEBV?$_List_unchecked_iterator@V?$_List_val@U?$_List_simple_types@U?$pair@$$CBV?$basic_string@DU?$char_traits@D@std@@V?$allocator@D@2@@std@@E@std@@@std@@@std@@@1@@Z
	??$_Emplace_back@AEBV?$_List_unchecked_iterator@V?$_List_val@U?$_List_simple_types@U?$pair@$$CBV?$basic_string@DU?$char_traits@D@std@@V?$allocator@D@2@@std@@H@std@@@std@@@std@@@std@@@?$_Uninitialized_backout@PEAV?$_List_unchecked_iterator@V?$_List_val@U?$_List_simple_types@U?$pair@$$CBV?$basic_string@DU?$char_traits@D@std@@V?$allocator@D@2@@std@@H@std@@@std@@@std@@@std@@@std@@QEAAXAEBV?$_List_unchecked_iterator@V?$_List_val@U?$_List_simple_types@U?$pair@$$CBV?$basic_string@DU?$char_traits@D@std@@V?$allocator@D@2@@std@@H@std@@@std@@@std@@@1@@Z
	??$_Emplace_back@AEBV?$_List_unchecked_iterator@V?$_List_val@U?$_List_simple_types@U?$pair@$$CBV?$basic_string@DU?$char_traits@D@std@@V?$allocator@D@2@@std@@Ullama_lora_weight@@@std@@@std@@@std@@@std@@@?$_Uninitialized_backout@PEAV?$_List_unchecked_iterator@V?$_List_val@U?$_List_simple_types@U?$pair@$$CBV?$basic_string@DU?$char_traits@D@std@@V?$allocator@D@2@@std@@Ullama_lora_weight@@@std@@@std@@@std@@@std@@@std@@QEAAXAEBV?$_List_unchecked_iterator@V?$_List_val@U?$_List_simple_types@U?$pair@$$CBV?$basic_string@DU?$char_traits@D@std@@V?$allocator@D@2@@std@@Ullama_lora_weight@@@std@@@std@@@std@@@1@@Z
	??$_Emplace_back@AEBV?$_List_unchecked_iterator@V?$_List_val@U?$_List_simple_types@U?$pair@$$CBV?$basic_string@DU?$char_traits@D@std@@V?$allocator@D@2@@std@@Ullama_model_kv_override@@@std@@@std@@@std@@@std@@@?$_Uninitialized_backout@PEAV?$_List_unchecked_iterator@V?$_List_val@U?$_List_simple_types@U?$pair@$$CBV?$basic_string@DU?$char_traits@D@std@@V?$allocator@D@2@@std@@Ullama_model_kv_override@@@std@@@std@@@std@@@std@@@std@@QEAAXAEBV?$_List_unchecked_iterator@V?$_List_val@U?$_List_simple_types@U?$pair@$$CBV?$basic_string@DU?$char_traits@D@std@@V?$allocator@D@2@@std@@Ullama_model_kv_override@@@std@@@std@@@std@@@1@@Z
	??$_Emplace_back@AEBV?$_List_unchecked_iterator@V?$_List_val@U?$_List_simple_types@U?$pair@$$CBV?$basic_string@DU?$char_traits@D@std@@V?$allocator@D@2@@std@@V12@@std@@@std@@@std@@@std@@@?$_Uninitialized_backout@PEAV?$_List_unchecked_iterator@V?$_List_val@U?$_List_simple_types@U?$pair@$$CBV?$basic_string@DU?$char_traits@D@std@@V?$allocator@D@2@@std@@V12@@std@@@std@@@std@@@std@@@std@@QEAAXAEBV?$_List_unchecked_iterator@V?$_List_val@U?$_List_simple_types@U?$pair@$$CBV?$basic_string@DU?$char_traits@D@std@@V?$allocator@D@2@@std@@V12@@std@@@std@@@std@@@1@@Z
	??$_Emplace_back@AEBV?$_List_unchecked_iterator@V?$_List_val@U?$_List_simple_types@U?$pair@QEAUllama_lora_adapter@@M@std@@@std@@@std@@@std@@@?$_Uninitialized_backout@PEAV?$_List_unchecked_iterator@V?$_List_val@U?$_List_simple_types@U?$pair@QEAUllama_lora_adapter@@M@std@@@std@@@std@@@std@@@std@@QEAAXAEBV?$_List_unchecked_iterator@V?$_List_val@U?$_List_simple_types@U?$pair@QEAUllama_lora_adapter@@M@std@@@std@@@std@@@1@@Z
	??$_Emplace_back@AEBV?$basic_string@DU?$char_traits@D@std@@V?$allocator@D@2@@std@@@?$_Uninitialized_backout_al@V?$allocator@V?$basic_string@DU?$char_traits@D@std@@V?$allocator@D@2@@std@@@std@@@std@@QEAAXAEBV?$basic_string@DU?$char_traits@D@std@@V?$allocator@D@2@@1@@Z
	??$_Emplace_back@AEB_J@?$_Uninitialized_backout_al@V?$allocator@_J@std@@@std@@QEAAXAEB_J@Z
	??$_Emplace_back@AEB_K@?$_Uninitialized_backout_al@V?$allocator@_K@std@@@std@@QEAAXAEB_K@Z
	??$_Emplace_back@AEB_W@?$_Uninitialized_backout_al@V?$allocator@_W@std@@@std@@QEAAXAEB_W@Z
	??$_Emplace_back@C@?$_Uninitialized_backout_al@V?$allocator@C@std@@@std@@QEAAX$$QEAC@Z
	??$_Emplace_back@E@?$_Uninitialized_backout_al@V?$allocator@E@std@@@std@@QEAAX$$QEAE@Z
	??$_Emplace_back@H@?$_Uninitialized_backout_al@V?$allocator@H@std@@@std@@QEAAX$$QEAH@Z
	??$_Emplace_back@I@?$_Uninitialized_backout_al@V?$allocator@I@std@@@std@@QEAAX$$QEAI@Z
	??$_Emplace_back@M@?$_Uninitialized_backout_al@V?$allocator@M@std@@@std@@QEAAX$$QEAM@Z
	??$_Emplace_back@N@?$_Uninitialized_backout_al@V?$allocator@N@std@@@std@@QEAAX$$QEAN@Z
	??$_Emplace_back@PEAH@?$_Uninitialized_backout_al@V?$allocator@PEAH@std@@@std@@QEAAX$$QEAPEAH@Z
	??$_Emplace_back@PEAUggml_backend@@@?$_Uninitialized_backout_al@V?$allocator@PEAUggml_backend@@@std@@@std@@QEAAX$$QEAPEAUggml_backend@@@Z
	??$_Emplace_back@PEAUggml_backend_buffer@@@?$_Uninitialized_backout_al@V?$allocator@PEAUggml_backend_buffer@@@std@@@std@@QEAAX$$QEAPEAUggml_backend_buffer@@@Z
	??$_Emplace_back@PEAUggml_backend_buffer_type@@@?$_Uninitialized_backout_al@V?$allocator@PEAUggml_backend_buffer_type@@@std@@@std@@QEAAX$$QEAPEAUggml_backend_buffer_type@@@Z
	??$_Emplace_back@PEAUggml_context@@@?$_Uninitialized_backout_al@V?$allocator@PEAUggml_context@@@std@@@std@@QEAAX$$QEAPEAUggml_context@@@Z
	??$_Emplace_back@PEAUggml_tensor@@@?$_Uninitialized_backout_al@V?$allocator@PEAUggml_tensor@@@std@@@std@@QEAAX$$QEAPEAUggml_tensor@@@Z
	??$_Emplace_back@PEAUllama_token_data@@@?$_Uninitialized_backout_al@V?$allocator@PEAUllama_token_data@@@std@@@std@@QEAAX$$QEAPEAUllama_token_data@@@Z
	??$_Emplace_back@PEAX@?$_Uninitialized_backout_al@V?$allocator@PEAX@std@@@std@@QEAAX$$QEAPEAX@Z
	??$_Emplace_back@PEBUllama_chat_message@@@?$_Uninitialized_backout_al@V?$allocator@PEBUllama_chat_message@@@std@@@std@@QEAAX$$QEAPEBUllama_chat_message@@@Z
	??$_Emplace_back@PEBUllama_grammar_element@@@?$_Uninitialized_backout_al@V?$allocator@PEBUllama_grammar_element@@@std@@@std@@QEAAX$$QEAPEBUllama_grammar_element@@@Z
	??$_Emplace_back@U?$no_init@E@@@?$_Uninitialized_backout_al@V?$allocator@U?$no_init@E@@@std@@@std@@QEAAX$$QEAU?$no_init@E@@@Z
	??$_Emplace_back@U?$no_init@M@@@?$_Uninitialized_backout_al@V?$allocator@U?$no_init@M@@@std@@@std@@QEAAX$$QEAU?$no_init@M@@@Z
	??$_Emplace_back@U?$pair@II@std@@@?$_Uninitialized_backout_al@V?$allocator@U?$pair@II@std@@@std@@@std@@QEAAX$$QEAU?$pair@II@1@@Z
	??$_Emplace_back@U?$pair@PEAUggml_context@@V?$unordered_map@IPEAUggml_backend_buffer@@U?$hash@I@std@@U?$equal_to@I@3@V?$allocator@U?$pair@$$CBIPEAUggml_backend_buffer@@@std@@@3@@std@@@std@@@?$_Uninitialized_backout_al@V?$allocator@U?$pair@PEAUggml_context@@V?$unordered_map@IPEAUggml_backend_buffer@@U?$hash@I@std@@U?$equal_to@I@3@V?$allocator@U?$pair@$$CBIPEAUggml_backend_buffer@@@std@@@3@@std@@@std@@@std@@@std@@QEAAX$$QEAU?$pair@PEAUggml_context@@V?$unordered_map@IPEAUggml_backend_buffer@@U?$hash@I@std@@U?$equal_to@I@3@V?$allocator@U?$pair@$$CBIPEAUggml_backend_buffer@@@std@@@3@@std@@@1@@Z
	??$_Emplace_back@U?$pair@V?$basic_string@DU?$char_traits@D@std@@V?$allocator@D@2@@std@@PEAUggml_tensor@@@std@@@?$_Uninitialized_backout_al@V?$allocator@U?$pair@V?$basic_string@DU?$char_traits@D@std@@V?$allocator@D@2@@std@@PEAUggml_tensor@@@std@@@std@@@std@@QEAAX$$QEAU?$pair@V?$basic_string@DU?$char_traits@D@std@@V?$allocator@D@2@@std@@PEAUggml_tensor@@@1@@Z
	??$_Emplace_back@U?$pair@V?$vector@IV?$allocator@I@std@@@std@@Ullama_partial_utf8@@@std@@@?$_Uninitialized_backout_al@V?$allocator@U?$pair@V?$vector@IV?$allocator@I@std@@@std@@Ullama_partial_utf8@@@std@@@std@@@std@@QEAAX$$QEAU?$pair@V?$vector@IV?$allocator@I@std@@@std@@Ullama_partial_utf8@@@1@@Z
	??$_Emplace_back@U?$pair@_K_K@std@@@?$_Uninitialized_backout_al@V?$allocator@U?$pair@_K_K@std@@@std@@@std@@QEAAX$$QEAU?$pair@_K_K@1@@Z
	??$_Emplace_back@U_Grp_t@?$_Tgt_state_t@PEBD@std@@@?$_Uninitialized_backout_al@V?$allocator@U_Grp_t@?$_Tgt_state_t@PEBD@std@@@std@@@std@@QEAAX$$QEAU_Grp_t@?$_Tgt_state_t@PEBD@1@@Z
	??$_Emplace_back@U_Grp_t@?$_Tgt_state_t@PEB_W@std@@@?$_Uninitialized_backout_al@V?$allocator@U_Grp_t@?$_Tgt_state_t@PEB_W@std@@@std@@@std@@QEAAX$$QEAU_Grp_t@?$_Tgt_state_t@PEB_W@1@@Z
	??$_Emplace_back@U_Loop_vals_t@std@@@?$_Uninitialized_backout_al@V?$allocator@U_Loop_vals_t@std@@@std@@@std@@QEAAX$$QEAU_Loop_vals_t@1@@Z
	??$_Emplace_back@Ulayer_buft@llama_model@@@?$_Uninitialized_backout_al@V?$allocator@Ulayer_buft@llama_model@@@std@@@std@@QEAAX$$QEAUlayer_buft@llama_model@@@Z
	??$_Emplace_back@Ullama_grammar_candidate@@@?$_Uninitialized_backout_al@V?$allocator@Ullama_grammar_candidate@@@std@@@std@@QEAAX$$QEAUllama_grammar_candidate@@@Z
	??$_Emplace_back@Ullama_grammar_element@@@?$_Uninitialized_backout_al@V?$allocator@Ullama_grammar_element@@@std@@@std@@QEAAX$$QEAUllama_grammar_element@@@Z
	??$_Emplace_back@Ullama_layer@@@?$_Uninitialized_backout_al@V?$allocator@Ullama_layer@@@std@@@std@@QEAAX$$QEAUllama_layer@@@Z
	??$_Emplace_back@Ullama_sbatch_seq@@@?$_Uninitialized_backout_al@V?$allocator@Ullama_sbatch_seq@@@std@@@std@@QEAAX$$QEAUllama_sbatch_seq@@@Z
	??$_Emplace_back@Ullama_tensor_weight@llama_model_loader@@@?$_Uninitialized_backout_al@V?$allocator@Ullama_tensor_weight@llama_model_loader@@@std@@@std@@QEAAX$$QEAUllama_tensor_weight@llama_model_loader@@@Z
	??$_Emplace_back@Ullama_token_data@@@?$_Uninitialized_backout_al@V?$allocator@Ullama_token_data@@@std@@@std@@QEAAX$$QEAUllama_token_data@@@Z
	??$_Emplace_back@Ullm_bigram_bpe@@@?$_Uninitialized_backout_al@V?$allocator@Ullm_bigram_bpe@@@std@@@std@@QEAAX$$QEAUllm_bigram_bpe@@@Z
	??$_Emplace_back@Ullm_bigram_spm@@@?$_Uninitialized_backout_al@V?$allocator@Ullm_bigram_spm@@@std@@@std@@QEAAX$$QEAUllm_bigram_spm@@@Z
	??$_Emplace_back@Ullm_symbol@@@?$_Uninitialized_backout_al@V?$allocator@Ullm_symbol@@@std@@@std@@QEAAX$$QEAUllm_symbol@@@Z
	??$_Emplace_back@Utoken_data@llama_vocab@@@?$_Uninitialized_backout_al@V?$allocator@Utoken_data@llama_vocab@@@std@@@std@@QEAAX$$QEAUtoken_data@llama_vocab@@@Z
	??$_Emplace_back@V?$basic_string@DU?$char_traits@D@std@@V?$allocator@D@2@@std@@@?$_Uninitialized_backout_al@V?$allocator@V?$basic_string@DU?$char_traits@D@std@@V?$allocator@D@2@@std@@@std@@@std@@QEAAX$$QEAV?$basic_string@DU?$char_traits@D@std@@V?$allocator@D@2@@1@@Z
	??$_Emplace_back@V?$future@U?$pair@PEAUggml_tensor@@_N@std@@@std@@@?$_Uninitialized_backout_al@V?$allocator@V?$future@U?$pair@PEAUggml_tensor@@_N@std@@@std@@@std@@@std@@QEAAX$$QEAV?$future@U?$pair@PEAUggml_tensor@@_N@std@@@1@@Z
	??$_Emplace_back@V?$sub_match@PEBD@std@@@?$_Uninitialized_backout_al@V?$allocator@V?$sub_match@PEBD@std@@@std@@@std@@QEAAX$$QEAV?$sub_match@PEBD@1@@Z
	??$_Emplace_back@V?$sub_match@PEB_W@std@@@?$_Uninitialized_backout_al@V?$allocator@V?$sub_match@PEB_W@std@@@std@@@std@@QEAAX$$QEAV?$sub_match@PEB_W@1@@Z
	??$_Emplace_back@V?$unique_ptr@Ullama_file@@U?$default_delete@Ullama_file@@@std@@@std@@@?$_Uninitialized_backout_al@V?$allocator@V?$unique_ptr@Ullama_file@@U?$default_delete@Ullama_file@@@std@@@std@@@std@@@std@@QEAAX$$QEAV?$unique_ptr@Ullama_file@@U?$default_delete@Ullama_file@@@std@@@1@@Z
	??$_Emplace_back@V?$unique_ptr@Ullama_mlock@@U?$default_delete@Ullama_mlock@@@std@@@std@@@?$_Uninitialized_backout_al@V?$allocator@V?$unique_ptr@Ullama_mlock@@U?$default_delete@Ullama_mlock@@@std@@@std@@@std@@@std@@QEAAX$$QEAV?$unique_ptr@Ullama_mlock@@U?$default_delete@Ullama_mlock@@@std@@@1@@Z
	??$_Emplace_back@V?$unique_ptr@Ullama_mmap@@U?$default_delete@Ullama_mmap@@@std@@@std@@@?$_Uninitialized_backout_al@V?$allocator@V?$unique_ptr@Ullama_mmap@@U?$default_delete@Ullama_mmap@@@std@@@std@@@std@@@std@@QEAAX$$QEAV?$unique_ptr@Ullama_mmap@@U?$default_delete@Ullama_mmap@@@std@@@1@@Z
	??$_Emplace_back@V?$vector@PEBUllama_grammar_element@@V?$allocator@PEBUllama_grammar_element@@@std@@@std@@@?$_Uninitialized_backout_al@V?$allocator@V?$vector@PEBUllama_grammar_element@@V?$allocator@PEBUllama_grammar_element@@@std@@@std@@@std@@@std@@QEAAX$$QEAV?$vector@PEBUllama_grammar_element@@V?$allocator@PEBUllama_grammar_element@@@std@@@1@@Z
	??$_Emplace_back@Vthread@std@@@?$_Uninitialized_backout_al@V?$allocator@Vthread@std@@@std@@@std@@QEAAX$$QEAVthread@1@@Z
	??$_Emplace_back@_K@?$_Uninitialized_backout_al@V?$allocator@_K@std@@@std@@QEAAX$$QEA_K@Z
	??$_Emplace_back_with_unused_capacity@$$V@?$vector@V?$basic_string@DU?$char_traits@D@std@@V?$allocator@D@2@@std@@V?$allocator@V?$basic_string@DU?$char_traits@D@std@@V?$allocator@D@2@@std@@@2@@std@@AEAAAEAV?$basic_string@DU?$char_traits@D@std@@V?$allocator@D@2@@1@XZ
	??$_Emplace_back_with_unused_capacity@AEAIAEAI@?$vector@U?$pair@II@std@@V?$allocator@U?$pair@II@std@@@2@@std@@AEAAAEAU?$pair@II@1@AEAI0@Z
	??$_Emplace_back_with_unused_capacity@AEAIAEBI@?$vector@U?$pair@II@std@@V?$allocator@U?$pair@II@std@@@2@@std@@AEAAAEAU?$pair@II@1@AEAIAEBI@Z
	??$_Emplace_back_with_unused_capacity@AEAPEAUggml_context@@@?$vector@PEAUggml_context@@V?$allocator@PEAUggml_context@@@std@@@std@@AEAAAEAPEAUggml_context@@AEAPEAU2@@Z
	??$_Emplace_back_with_unused_capacity@AEAPEAUggml_context@@AEAV?$unordered_map@IPEAUggml_backend_buffer@@U?$hash@I@std@@U?$equal_to@I@3@V?$allocator@U?$pair@$$CBIPEAUggml_backend_buffer@@@std@@@3@@std@@@?$vector@U?$pair@PEAUggml_context@@V?$unordered_map@IPEAUggml_backend_buffer@@U?$hash@I@std@@U?$equal_to@I@3@V?$allocator@U?$pair@$$CBIPEAUggml_backend_buffer@@@std@@@3@@std@@@std@@V?$allocator@U?$pair@PEAUggml_context@@V?$unordered_map@IPEAUggml_backend_buffer@@U?$hash@I@std@@U?$equal_to@I@3@V?$allocator@U?$pair@$$CBIPEAUggml_backend_buffer@@@std@@@3@@std@@@std@@@2@@std@@AEAAAEAU?$pair@PEAUggml_context@@V?$unordered_map@IPEAUggml_backend_buffer@@U?$hash@I@std@@U?$equal_to@I@3@V?$allocator@U?$pair@$$CBIPEAUggml_backend_buffer@@@std@@@3@@std@@@1@AEAPEAUggml_context@@AEAV?$unordered_map@IPEAUggml_backend_buffer@@U?$hash@I@std@@U?$equal_to@I@3@V?$allocator@U?$pair@$$CBIPEAUggml_backend_buffer@@@std@@@3@@1@@Z
	??$_Emplace_back_with_unused_capacity@AEAUllm_symbol@@@?$vector@Ullm_symbol@@V?$allocator@Ullm_symbol@@@std@@@std@@AEAAAEAUllm_symbol@@AEAU2@@Z
	??$_Emplace_back_with_unused_capacity@AEAV?$basic_string@DU?$char_traits@D@std@@V?$allocator@D@2@@std@@@?$vector@V?$basic_string@DU?$char_traits@D@std@@V?$allocator@D@2@@std@@V?$allocator@V?$basic_string@DU?$char_traits@D@std@@V?$allocator@D@2@@std@@@2@@std@@AEAAAEAV?$basic_string@DU?$char_traits@D@std@@V?$allocator@D@2@@1@AEAV21@@Z
	??$_Emplace_back_with_unused_capacity@AEA_KH@?$vector@U?$pair@_K_K@std@@V?$allocator@U?$pair@_K_K@std@@@2@@std@@AEAAAEAU?$pair@_K_K@1@AEA_K$$QEAH@Z
	??$_Emplace_back_with_unused_capacity@AEBH@?$vector@HV?$allocator@H@std@@@std@@AEAAAEAHAEBH@Z
	??$_Emplace_back_with_unused_capacity@AEBI@?$vector@IV?$allocator@I@std@@@std@@AEAAAEAIAEBI@Z
	??$_Emplace_back_with_unused_capacity@AEBM@?$vector@MV?$allocator@M@std@@@std@@AEAAAEAMAEBM@Z
	??$_Emplace_back_with_unused_capacity@AEBQEAUggml_backend@@@?$vector@PEAUggml_backend@@V?$allocator@PEAUggml_backend@@@std@@@std@@AEAAAEAPEAUggml_backend@@AEBQEAU2@@Z
	??$_Emplace_back_with_unused_capacity@AEBQEAUggml_backend_buffer@@@?$vector@PEAUggml_backend_buffer@@V?$allocator@PEAUggml_backend_buffer@@@std@@@std@@AEAAAEAPEAUggml_backend_buffer@@AEBQEAU2@@Z
	??$_Emplace_back_with_unused_capacity@AEBQEAUggml_context@@@?$vector@PEAUggml_context@@V?$allocator@PEAUggml_context@@@std@@@std@@AEAAAEAPEAUggml_context@@AEBQEAU2@@Z
	??$_Emplace_back_with_unused_capacity@AEBQEAUggml_tensor@@@?$vector@PEAUggml_tensor@@V?$allocator@PEAUggml_tensor@@@std@@@std@@AEAAAEAPEAUggml_tensor@@AEBQEAU2@@Z
	??$_Emplace_back_with_unused_capacity@AEBQEAUllama_token_data@@@?$vector@PEAUllama_token_data@@V?$allocator@PEAUllama_token_data@@@std@@@std@@AEAAAEAPEAUllama_token_data@@AEBQEAU2@@Z
	??$_Emplace_back_with_unused_capacity@AEBQEBUllama_grammar_element@@@?$vector@PEBUllama_grammar_element@@V?$allocator@PEBUllama_grammar_element@@@std@@@std@@AEAAAEAPEBUllama_grammar_element@@AEBQEBU2@@Z
	??$_Emplace_back_with_unused_capacity@AEBUllama_grammar_candidate@@@?$vector@Ullama_grammar_candidate@@V?$allocator@Ullama_grammar_candidate@@@std@@@std@@AEAAAEAUllama_grammar_candidate@@AEBU2@@Z
	??$_Emplace_back_with_unused_capacity@AEBUllama_grammar_element@@@?$vector@Ullama_grammar_element@@V?$allocator@Ullama_grammar_element@@@std@@@std@@AEAAAEAUllama_grammar_element@@AEBU2@@Z
	??$_Emplace_back_with_unused_capacity@AEBUllama_sbatch_seq@@@?$vector@Ullama_sbatch_seq@@V?$allocator@Ullama_sbatch_seq@@@std@@@std@@AEAAAEAUllama_sbatch_seq@@AEBU2@@Z
	??$_Emplace_back_with_unused_capacity@AEBUllama_token_data@@@?$vector@Ullama_token_data@@V?$allocator@Ullama_token_data@@@std@@@std@@AEAAAEAUllama_token_data@@AEBU2@@Z
	??$_Emplace_back_with_unused_capacity@AEBUllm_bigram_bpe@@@?$vector@Ullm_bigram_bpe@@V?$allocator@Ullm_bigram_bpe@@@std@@@std@@AEAAAEAUllm_bigram_bpe@@AEBU2@@Z
	??$_Emplace_back_with_unused_capacity@AEBUllm_bigram_spm@@@?$vector@Ullm_bigram_spm@@V?$allocator@Ullm_bigram_spm@@@std@@@std@@AEAAAEAUllm_bigram_spm@@AEBU2@@Z
	??$_Emplace_back_with_unused_capacity@AEBV?$basic_string@DU?$char_traits@D@std@@V?$allocator@D@2@@std@@@?$vector@V?$basic_string@DU?$char_traits@D@std@@V?$allocator@D@2@@std@@V?$allocator@V?$basic_string@DU?$char_traits@D@std@@V?$allocator@D@2@@std@@@2@@std@@AEAAAEAV?$basic_string@DU?$char_traits@D@std@@V?$allocator@D@2@@1@AEBV21@@Z
	??$_Emplace_back_with_unused_capacity@AEBV?$vector@PEBUllama_grammar_element@@V?$allocator@PEBUllama_grammar_element@@@std@@@std@@@?$vector@V?$vector@PEBUllama_grammar_element@@V?$allocator@PEBUllama_grammar_element@@@std@@@std@@V?$allocator@V?$vector@PEBUllama_grammar_element@@V?$allocator@PEBUllama_grammar_element@@@std@@@std@@@2@@std@@AEAAAEAV?$vector@PEBUllama_grammar_element@@V?$allocator@PEBUllama_grammar_element@@@std@@@1@AEBV21@@Z
	??$_Emplace_back_with_unused_capacity@AEB_K@?$vector@_KV?$allocator@_K@std@@@std@@AEAAAEA_KAEB_K@Z
	??$_Emplace_back_with_unused_capacity@I@?$vector@IV?$allocator@I@std@@@std@@AEAAAEAI$$QEAI@Z
	??$_Emplace_back_with_unused_capacity@N@?$vector@NV?$allocator@N@std@@@std@@AEAAAEAN$$QEAN@Z
	??$_Emplace_back_with_unused_capacity@PEAUggml_backend_buffer_type@@@?$vector@PEAUggml_backend_buffer_type@@V?$allocator@PEAUggml_backend_buffer_type@@@std@@@std@@AEAAAEAPEAUggml_backend_buffer_type@@$$QEAPEAU2@@Z
	??$_Emplace_back_with_unused_capacity@PEAUggml_tensor@@@?$vector@PEAUggml_tensor@@V?$allocator@PEAUggml_tensor@@@std@@@std@@AEAAAEAPEAUggml_tensor@@$$QEAPEAU2@@Z
	??$_Emplace_back_with_unused_capacity@PEAUllama_file@@@?$vector@V?$unique_ptr@Ullama_file@@U?$default_delete@Ullama_file@@@std@@@std@@V?$allocator@V?$unique_ptr@Ullama_file@@U?$default_delete@Ullama_file@@@std@@@std@@@2@@std@@AEAAAEAV?$unique_ptr@Ullama_file@@U?$default_delete@Ullama_file@@@std@@@1@$$QEAPEAUllama_file@@@Z
	??$_Emplace_back_with_unused_capacity@PEAUllama_file@@AEAGAEAY0EA@DAEAPEAUgguf_context@@AEAPEAUggml_tensor@@@?$vector@Ullama_tensor_weight@llama_model_loader@@V?$allocator@Ullama_tensor_weight@llama_model_loader@@@std@@@std@@AEAAAEAUllama_tensor_weight@llama_model_loader@@$$QEAPEAUllama_file@@AEAGAEAY0EA@DAEAPEAUgguf_context@@AEAPEAUggml_tensor@@@Z
	??$_Emplace_back_with_unused_capacity@PEAUllama_file@@HAEAY0EA@DAEAPEAUgguf_context@@AEAPEAUggml_tensor@@@?$vector@Ullama_tensor_weight@llama_model_loader@@V?$allocator@Ullama_tensor_weight@llama_model_loader@@@std@@@std@@AEAAAEAUllama_tensor_weight@llama_model_loader@@$$QEAPEAUllama_file@@$$QEAHAEAY0EA@DAEAPEAUgguf_context@@AEAPEAUggml_tensor@@@Z
	??$_Emplace_back_with_unused_capacity@PEAUllama_mlock@@@?$vector@V?$unique_ptr@Ullama_mlock@@U?$default_delete@Ullama_mlock@@@std@@@std@@V?$allocator@V?$unique_ptr@Ullama_mlock@@U?$default_delete@Ullama_mlock@@@std@@@std@@@2@@std@@AEAAAEAV?$unique_ptr@Ullama_mlock@@U?$default_delete@Ullama_mlock@@@std@@@1@$$QEAPEAUllama_mlock@@@Z
	??$_Emplace_back_with_unused_capacity@PEBDAEAPEAUggml_tensor@@@?$vector@U?$pair@V?$basic_string@DU?$char_traits@D@std@@V?$allocator@D@2@@std@@PEAUggml_tensor@@@std@@V?$allocator@U?$pair@V?$basic_string@DU?$char_traits@D@std@@V?$allocator@D@2@@std@@PEAUggml_tensor@@@std@@@2@@std@@AEAAAEAU?$pair@V?$basic_string@DU?$char_traits@D@std@@V?$allocator@D@2@@std@@PEAUggml_tensor@@@1@$$QEAPEBDAEAPEAUggml_tensor@@@Z
	??$_Emplace_back_with_unused_capacity@PEBUllama_grammar_element@@@?$vector@PEBUllama_grammar_element@@V?$allocator@PEBUllama_grammar_element@@@std@@@std@@AEAAAEAPEBUllama_grammar_element@@$$QEAPEBU2@@Z
	??$_Emplace_back_with_unused_capacity@U?$pair@V?$vector@IV?$allocator@I@std@@@std@@Ullama_partial_utf8@@@std@@@?$vector@U?$pair@V?$vector@IV?$allocator@I@std@@@std@@Ullama_partial_utf8@@@std@@V?$allocator@U?$pair@V?$vector@IV?$allocator@I@std@@@std@@Ullama_partial_utf8@@@std@@@2@@std@@AEAAAEAU?$pair@V?$vector@IV?$allocator@I@std@@@std@@Ullama_partial_utf8@@@1@$$QEAU21@@Z
	??$_Emplace_back_with_unused_capacity@Ullama_grammar_candidate@@@?$vector@Ullama_grammar_candidate@@V?$allocator@Ullama_grammar_candidate@@@std@@@std@@AEAAAEAUllama_grammar_candidate@@$$QEAU2@@Z
	??$_Emplace_back_with_unused_capacity@Ullama_grammar_element@@@?$vector@Ullama_grammar_element@@V?$allocator@Ullama_grammar_element@@@std@@@std@@AEAAAEAUllama_grammar_element@@$$QEAU2@@Z
	??$_Emplace_back_with_unused_capacity@Ullm_symbol@@@?$vector@Ullm_symbol@@V?$allocator@Ullm_symbol@@@std@@@std@@AEAAAEAUllm_symbol@@$$QEAU2@@Z
	??$_Emplace_back_with_unused_capacity@V?$future@U?$pair@PEAUggml_tensor@@_N@std@@@std@@@?$vector@V?$future@U?$pair@PEAUggml_tensor@@_N@std@@@std@@V?$allocator@V?$future@U?$pair@PEAUggml_tensor@@_N@std@@@std@@@2@@std@@AEAAAEAV?$future@U?$pair@PEAUggml_tensor@@_N@std@@@1@$$QEAV21@@Z
	??$_Emplace_back_with_unused_capacity@V?$unique_ptr@Ullama_mlock@@U?$default_delete@Ullama_mlock@@@std@@@std@@@?$vector@V?$unique_ptr@Ullama_mlock@@U?$default_delete@Ullama_mlock@@@std@@@std@@V?$allocator@V?$unique_ptr@Ullama_mlock@@U?$default_delete@Ullama_mlock@@@std@@@std@@@2@@std@@AEAAAEAV?$unique_ptr@Ullama_mlock@@U?$default_delete@Ullama_mlock@@@std@@@1@$$QEAV21@@Z
	??$_Emplace_back_with_unused_capacity@V?$unique_ptr@Ullama_mmap@@U?$default_delete@Ullama_mmap@@@std@@@std@@@?$vector@V?$unique_ptr@Ullama_mmap@@U?$default_delete@Ullama_mmap@@@std@@@std@@V?$allocator@V?$unique_ptr@Ullama_mmap@@U?$default_delete@Ullama_mmap@@@std@@@std@@@2@@std@@AEAAAEAV?$unique_ptr@Ullama_mmap@@U?$default_delete@Ullama_mmap@@@std@@@1@$$QEAV21@@Z
	??$_Emplace_back_with_unused_capacity@_J@?$vector@_KV?$allocator@_K@std@@@std@@AEAAAEA_K$$QEA_J@Z
	??$_Emplace_back_with_unused_capacity@_K@?$vector@_KV?$allocator@_K@std@@@std@@AEAAAEA_K$$QEA_K@Z
	??$_Emplace_hint@AEBU?$pair@$$CBHH@std@@@?$_Tree@V?$_Tmap_traits@HHU?$less@H@std@@V?$allocator@U?$pair@$$CBHH@std@@@2@$0A@@std@@@std@@IEAAPEAU?$_Tree_node@U?$pair@$$CBHH@std@@PEAX@1@QEAU21@AEBU?$pair@$$CBHH@1@@Z
	??$_Emplace_hint@AEBU?$pair@$$CBHV?$basic_string@DU?$char_traits@D@std@@V?$allocator@D@2@@std@@@std@@@?$_Tree@V?$_Tmap_traits@HV?$basic_string@DU?$char_traits@D@std@@V?$allocator@D@2@@std@@U?$less@H@2@V?$allocator@U?$pair@$$CBHV?$basic_string@DU?$char_traits@D@std@@V?$allocator@D@2@@std@@@std@@@2@$0A@@std@@@std@@IEAAPEAU?$_Tree_node@U?$pair@$$CBHV?$basic_string@DU?$char_traits@D@std@@V?$allocator@D@2@@std@@@std@@PEAX@1@QEAU21@AEBU?$pair@$$CBHV?$basic_string@DU?$char_traits@D@std@@V?$allocator@D@2@@std@@@1@@Z
	??$_Emplace_hint@AEBU?$pair@$$CBV?$basic_string@DU?$char_traits@D@std@@V?$allocator@D@2@@std@@H@std@@@?$_Tree@V?$_Tmap_traits@V?$basic_string@DU?$char_traits@D@std@@V?$allocator@D@2@@std@@HU?$less@V?$basic_string@DU?$char_traits@D@std@@V?$allocator@D@2@@std@@@2@V?$allocator@U?$pair@$$CBV?$basic_string@DU?$char_traits@D@std@@V?$allocator@D@2@@std@@H@std@@@2@$0A@@std@@@std@@IEAAPEAU?$_Tree_node@U?$pair@$$CBV?$basic_string@DU?$char_traits@D@std@@V?$allocator@D@2@@std@@H@std@@PEAX@1@QEAU21@AEBU?$pair@$$CBV?$basic_string@DU?$char_traits@D@std@@V?$allocator@D@2@@std@@H@1@@Z
	??$_Emplace_hint@AEBU?$pair@$$CBW4llama_rope_scaling_type@@PEBD@std@@@?$_Tree@V?$_Tmap_traits@W4llama_rope_scaling_type@@PEBDU?$less@W4llama_rope_scaling_type@@@std@@V?$allocator@U?$pair@$$CBW4llama_rope_scaling_type@@PEBD@std@@@3@$0A@@std@@@std@@IEAAPEAU?$_Tree_node@U?$pair@$$CBW4llama_rope_scaling_type@@PEBD@std@@PEAX@1@QEAU21@AEBU?$pair@$$CBW4llama_rope_scaling_type@@PEBD@1@@Z
	??$_Emplace_hint@AEBU?$pair@$$CBW4llm_arch@@PEBD@std@@@?$_Tree@V?$_Tmap_traits@W4llm_arch@@PEBDU?$less@W4llm_arch@@@std@@V?$allocator@U?$pair@$$CBW4llm_arch@@PEBD@std@@@3@$0A@@std@@@std@@IEAAPEAU?$_Tree_node@U?$pair@$$CBW4llm_arch@@PEBD@std@@PEAX@1@QEAU21@AEBU?$pair@$$CBW4llm_arch@@PEBD@1@@Z
	??$_Emplace_hint@AEBU?$pair@$$CBW4llm_arch@@V?$map@W4llm_tensor@@V?$basic_string@DU?$char_traits@D@std@@V?$allocator@D@2@@std@@U?$less@W4llm_tensor@@@3@V?$allocator@U?$pair@$$CBW4llm_tensor@@V?$basic_string@DU?$char_traits@D@std@@V?$allocator@D@2@@std@@@std@@@3@@std@@@std@@@?$_Tree@V?$_Tmap_traits@W4llm_arch@@V?$map@W4llm_tensor@@V?$basic_string@DU?$char_traits@D@std@@V?$allocator@D@2@@std@@U?$less@W4llm_tensor@@@3@V?$allocator@U?$pair@$$CBW4llm_tensor@@V?$basic_string@DU?$char_traits@D@std@@V?$allocator@D@2@@std@@@std@@@3@@std@@U?$less@W4llm_arch@@@3@V?$allocator@U?$pair@$$CBW4llm_arch@@V?$map@W4llm_tensor@@V?$basic_string@DU?$char_traits@D@std@@V?$allocator@D@2@@std@@U?$less@W4llm_tensor@@@3@V?$allocator@U?$pair@$$CBW4llm_tensor@@V?$basic_string@DU?$char_traits@D@std@@V?$allocator@D@2@@std@@@std@@@3@@std@@@std@@@3@$0A@@std@@@std@@IEAAPEAU?$_Tree_node@U?$pair@$$CBW4llm_arch@@V?$map@W4llm_tensor@@V?$basic_string@DU?$char_traits@D@std@@V?$allocator@D@2@@std@@U?$less@W4llm_tensor@@@3@V?$allocator@U?$pair@$$CBW4llm_tensor@@V?$basic_string@DU?$char_traits@D@std@@V?$allocator@D@2@@std@@@std@@@3@@std@@@std@@PEAX@1@QEAU21@AEBU?$pair@$$CBW4llm_arch@@V?$map@W4llm_tensor@@V?$basic_string@DU?$char_traits@D@std@@V?$allocator@D@2@@std@@U?$less@W4llm_tensor@@@3@V?$allocator@U?$pair@$$CBW4llm_tensor@@V?$basic_string@DU?$char_traits@D@std@@V?$allocator@D@2@@std@@@std@@@3@@std@@@1@@Z
	??$_Emplace_hint@AEBU?$pair@$$CBW4llm_kv@@PEBD@std@@@?$_Tree@V?$_Tmap_traits@W4llm_kv@@PEBDU?$less@W4llm_kv@@@std@@V?$allocator@U?$pair@$$CBW4llm_kv@@PEBD@std@@@3@$0A@@std@@@std@@IEAAPEAU?$_Tree_node@U?$pair@$$CBW4llm_kv@@PEBD@std@@PEAX@1@QEAU21@AEBU?$pair@$$CBW4llm_kv@@PEBD@1@@Z
	??$_Emplace_hint@AEBU?$pair@$$CBW4llm_tensor@@V?$basic_string@DU?$char_traits@D@std@@V?$allocator@D@2@@std@@@std@@@?$_Tree@V?$_Tmap_traits@W4llm_tensor@@V?$basic_string@DU?$char_traits@D@std@@V?$allocator@D@2@@std@@U?$less@W4llm_tensor@@@3@V?$allocator@U?$pair@$$CBW4llm_tensor@@V?$basic_string@DU?$char_traits@D@std@@V?$allocator@D@2@@std@@@std@@@3@$0A@@std@@@std@@IEAAPEAU?$_Tree_node@U?$pair@$$CBW4llm_tensor@@V?$basic_string@DU?$char_traits@D@std@@V?$allocator@D@2@@std@@@std@@PEAX@1@QEAU21@AEBU?$pair@$$CBW4llm_tensor@@V?$basic_string@DU?$char_traits@D@std@@V?$allocator@D@2@@std@@@1@@Z
	??$_Emplace_one_at_back@$$V@?$vector@V?$basic_string@DU?$char_traits@D@std@@V?$allocator@D@2@@std@@V?$allocator@V?$basic_string@DU?$char_traits@D@std@@V?$allocator@D@2@@std@@@2@@std@@AEAAAEAV?$basic_string@DU?$char_traits@D@std@@V?$allocator@D@2@@1@XZ
	??$_Emplace_one_at_back@AEAIAEAI@?$vector@U?$pair@II@std@@V?$allocator@U?$pair@II@std@@@2@@std@@AEAAAEAU?$pair@II@1@AEAI0@Z
	??$_Emplace_one_at_back@AEAIAEBI@?$vector@U?$pair@II@std@@V?$allocator@U?$pair@II@std@@@2@@std@@AEAAAEAU?$pair@II@1@AEAIAEBI@Z
	??$_Emplace_one_at_back@AEAPEAUggml_context@@@?$vector@PEAUggml_context@@V?$allocator@PEAUggml_context@@@std@@@std@@AEAAAEAPEAUggml_context@@AEAPEAU2@@Z
	??$_Emplace_one_at_back@AEAPEAUggml_context@@AEAV?$unordered_map@IPEAUggml_backend_buffer@@U?$hash@I@std@@U?$equal_to@I@3@V?$allocator@U?$pair@$$CBIPEAUggml_backend_buffer@@@std@@@3@@std@@@?$vector@U?$pair@PEAUggml_context@@V?$unordered_map@IPEAUggml_backend_buffer@@U?$hash@I@std@@U?$equal_to@I@3@V?$allocator@U?$pair@$$CBIPEAUggml_backend_buffer@@@std@@@3@@std@@@std@@V?$allocator@U?$pair@PEAUggml_context@@V?$unordered_map@IPEAUggml_backend_buffer@@U?$hash@I@std@@U?$equal_to@I@3@V?$allocator@U?$pair@$$CBIPEAUggml_backend_buffer@@@std@@@3@@std@@@std@@@2@@std@@AEAAAEAU?$pair@PEAUggml_context@@V?$unordered_map@IPEAUggml_backend_buffer@@U?$hash@I@std@@U?$equal_to@I@3@V?$allocator@U?$pair@$$CBIPEAUggml_backend_buffer@@@std@@@3@@std@@@1@AEAPEAUggml_context@@AEAV?$unordered_map@IPEAUggml_backend_buffer@@U?$hash@I@std@@U?$equal_to@I@3@V?$allocator@U?$pair@$$CBIPEAUggml_backend_buffer@@@std@@@3@@1@@Z
	??$_Emplace_one_at_back@AEAUllm_symbol@@@?$vector@Ullm_symbol@@V?$allocator@Ullm_symbol@@@std@@@std@@AEAAAEAUllm_symbol@@AEAU2@@Z
	??$_Emplace_one_at_back@AEAV?$basic_string@DU?$char_traits@D@std@@V?$allocator@D@2@@std@@@?$vector@V?$basic_string@DU?$char_traits@D@std@@V?$allocator@D@2@@std@@V?$allocator@V?$basic_string@DU?$char_traits@D@std@@V?$allocator@D@2@@std@@@2@@std@@AEAAAEAV?$basic_string@DU?$char_traits@D@std@@V?$allocator@D@2@@1@AEAV21@@Z
	??$_Emplace_one_at_back@AEA_KH@?$vector@U?$pair@_K_K@std@@V?$allocator@U?$pair@_K_K@std@@@2@@std@@AEAAAEAU?$pair@_K_K@1@AEA_K$$QEAH@Z
	??$_Emplace_one_at_back@AEBH@?$vector@HV?$allocator@H@std@@@std@@AEAAAEAHAEBH@Z
	??$_Emplace_one_at_back@AEBI@?$vector@IV?$allocator@I@std@@@std@@AEAAAEAIAEBI@Z
	??$_Emplace_one_at_back@AEBM@?$vector@MV?$allocator@M@std@@@std@@AEAAAEAMAEBM@Z
	??$_Emplace_one_at_back@AEBQEAUggml_backend@@@?$vector@PEAUggml_backend@@V?$allocator@PEAUggml_backend@@@std@@@std@@AEAAAEAPEAUggml_backend@@AEBQEAU2@@Z
	??$_Emplace_one_at_back@AEBQEAUggml_backend_buffer@@@?$vector@PEAUggml_backend_buffer@@V?$allocator@PEAUggml_backend_buffer@@@std@@@std@@AEAAAEAPEAUggml_backend_buffer@@AEBQEAU2@@Z
	??$_Emplace_one_at_back@AEBQEAUggml_context@@@?$vector@PEAUggml_context@@V?$allocator@PEAUggml_context@@@std@@@std@@AEAAAEAPEAUggml_context@@AEBQEAU2@@Z
	??$_Emplace_one_at_back@AEBQEAUggml_tensor@@@?$vector@PEAUggml_tensor@@V?$allocator@PEAUggml_tensor@@@std@@@std@@AEAAAEAPEAUggml_tensor@@AEBQEAU2@@Z
	??$_Emplace_one_at_back@AEBQEAUllama_token_data@@@?$vector@PEAUllama_token_data@@V?$allocator@PEAUllama_token_data@@@std@@@std@@AEAAAEAPEAUllama_token_data@@AEBQEAU2@@Z
	??$_Emplace_one_at_back@AEBQEBUllama_grammar_element@@@?$vector@PEBUllama_grammar_element@@V?$allocator@PEBUllama_grammar_element@@@std@@@std@@AEAAAEAPEBUllama_grammar_element@@AEBQEBU2@@Z
	??$_Emplace_one_at_back@AEBUllama_grammar_candidate@@@?$vector@Ullama_grammar_candidate@@V?$allocator@Ullama_grammar_candidate@@@std@@@std@@AEAAAEAUllama_grammar_candidate@@AEBU2@@Z
	??$_Emplace_one_at_back@AEBUllama_grammar_element@@@?$vector@Ullama_grammar_element@@V?$allocator@Ullama_grammar_element@@@std@@@std@@AEAAAEAUllama_grammar_element@@AEBU2@@Z
	??$_Emplace_one_at_back@AEBUllama_sbatch_seq@@@?$vector@Ullama_sbatch_seq@@V?$allocator@Ullama_sbatch_seq@@@std@@@std@@AEAAAEAUllama_sbatch_seq@@AEBU2@@Z
	??$_Emplace_one_at_back@AEBUllama_token_data@@@?$vector@Ullama_token_data@@V?$allocator@Ullama_token_data@@@std@@@std@@AEAAAEAUllama_token_data@@AEBU2@@Z
	??$_Emplace_one_at_back@AEBUllm_bigram_bpe@@@?$vector@Ullm_bigram_bpe@@V?$allocator@Ullm_bigram_bpe@@@std@@@std@@AEAAAEAUllm_bigram_bpe@@AEBU2@@Z
	??$_Emplace_one_at_back@AEBUllm_bigram_spm@@@?$vector@Ullm_bigram_spm@@V?$allocator@Ullm_bigram_spm@@@std@@@std@@AEAAAEAUllm_bigram_spm@@AEBU2@@Z
	??$_Emplace_one_at_back@AEBV?$basic_string@DU?$char_traits@D@std@@V?$allocator@D@2@@std@@@?$vector@V?$basic_string@DU?$char_traits@D@std@@V?$allocator@D@2@@std@@V?$allocator@V?$basic_string@DU?$char_traits@D@std@@V?$allocator@D@2@@std@@@2@@std@@AEAAAEAV?$basic_string@DU?$char_traits@D@std@@V?$allocator@D@2@@1@AEBV21@@Z
	??$_Emplace_one_at_back@AEBV?$vector@PEBUllama_grammar_element@@V?$allocator@PEBUllama_grammar_element@@@std@@@std@@@?$vector@V?$vector@PEBUllama_grammar_element@@V?$allocator@PEBUllama_grammar_element@@@std@@@std@@V?$allocator@V?$vector@PEBUllama_grammar_element@@V?$allocator@PEBUllama_grammar_element@@@std@@@std@@@2@@std@@AEAAAEAV?$vector@PEBUllama_grammar_element@@V?$allocator@PEBUllama_grammar_element@@@std@@@1@AEBV21@@Z
	??$_Emplace_one_at_back@AEB_K@?$vector@_KV?$allocator@_K@std@@@std@@AEAAAEA_KAEB_K@Z
	??$_Emplace_one_at_back@I@?$vector@IV?$allocator@I@std@@@std@@AEAAAEAI$$QEAI@Z
	??$_Emplace_one_at_back@N@?$vector@NV?$allocator@N@std@@@std@@AEAAAEAN$$QEAN@Z
	??$_Emplace_one_at_back@PEAUggml_backend_buffer_type@@@?$vector@PEAUggml_backend_buffer_type@@V?$allocator@PEAUggml_backend_buffer_type@@@std@@@std@@AEAAAEAPEAUggml_backend_buffer_type@@$$QEAPEAU2@@Z
	??$_Emplace_one_at_back@PEAUggml_tensor@@@?$vector@PEAUggml_tensor@@V?$allocator@PEAUggml_tensor@@@std@@@std@@AEAAAEAPEAUggml_tensor@@$$QEAPEAU2@@Z
	??$_Emplace_one_at_back@PEAUllama_file@@@?$vector@V?$unique_ptr@Ullama_file@@U?$default_delete@Ullama_file@@@std@@@std@@V?$allocator@V?$unique_ptr@Ullama_file@@U?$default_delete@Ullama_file@@@std@@@std@@@2@@std@@AEAAAEAV?$unique_ptr@Ullama_file@@U?$default_delete@Ullama_file@@@std@@@1@$$QEAPEAUllama_file@@@Z
	??$_Emplace_one_at_back@PEAUllama_file@@AEAGAEAY0EA@DAEAPEAUgguf_context@@AEAPEAUggml_tensor@@@?$vector@Ullama_tensor_weight@llama_model_loader@@V?$allocator@Ullama_tensor_weight@llama_model_loader@@@std@@@std@@AEAAAEAUllama_tensor_weight@llama_model_loader@@$$QEAPEAUllama_file@@AEAGAEAY0EA@DAEAPEAUgguf_context@@AEAPEAUggml_tensor@@@Z
	??$_Emplace_one_at_back@PEAUllama_file@@HAEAY0EA@DAEAPEAUgguf_context@@AEAPEAUggml_tensor@@@?$vector@Ullama_tensor_weight@llama_model_loader@@V?$allocator@Ullama_tensor_weight@llama_model_loader@@@std@@@std@@AEAAAEAUllama_tensor_weight@llama_model_loader@@$$QEAPEAUllama_file@@$$QEAHAEAY0EA@DAEAPEAUgguf_context@@AEAPEAUggml_tensor@@@Z
	??$_Emplace_one_at_back@PEAUllama_mlock@@@?$vector@V?$unique_ptr@Ullama_mlock@@U?$default_delete@Ullama_mlock@@@std@@@std@@V?$allocator@V?$unique_ptr@Ullama_mlock@@U?$default_delete@Ullama_mlock@@@std@@@std@@@2@@std@@AEAAAEAV?$unique_ptr@Ullama_mlock@@U?$default_delete@Ullama_mlock@@@std@@@1@$$QEAPEAUllama_mlock@@@Z
	??$_Emplace_one_at_back@PEBDAEAPEAUggml_tensor@@@?$vector@U?$pair@V?$basic_string@DU?$char_traits@D@std@@V?$allocator@D@2@@std@@PEAUggml_tensor@@@std@@V?$allocator@U?$pair@V?$basic_string@DU?$char_traits@D@std@@V?$allocator@D@2@@std@@PEAUggml_tensor@@@std@@@2@@std@@AEAAAEAU?$pair@V?$basic_string@DU?$char_traits@D@std@@V?$allocator@D@2@@std@@PEAUggml_tensor@@@1@$$QEAPEBDAEAPEAUggml_tensor@@@Z
	??$_Emplace_one_at_back@PEBUllama_grammar_element@@@?$vector@PEBUllama_grammar_element@@V?$allocator@PEBUllama_grammar_element@@@std@@@std@@AEAAAEAPEBUllama_grammar_element@@$$QEAPEBU2@@Z
	??$_Emplace_one_at_back@U?$pair@V?$vector@IV?$allocator@I@std@@@std@@Ullama_partial_utf8@@@std@@@?$vector@U?$pair@V?$vector@IV?$allocator@I@std@@@std@@Ullama_partial_utf8@@@std@@V?$allocator@U?$pair@V?$vector@IV?$allocator@I@std@@@std@@Ullama_partial_utf8@@@std@@@2@@std@@AEAAAEAU?$pair@V?$vector@IV?$allocator@I@std@@@std@@Ullama_partial_utf8@@@1@$$QEAU21@@Z
	??$_Emplace_one_at_back@Ullama_grammar_candidate@@@?$vector@Ullama_grammar_candidate@@V?$allocator@Ullama_grammar_candidate@@@std@@@std@@AEAAAEAUllama_grammar_candidate@@$$QEAU2@@Z
	??$_Emplace_one_at_back@Ullama_grammar_element@@@?$vector@Ullama_grammar_element@@V?$allocator@Ullama_grammar_element@@@std@@@std@@AEAAAEAUllama_grammar_element@@$$QEAU2@@Z
	??$_Emplace_one_at_back@Ullm_symbol@@@?$vector@Ullm_symbol@@V?$allocator@Ullm_symbol@@@std@@@std@@AEAAAEAUllm_symbol@@$$QEAU2@@Z
	??$_Emplace_one_at_back@V?$future@U?$pair@PEAUggml_tensor@@_N@std@@@std@@@?$vector@V?$future@U?$pair@PEAUggml_tensor@@_N@std@@@std@@V?$allocator@V?$future@U?$pair@PEAUggml_tensor@@_N@std@@@std@@@2@@std@@AEAAAEAV?$future@U?$pair@PEAUggml_tensor@@_N@std@@@1@$$QEAV21@@Z
	??$_Emplace_one_at_back@V?$unique_ptr@Ullama_mlock@@U?$default_delete@Ullama_mlock@@@std@@@std@@@?$vector@V?$unique_ptr@Ullama_mlock@@U?$default_delete@Ullama_mlock@@@std@@@std@@V?$allocator@V?$unique_ptr@Ullama_mlock@@U?$default_delete@Ullama_mlock@@@std@@@std@@@2@@std@@AEAAAEAV?$unique_ptr@Ullama_mlock@@U?$default_delete@Ullama_mlock@@@std@@@1@$$QEAV21@@Z
	??$_Emplace_one_at_back@V?$unique_ptr@Ullama_mmap@@U?$default_delete@Ullama_mmap@@@std@@@std@@@?$vector@V?$unique_ptr@Ullama_mmap@@U?$default_delete@Ullama_mmap@@@std@@@std@@V?$allocator@V?$unique_ptr@Ullama_mmap@@U?$default_delete@Ullama_mmap@@@std@@@std@@@2@@std@@AEAAAEAV?$unique_ptr@Ullama_mmap@@U?$default_delete@Ullama_mmap@@@std@@@1@$$QEAV21@@Z
	??$_Emplace_one_at_back@_J@?$vector@_KV?$allocator@_K@std@@@std@@AEAAAEA_K$$QEA_J@Z
	??$_Emplace_one_at_back@_K@?$vector@_KV?$allocator@_K@std@@@std@@AEAAAEA_K$$QEA_K@Z
	??$_Emplace_reallocate@$$V@?$vector@V?$basic_string@DU?$char_traits@D@std@@V?$allocator@D@2@@std@@V?$allocator@V?$basic_string@DU?$char_traits@D@std@@V?$allocator@D@2@@std@@@2@@std@@AEAAPEAV?$basic_string@DU?$char_traits@D@std@@V?$allocator@D@2@@1@QEAV21@@Z
	??$_Emplace_reallocate@AEAIAEAI@?$vector@U?$pair@II@std@@V?$allocator@U?$pair@II@std@@@2@@std@@AEAAPEAU?$pair@II@1@QEAU21@AEAI1@Z
	??$_Emplace_reallocate@AEAIAEBI@?$vector@U?$pair@II@std@@V?$allocator@U?$pair@II@std@@@2@@std@@AEAAPEAU?$pair@II@1@QEAU21@AEAIAEBI@Z
	??$_Emplace_reallocate@AEAPEAUggml_context@@@?$vector@PEAUggml_context@@V?$allocator@PEAUggml_context@@@std@@@std@@AEAAPEAPEAUggml_context@@QEAPEAU2@AEAPEAU2@@Z
	??$_Emplace_reallocate@AEAPEAUggml_context@@AEAV?$unordered_map@IPEAUggml_backend_buffer@@U?$hash@I@std@@U?$equal_to@I@3@V?$allocator@U?$pair@$$CBIPEAUggml_backend_buffer@@@std@@@3@@std@@@?$vector@U?$pair@PEAUggml_context@@V?$unordered_map@IPEAUggml_backend_buffer@@U?$hash@I@std@@U?$equal_to@I@3@V?$allocator@U?$pair@$$CBIPEAUggml_backend_buffer@@@std@@@3@@std@@@std@@V?$allocator@U?$pair@PEAUggml_context@@V?$unordered_map@IPEAUggml_backend_buffer@@U?$hash@I@std@@U?$equal_to@I@3@V?$allocator@U?$pair@$$CBIPEAUggml_backend_buffer@@@std@@@3@@std@@@std@@@2@@std@@AEAAPEAU?$pair@PEAUggml_context@@V?$unordered_map@IPEAUggml_backend_buffer@@U?$hash@I@std@@U?$equal_to@I@3@V?$allocator@U?$pair@$$CBIPEAUggml_backend_buffer@@@std@@@3@@std@@@1@QEAU21@AEAPEAUggml_context@@AEAV?$unordered_map@IPEAUggml_backend_buffer@@U?$hash@I@std@@U?$equal_to@I@3@V?$allocator@U?$pair@$$CBIPEAUggml_backend_buffer@@@std@@@3@@1@@Z
	??$_Emplace_reallocate@AEAUllm_symbol@@@?$vector@Ullm_symbol@@V?$allocator@Ullm_symbol@@@std@@@std@@AEAAPEAUllm_symbol@@QEAU2@AEAU2@@Z
	??$_Emplace_reallocate@AEAV?$basic_string@DU?$char_traits@D@std@@V?$allocator@D@2@@std@@@?$vector@V?$basic_string@DU?$char_traits@D@std@@V?$allocator@D@2@@std@@V?$allocator@V?$basic_string@DU?$char_traits@D@std@@V?$allocator@D@2@@std@@@2@@std@@AEAAPEAV?$basic_string@DU?$char_traits@D@std@@V?$allocator@D@2@@1@QEAV21@AEAV21@@Z
	??$_Emplace_reallocate@AEA_KH@?$vector@U?$pair@_K_K@std@@V?$allocator@U?$pair@_K_K@std@@@2@@std@@AEAAPEAU?$pair@_K_K@1@QEAU21@AEA_K$$QEAH@Z
	??$_Emplace_reallocate@AEBH@?$vector@HV?$allocator@H@std@@@std@@AEAAPEAHQEAHAEBH@Z
	??$_Emplace_reallocate@AEBI@?$vector@IV?$allocator@I@std@@@std@@AEAAPEAIQEAIAEBI@Z
	??$_Emplace_reallocate@AEBM@?$vector@MV?$allocator@M@std@@@std@@AEAAPEAMQEAMAEBM@Z
	??$_Emplace_reallocate@AEBQEAUggml_backend@@@?$vector@PEAUggml_backend@@V?$allocator@PEAUggml_backend@@@std@@@std@@AEAAPEAPEAUggml_backend@@QEAPEAU2@AEBQEAU2@@Z
	??$_Emplace_reallocate@AEBQEAUggml_backend_buffer@@@?$vector@PEAUggml_backend_buffer@@V?$allocator@PEAUggml_backend_buffer@@@std@@@std@@AEAAPEAPEAUggml_backend_buffer@@QEAPEAU2@AEBQEAU2@@Z
	??$_Emplace_reallocate@AEBQEAUggml_context@@@?$vector@PEAUggml_context@@V?$allocator@PEAUggml_context@@@std@@@std@@AEAAPEAPEAUggml_context@@QEAPEAU2@AEBQEAU2@@Z
	??$_Emplace_reallocate@AEBQEAUggml_tensor@@@?$vector@PEAUggml_tensor@@V?$allocator@PEAUggml_tensor@@@std@@@std@@AEAAPEAPEAUggml_tensor@@QEAPEAU2@AEBQEAU2@@Z
	??$_Emplace_reallocate@AEBQEAUllama_token_data@@@?$vector@PEAUllama_token_data@@V?$allocator@PEAUllama_token_data@@@std@@@std@@AEAAPEAPEAUllama_token_data@@QEAPEAU2@AEBQEAU2@@Z
	??$_Emplace_reallocate@AEBQEBUllama_grammar_element@@@?$vector@PEBUllama_grammar_element@@V?$allocator@PEBUllama_grammar_element@@@std@@@std@@AEAAPEAPEBUllama_grammar_element@@QEAPEBU2@AEBQEBU2@@Z
	??$_Emplace_reallocate@AEBUllama_grammar_candidate@@@?$vector@Ullama_grammar_candidate@@V?$allocator@Ullama_grammar_candidate@@@std@@@std@@AEAAPEAUllama_grammar_candidate@@QEAU2@AEBU2@@Z
	??$_Emplace_reallocate@AEBUllama_grammar_element@@@?$vector@Ullama_grammar_element@@V?$allocator@Ullama_grammar_element@@@std@@@std@@AEAAPEAUllama_grammar_element@@QEAU2@AEBU2@@Z
	??$_Emplace_reallocate@AEBUllama_sbatch_seq@@@?$vector@Ullama_sbatch_seq@@V?$allocator@Ullama_sbatch_seq@@@std@@@std@@AEAAPEAUllama_sbatch_seq@@QEAU2@AEBU2@@Z
	??$_Emplace_reallocate@AEBUllama_token_data@@@?$vector@Ullama_token_data@@V?$allocator@Ullama_token_data@@@std@@@std@@AEAAPEAUllama_token_data@@QEAU2@AEBU2@@Z
	??$_Emplace_reallocate@AEBUllm_bigram_bpe@@@?$vector@Ullm_bigram_bpe@@V?$allocator@Ullm_bigram_bpe@@@std@@@std@@AEAAPEAUllm_bigram_bpe@@QEAU2@AEBU2@@Z
	??$_Emplace_reallocate@AEBUllm_bigram_spm@@@?$vector@Ullm_bigram_spm@@V?$allocator@Ullm_bigram_spm@@@std@@@std@@AEAAPEAUllm_bigram_spm@@QEAU2@AEBU2@@Z
	??$_Emplace_reallocate@AEBV?$basic_string@DU?$char_traits@D@std@@V?$allocator@D@2@@std@@@?$vector@V?$basic_string@DU?$char_traits@D@std@@V?$allocator@D@2@@std@@V?$allocator@V?$basic_string@DU?$char_traits@D@std@@V?$allocator@D@2@@std@@@2@@std@@AEAAPEAV?$basic_string@DU?$char_traits@D@std@@V?$allocator@D@2@@1@QEAV21@AEBV21@@Z
	??$_Emplace_reallocate@AEBV?$vector@PEBUllama_grammar_element@@V?$allocator@PEBUllama_grammar_element@@@std@@@std@@@?$vector@V?$vector@PEBUllama_grammar_element@@V?$allocator@PEBUllama_grammar_element@@@std@@@std@@V?$allocator@V?$vector@PEBUllama_grammar_element@@V?$allocator@PEBUllama_grammar_element@@@std@@@std@@@2@@std@@AEAAPEAV?$vector@PEBUllama_grammar_element@@V?$allocator@PEBUllama_grammar_element@@@std@@@1@QEAV21@AEBV21@@Z
	??$_Emplace_reallocate@AEB_K@?$vector@_KV?$allocator@_K@std@@@std@@AEAAPEA_KQEA_KAEB_K@Z
	??$_Emplace_reallocate@I@?$vector@IV?$allocator@I@std@@@std@@AEAAPEAIQEAI$$QEAI@Z
	??$_Emplace_reallocate@N@?$vector@NV?$allocator@N@std@@@std@@AEAAPEANQEAN$$QEAN@Z
	??$_Emplace_reallocate@PEAUggml_backend_buffer_type@@@?$vector@PEAUggml_backend_buffer_type@@V?$allocator@PEAUggml_backend_buffer_type@@@std@@@std@@AEAAPEAPEAUggml_backend_buffer_type@@QEAPEAU2@$$QEAPEAU2@@Z
	??$_Emplace_reallocate@PEAUggml_tensor@@@?$vector@PEAUggml_tensor@@V?$allocator@PEAUggml_tensor@@@std@@@std@@AEAAPEAPEAUggml_tensor@@QEAPEAU2@$$QEAPEAU2@@Z
	??$_Emplace_reallocate@PEAUllama_file@@@?$vector@V?$unique_ptr@Ullama_file@@U?$default_delete@Ullama_file@@@std@@@std@@V?$allocator@V?$unique_ptr@Ullama_file@@U?$default_delete@Ullama_file@@@std@@@std@@@2@@std@@AEAAPEAV?$unique_ptr@Ullama_file@@U?$default_delete@Ullama_file@@@std@@@1@QEAV21@$$QEAPEAUllama_file@@@Z
	??$_Emplace_reallocate@PEAUllama_file@@AEAGAEAY0EA@DAEAPEAUgguf_context@@AEAPEAUggml_tensor@@@?$vector@Ullama_tensor_weight@llama_model_loader@@V?$allocator@Ullama_tensor_weight@llama_model_loader@@@std@@@std@@AEAAPEAUllama_tensor_weight@llama_model_loader@@QEAU23@$$QEAPEAUllama_file@@AEAGAEAY0EA@DAEAPEAUgguf_context@@AEAPEAUggml_tensor@@@Z
	??$_Emplace_reallocate@PEAUllama_file@@HAEAY0EA@DAEAPEAUgguf_context@@AEAPEAUggml_tensor@@@?$vector@Ullama_tensor_weight@llama_model_loader@@V?$allocator@Ullama_tensor_weight@llama_model_loader@@@std@@@std@@AEAAPEAUllama_tensor_weight@llama_model_loader@@QEAU23@$$QEAPEAUllama_file@@$$QEAHAEAY0EA@DAEAPEAUgguf_context@@AEAPEAUggml_tensor@@@Z
	??$_Emplace_reallocate@PEAUllama_mlock@@@?$vector@V?$unique_ptr@Ullama_mlock@@U?$default_delete@Ullama_mlock@@@std@@@std@@V?$allocator@V?$unique_ptr@Ullama_mlock@@U?$default_delete@Ullama_mlock@@@std@@@std@@@2@@std@@AEAAPEAV?$unique_ptr@Ullama_mlock@@U?$default_delete@Ullama_mlock@@@std@@@1@QEAV21@$$QEAPEAUllama_mlock@@@Z
	??$_Emplace_reallocate@PEBDAEAPEAUggml_tensor@@@?$vector@U?$pair@V?$basic_string@DU?$char_traits@D@std@@V?$allocator@D@2@@std@@PEAUggml_tensor@@@std@@V?$allocator@U?$pair@V?$basic_string@DU?$char_traits@D@std@@V?$allocator@D@2@@std@@PEAUggml_tensor@@@std@@@2@@std@@AEAAPEAU?$pair@V?$basic_string@DU?$char_traits@D@std@@V?$allocator@D@2@@std@@PEAUggml_tensor@@@1@QEAU21@$$QEAPEBDAEAPEAUggml_tensor@@@Z
	??$_Emplace_reallocate@PEBUllama_grammar_element@@@?$vector@PEBUllama_grammar_element@@V?$allocator@PEBUllama_grammar_element@@@std@@@std@@AEAAPEAPEBUllama_grammar_element@@QEAPEBU2@$$QEAPEBU2@@Z
	??$_Emplace_reallocate@U?$pair@V?$vector@IV?$allocator@I@std@@@std@@Ullama_partial_utf8@@@std@@@?$vector@U?$pair@V?$vector@IV?$allocator@I@std@@@std@@Ullama_partial_utf8@@@std@@V?$allocator@U?$pair@V?$vector@IV?$allocator@I@std@@@std@@Ullama_partial_utf8@@@std@@@2@@std@@AEAAPEAU?$pair@V?$vector@IV?$allocator@I@std@@@std@@Ullama_partial_utf8@@@1@QEAU21@$$QEAU21@@Z
	??$_Emplace_reallocate@Ullama_grammar_candidate@@@?$vector@Ullama_grammar_candidate@@V?$allocator@Ullama_grammar_candidate@@@std@@@std@@AEAAPEAUllama_grammar_candidate@@QEAU2@$$QEAU2@@Z
	??$_Emplace_reallocate@Ullama_grammar_element@@@?$vector@Ullama_grammar_element@@V?$allocator@Ullama_grammar_element@@@std@@@std@@AEAAPEAUllama_grammar_element@@QEAU2@$$QEAU2@@Z
	??$_Emplace_reallocate@Ullm_symbol@@@?$vector@Ullm_symbol@@V?$allocator@Ullm_symbol@@@std@@@std@@AEAAPEAUllm_symbol@@QEAU2@$$QEAU2@@Z
	??$_Emplace_reallocate@V?$future@U?$pair@PEAUggml_tensor@@_N@std@@@std@@@?$vector@V?$future@U?$pair@PEAUggml_tensor@@_N@std@@@std@@V?$allocator@V?$future@U?$pair@PEAUggml_tensor@@_N@std@@@std@@@2@@std@@AEAAPEAV?$future@U?$pair@PEAUggml_tensor@@_N@std@@@1@QEAV21@$$QEAV21@@Z
	??$_Emplace_reallocate@V?$unique_ptr@Ullama_mlock@@U?$default_delete@Ullama_mlock@@@std@@@std@@@?$vector@V?$unique_ptr@Ullama_mlock@@U?$default_delete@Ullama_mlock@@@std@@@std@@V?$allocator@V?$unique_ptr@Ullama_mlock@@U?$default_delete@Ullama_mlock@@@std@@@std@@@2@@std@@AEAAPEAV?$unique_ptr@Ullama_mlock@@U?$default_delete@Ullama_mlock@@@std@@@1@QEAV21@$$QEAV21@@Z
	??$_Emplace_reallocate@V?$unique_ptr@Ullama_mmap@@U?$default_delete@Ullama_mmap@@@std@@@std@@@?$vector@V?$unique_ptr@Ullama_mmap@@U?$default_delete@Ullama_mmap@@@std@@@std@@V?$allocator@V?$unique_ptr@Ullama_mmap@@U?$default_delete@Ullama_mmap@@@std@@@std@@@2@@std@@AEAAPEAV?$unique_ptr@Ullama_mmap@@U?$default_delete@Ullama_mmap@@@std@@@1@QEAV21@$$QEAV21@@Z
	??$_Emplace_reallocate@_J@?$vector@_KV?$allocator@_K@std@@@std@@AEAAPEA_KQEA_K$$QEA_J@Z
	??$_Emplace_reallocate@_K@?$vector@_KV?$allocator@_K@std@@@std@@AEAAPEA_KQEA_K$$QEA_K@Z
	??$_Emplace_result@U?$pair@PEAUggml_tensor@@_N@std@@@?$_Associated_state@U?$pair@PEAUggml_tensor@@_N@std@@@std@@QEAAX$$QEAU?$pair@PEAUggml_tensor@@_N@1@@Z
	??$_Eqrange@H@?$_Tree@V?$_Tset_traits@HU?$less@H@std@@V?$allocator@H@2@$0A@@std@@@std@@IEBA?AU?$pair@PEAU?$_Tree_node@HPEAX@std@@PEAU12@@1@AEBH@Z
	??$_Erase_head@V?$allocator@U?$_Tree_node@HPEAX@std@@@std@@@?$_Tree_val@U?$_Tree_simple_types@H@std@@@std@@QEAAXAEAV?$allocator@U?$_Tree_node@HPEAX@std@@@1@@Z
	??$_Erase_head@V?$allocator@U?$_Tree_node@PEAUllama_lora_adapter@@PEAX@std@@@std@@@?$_Tree_val@U?$_Tree_simple_types@PEAUllama_lora_adapter@@@std@@@std@@QEAAXAEAV?$allocator@U?$_Tree_node@PEAUllama_lora_adapter@@PEAX@std@@@1@@Z
	??$_Erase_head@V?$allocator@U?$_Tree_node@U?$pair@$$CBDUnaive_trie@@@std@@PEAX@std@@@std@@@?$_Tree_val@U?$_Tree_simple_types@U?$pair@$$CBDUnaive_trie@@@std@@@std@@@std@@QEAAXAEAV?$allocator@U?$_Tree_node@U?$pair@$$CBDUnaive_trie@@@std@@PEAX@std@@@1@@Z
	??$_Erase_head@V?$allocator@U?$_Tree_node@U?$pair@$$CBHH@std@@PEAX@std@@@std@@@?$_Tree_val@U?$_Tree_simple_types@U?$pair@$$CBHH@std@@@std@@@std@@QEAAXAEAV?$allocator@U?$_Tree_node@U?$pair@$$CBHH@std@@PEAX@std@@@1@@Z
	??$_Erase_head@V?$allocator@U?$_Tree_node@U?$pair@$$CBHV?$basic_string@DU?$char_traits@D@std@@V?$allocator@D@2@@std@@@std@@PEAX@std@@@std@@@?$_Tree_val@U?$_Tree_simple_types@U?$pair@$$CBHV?$basic_string@DU?$char_traits@D@std@@V?$allocator@D@2@@std@@@std@@@std@@@std@@QEAAXAEAV?$allocator@U?$_Tree_node@U?$pair@$$CBHV?$basic_string@DU?$char_traits@D@std@@V?$allocator@D@2@@std@@@std@@PEAX@std@@@1@@Z
	??$_Erase_head@V?$allocator@U?$_Tree_node@U?$pair@$$CBHV?$vector@MV?$allocator@M@std@@@std@@@std@@PEAX@std@@@std@@@?$_Tree_val@U?$_Tree_simple_types@U?$pair@$$CBHV?$vector@MV?$allocator@M@std@@@std@@@std@@@std@@@std@@QEAAXAEAV?$allocator@U?$_Tree_node@U?$pair@$$CBHV?$vector@MV?$allocator@M@std@@@std@@@std@@PEAX@std@@@1@@Z
	??$_Erase_head@V?$allocator@U?$_Tree_node@U?$pair@$$CBU?$pair@V?$basic_string@DU?$char_traits@D@std@@V?$allocator@D@2@@std@@V12@@std@@H@std@@PEAX@std@@@std@@@?$_Tree_val@U?$_Tree_simple_types@U?$pair@$$CBU?$pair@V?$basic_string@DU?$char_traits@D@std@@V?$allocator@D@2@@std@@V12@@std@@H@std@@@std@@@std@@QEAAXAEAV?$allocator@U?$_Tree_node@U?$pair@$$CBU?$pair@V?$basic_string@DU?$char_traits@D@std@@V?$allocator@D@2@@std@@V12@@std@@H@std@@PEAX@std@@@1@@Z
	??$_Erase_head@V?$allocator@U?$_Tree_node@U?$pair@$$CBV?$basic_string@DU?$char_traits@D@std@@V?$allocator@D@2@@std@@H@std@@PEAX@std@@@std@@@?$_Tree_val@U?$_Tree_simple_types@U?$pair@$$CBV?$basic_string@DU?$char_traits@D@std@@V?$allocator@D@2@@std@@H@std@@@std@@@std@@QEAAXAEAV?$allocator@U?$_Tree_node@U?$pair@$$CBV?$basic_string@DU?$char_traits@D@std@@V?$allocator@D@2@@std@@H@std@@PEAX@std@@@1@@Z
	??$_Erase_head@V?$allocator@U?$_Tree_node@U?$pair@$$CBV?$basic_string@DU?$char_traits@D@std@@V?$allocator@D@2@@std@@U?$pair@HH@2@@std@@PEAX@std@@@std@@@?$_Tree_val@U?$_Tree_simple_types@U?$pair@$$CBV?$basic_string@DU?$char_traits@D@std@@V?$allocator@D@2@@std@@U?$pair@HH@2@@std@@@std@@@std@@QEAAXAEAV?$allocator@U?$_Tree_node@U?$pair@$$CBV?$basic_string@DU?$char_traits@D@std@@V?$allocator@D@2@@std@@U?$pair@HH@2@@std@@PEAX@std@@@1@@Z
	??$_Erase_head@V?$allocator@U?$_Tree_node@U?$pair@$$CBV?$basic_string@DU?$char_traits@D@std@@V?$allocator@D@2@@std@@Ullama_lora_weight@@@std@@PEAX@std@@@std@@@?$_Tree_val@U?$_Tree_simple_types@U?$pair@$$CBV?$basic_string@DU?$char_traits@D@std@@V?$allocator@D@2@@std@@Ullama_lora_weight@@@std@@@std@@@std@@QEAAXAEAV?$allocator@U?$_Tree_node@U?$pair@$$CBV?$basic_string@DU?$char_traits@D@std@@V?$allocator@D@2@@std@@Ullama_lora_weight@@@std@@PEAX@std@@@1@@Z
	??$_Erase_head@V?$allocator@U?$_Tree_node@U?$pair@$$CBW4ggml_type@@I@std@@PEAX@std@@@std@@@?$_Tree_val@U?$_Tree_simple_types@U?$pair@$$CBW4ggml_type@@I@std@@@std@@@std@@QEAAXAEAV?$allocator@U?$_Tree_node@U?$pair@$$CBW4ggml_type@@I@std@@PEAX@std@@@1@@Z
	??$_Erase_head@V?$allocator@U?$_Tree_node@U?$pair@$$CBW4llama_rope_scaling_type@@PEBD@std@@PEAX@std@@@std@@@?$_Tree_val@U?$_Tree_simple_types@U?$pair@$$CBW4llama_rope_scaling_type@@PEBD@std@@@std@@@std@@QEAAXAEAV?$allocator@U?$_Tree_node@U?$pair@$$CBW4llama_rope_scaling_type@@PEBD@std@@PEAX@std@@@1@@Z
	??$_Erase_head@V?$allocator@U?$_Tree_node@U?$pair@$$CBW4llm_arch@@PEBD@std@@PEAX@std@@@std@@@?$_Tree_val@U?$_Tree_simple_types@U?$pair@$$CBW4llm_arch@@PEBD@std@@@std@@@std@@QEAAXAEAV?$allocator@U?$_Tree_node@U?$pair@$$CBW4llm_arch@@PEBD@std@@PEAX@std@@@1@@Z
	??$_Erase_head@V?$allocator@U?$_Tree_node@U?$pair@$$CBW4llm_arch@@V?$map@W4llm_tensor@@V?$basic_string@DU?$char_traits@D@std@@V?$allocator@D@2@@std@@U?$less@W4llm_tensor@@@3@V?$allocator@U?$pair@$$CBW4llm_tensor@@V?$basic_string@DU?$char_traits@D@std@@V?$allocator@D@2@@std@@@std@@@3@@std@@@std@@PEAX@std@@@std@@@?$_Tree_val@U?$_Tree_simple_types@U?$pair@$$CBW4llm_arch@@V?$map@W4llm_tensor@@V?$basic_string@DU?$char_traits@D@std@@V?$allocator@D@2@@std@@U?$less@W4llm_tensor@@@3@V?$allocator@U?$pair@$$CBW4llm_tensor@@V?$basic_string@DU?$char_traits@D@std@@V?$allocator@D@2@@std@@@std@@@3@@std@@@std@@@std@@@std@@QEAAXAEAV?$allocator@U?$_Tree_node@U?$pair@$$CBW4llm_arch@@V?$map@W4llm_tensor@@V?$basic_string@DU?$char_traits@D@std@@V?$allocator@D@2@@std@@U?$less@W4llm_tensor@@@3@V?$allocator@U?$pair@$$CBW4llm_tensor@@V?$basic_string@DU?$char_traits@D@std@@V?$allocator@D@2@@std@@@std@@@3@@std@@@std@@PEAX@std@@@1@@Z
	??$_Erase_head@V?$allocator@U?$_Tree_node@U?$pair@$$CBW4llm_kv@@PEBD@std@@PEAX@std@@@std@@@?$_Tree_val@U?$_Tree_simple_types@U?$pair@$$CBW4llm_kv@@PEBD@std@@@std@@@std@@QEAAXAEAV?$allocator@U?$_Tree_node@U?$pair@$$CBW4llm_kv@@PEBD@std@@PEAX@std@@@1@@Z
	??$_Erase_head@V?$allocator@U?$_Tree_node@U?$pair@$$CBW4llm_tensor@@V?$basic_string@DU?$char_traits@D@std@@V?$allocator@D@2@@std@@@std@@PEAX@std@@@std@@@?$_Tree_val@U?$_Tree_simple_types@U?$pair@$$CBW4llm_tensor@@V?$basic_string@DU?$char_traits@D@std@@V?$allocator@D@2@@std@@@std@@@std@@@std@@QEAAXAEAV?$allocator@U?$_Tree_node@U?$pair@$$CBW4llm_tensor@@V?$basic_string@DU?$char_traits@D@std@@V?$allocator@D@2@@std@@@std@@PEAX@std@@@1@@Z
	??$_Erase_head@V?$allocator@U?$_Tree_node@U?$pair@QEAUggml_backend_buffer_type@@H@std@@PEAX@std@@@std@@@?$_Tree_val@U?$_Tree_simple_types@U?$pair@QEAUggml_backend_buffer_type@@H@std@@@std@@@std@@QEAAXAEAV?$allocator@U?$_Tree_node@U?$pair@QEAUggml_backend_buffer_type@@H@std@@PEAX@std@@@1@@Z
	??$_Erase_head@V?$allocator@U?$_Tree_node@U?$pair@QEAUggml_backend_buffer_type@@PEAUggml_context@@@std@@PEAX@std@@@std@@@?$_Tree_val@U?$_Tree_simple_types@U?$pair@QEAUggml_backend_buffer_type@@PEAUggml_context@@@std@@@std@@@std@@QEAAXAEAV?$allocator@U?$_Tree_node@U?$pair@QEAUggml_backend_buffer_type@@PEAUggml_context@@@std@@PEAX@std@@@1@@Z
	??$_Erase_head@V?$allocator@U?$_Tree_node@V?$basic_string@DU?$char_traits@D@std@@V?$allocator@D@2@@std@@PEAX@std@@@std@@@?$_Tree_val@U?$_Tree_simple_types@V?$basic_string@DU?$char_traits@D@std@@V?$allocator@D@2@@std@@@std@@@std@@QEAAXAEAV?$allocator@U?$_Tree_node@V?$basic_string@DU?$char_traits@D@std@@V?$allocator@D@2@@std@@PEAX@std@@@1@@Z
	??$_Erase_tree@V?$allocator@U?$_Tree_node@HPEAX@std@@@std@@@?$_Tree_val@U?$_Tree_simple_types@H@std@@@std@@QEAAXAEAV?$allocator@U?$_Tree_node@HPEAX@std@@@1@PEAU?$_Tree_node@HPEAX@1@@Z
	??$_Erase_tree@V?$allocator@U?$_Tree_node@PEAUllama_lora_adapter@@PEAX@std@@@std@@@?$_Tree_val@U?$_Tree_simple_types@PEAUllama_lora_adapter@@@std@@@std@@QEAAXAEAV?$allocator@U?$_Tree_node@PEAUllama_lora_adapter@@PEAX@std@@@1@PEAU?$_Tree_node@PEAUllama_lora_adapter@@PEAX@1@@Z
	??$_Erase_tree@V?$allocator@U?$_Tree_node@U?$pair@$$CBDUnaive_trie@@@std@@PEAX@std@@@std@@@?$_Tree_val@U?$_Tree_simple_types@U?$pair@$$CBDUnaive_trie@@@std@@@std@@@std@@QEAAXAEAV?$allocator@U?$_Tree_node@U?$pair@$$CBDUnaive_trie@@@std@@PEAX@std@@@1@PEAU?$_Tree_node@U?$pair@$$CBDUnaive_trie@@@std@@PEAX@1@@Z
	??$_Erase_tree@V?$allocator@U?$_Tree_node@U?$pair@$$CBHH@std@@PEAX@std@@@std@@@?$_Tree_val@U?$_Tree_simple_types@U?$pair@$$CBHH@std@@@std@@@std@@QEAAXAEAV?$allocator@U?$_Tree_node@U?$pair@$$CBHH@std@@PEAX@std@@@1@PEAU?$_Tree_node@U?$pair@$$CBHH@std@@PEAX@1@@Z
	??$_Erase_tree@V?$allocator@U?$_Tree_node@U?$pair@$$CBHV?$basic_string@DU?$char_traits@D@std@@V?$allocator@D@2@@std@@@std@@PEAX@std@@@std@@@?$_Tree_val@U?$_Tree_simple_types@U?$pair@$$CBHV?$basic_string@DU?$char_traits@D@std@@V?$allocator@D@2@@std@@@std@@@std@@@std@@QEAAXAEAV?$allocator@U?$_Tree_node@U?$pair@$$CBHV?$basic_string@DU?$char_traits@D@std@@V?$allocator@D@2@@std@@@std@@PEAX@std@@@1@PEAU?$_Tree_node@U?$pair@$$CBHV?$basic_string@DU?$char_traits@D@std@@V?$allocator@D@2@@std@@@std@@PEAX@1@@Z
	??$_Erase_tree@V?$allocator@U?$_Tree_node@U?$pair@$$CBHV?$vector@MV?$allocator@M@std@@@std@@@std@@PEAX@std@@@std@@@?$_Tree_val@U?$_Tree_simple_types@U?$pair@$$CBHV?$vector@MV?$allocator@M@std@@@std@@@std@@@std@@@std@@QEAAXAEAV?$allocator@U?$_Tree_node@U?$pair@$$CBHV?$vector@MV?$allocator@M@std@@@std@@@std@@PEAX@std@@@1@PEAU?$_Tree_node@U?$pair@$$CBHV?$vector@MV?$allocator@M@std@@@std@@@std@@PEAX@1@@Z
	??$_Erase_tree@V?$allocator@U?$_Tree_node@U?$pair@$$CBU?$pair@V?$basic_string@DU?$char_traits@D@std@@V?$allocator@D@2@@std@@V12@@std@@H@std@@PEAX@std@@@std@@@?$_Tree_val@U?$_Tree_simple_types@U?$pair@$$CBU?$pair@V?$basic_string@DU?$char_traits@D@std@@V?$allocator@D@2@@std@@V12@@std@@H@std@@@std@@@std@@QEAAXAEAV?$allocator@U?$_Tree_node@U?$pair@$$CBU?$pair@V?$basic_string@DU?$char_traits@D@std@@V?$allocator@D@2@@std@@V12@@std@@H@std@@PEAX@std@@@1@PEAU?$_Tree_node@U?$pair@$$CBU?$pair@V?$basic_string@DU?$char_traits@D@std@@V?$allocator@D@2@@std@@V12@@std@@H@std@@PEAX@1@@Z
	??$_Erase_tree@V?$allocator@U?$_Tree_node@U?$pair@$$CBV?$basic_string@DU?$char_traits@D@std@@V?$allocator@D@2@@std@@H@std@@PEAX@std@@@std@@@?$_Tree_val@U?$_Tree_simple_types@U?$pair@$$CBV?$basic_string@DU?$char_traits@D@std@@V?$allocator@D@2@@std@@H@std@@@std@@@std@@QEAAXAEAV?$allocator@U?$_Tree_node@U?$pair@$$CBV?$basic_string@DU?$char_traits@D@std@@V?$allocator@D@2@@std@@H@std@@PEAX@std@@@1@PEAU?$_Tree_node@U?$pair@$$CBV?$basic_string@DU?$char_traits@D@std@@V?$allocator@D@2@@std@@H@std@@PEAX@1@@Z
	??$_Erase_tree@V?$allocator@U?$_Tree_node@U?$pair@$$CBV?$basic_string@DU?$char_traits@D@std@@V?$allocator@D@2@@std@@U?$pair@HH@2@@std@@PEAX@std@@@std@@@?$_Tree_val@U?$_Tree_simple_types@U?$pair@$$CBV?$basic_string@DU?$char_traits@D@std@@V?$allocator@D@2@@std@@U?$pair@HH@2@@std@@@std@@@std@@QEAAXAEAV?$allocator@U?$_Tree_node@U?$pair@$$CBV?$basic_string@DU?$char_traits@D@std@@V?$allocator@D@2@@std@@U?$pair@HH@2@@std@@PEAX@std@@@1@PEAU?$_Tree_node@U?$pair@$$CBV?$basic_string@DU?$char_traits@D@std@@V?$allocator@D@2@@std@@U?$pair@HH@2@@std@@PEAX@1@@Z
	??$_Erase_tree@V?$allocator@U?$_Tree_node@U?$pair@$$CBV?$basic_string@DU?$char_traits@D@std@@V?$allocator@D@2@@std@@Ullama_lora_weight@@@std@@PEAX@std@@@std@@@?$_Tree_val@U?$_Tree_simple_types@U?$pair@$$CBV?$basic_string@DU?$char_traits@D@std@@V?$allocator@D@2@@std@@Ullama_lora_weight@@@std@@@std@@@std@@QEAAXAEAV?$allocator@U?$_Tree_node@U?$pair@$$CBV?$basic_string@DU?$char_traits@D@std@@V?$allocator@D@2@@std@@Ullama_lora_weight@@@std@@PEAX@std@@@1@PEAU?$_Tree_node@U?$pair@$$CBV?$basic_string@DU?$char_traits@D@std@@V?$allocator@D@2@@std@@Ullama_lora_weight@@@std@@PEAX@1@@Z
	??$_Erase_tree@V?$allocator@U?$_Tree_node@U?$pair@$$CBW4ggml_type@@I@std@@PEAX@std@@@std@@@?$_Tree_val@U?$_Tree_simple_types@U?$pair@$$CBW4ggml_type@@I@std@@@std@@@std@@QEAAXAEAV?$allocator@U?$_Tree_node@U?$pair@$$CBW4ggml_type@@I@std@@PEAX@std@@@1@PEAU?$_Tree_node@U?$pair@$$CBW4ggml_type@@I@std@@PEAX@1@@Z
	??$_Erase_tree@V?$allocator@U?$_Tree_node@U?$pair@$$CBW4llama_rope_scaling_type@@PEBD@std@@PEAX@std@@@std@@@?$_Tree_val@U?$_Tree_simple_types@U?$pair@$$CBW4llama_rope_scaling_type@@PEBD@std@@@std@@@std@@QEAAXAEAV?$allocator@U?$_Tree_node@U?$pair@$$CBW4llama_rope_scaling_type@@PEBD@std@@PEAX@std@@@1@PEAU?$_Tree_node@U?$pair@$$CBW4llama_rope_scaling_type@@PEBD@std@@PEAX@1@@Z
	??$_Erase_tree@V?$allocator@U?$_Tree_node@U?$pair@$$CBW4llm_arch@@PEBD@std@@PEAX@std@@@std@@@?$_Tree_val@U?$_Tree_simple_types@U?$pair@$$CBW4llm_arch@@PEBD@std@@@std@@@std@@QEAAXAEAV?$allocator@U?$_Tree_node@U?$pair@$$CBW4llm_arch@@PEBD@std@@PEAX@std@@@1@PEAU?$_Tree_node@U?$pair@$$CBW4llm_arch@@PEBD@std@@PEAX@1@@Z
	??$_Erase_tree@V?$allocator@U?$_Tree_node@U?$pair@$$CBW4llm_arch@@V?$map@W4llm_tensor@@V?$basic_string@DU?$char_traits@D@std@@V?$allocator@D@2@@std@@U?$less@W4llm_tensor@@@3@V?$allocator@U?$pair@$$CBW4llm_tensor@@V?$basic_string@DU?$char_traits@D@std@@V?$allocator@D@2@@std@@@std@@@3@@std@@@std@@PEAX@std@@@std@@@?$_Tree_val@U?$_Tree_simple_types@U?$pair@$$CBW4llm_arch@@V?$map@W4llm_tensor@@V?$basic_string@DU?$char_traits@D@std@@V?$allocator@D@2@@std@@U?$less@W4llm_tensor@@@3@V?$allocator@U?$pair@$$CBW4llm_tensor@@V?$basic_string@DU?$char_traits@D@std@@V?$allocator@D@2@@std@@@std@@@3@@std@@@std@@@std@@@std@@QEAAXAEAV?$allocator@U?$_Tree_node@U?$pair@$$CBW4llm_arch@@V?$map@W4llm_tensor@@V?$basic_string@DU?$char_traits@D@std@@V?$allocator@D@2@@std@@U?$less@W4llm_tensor@@@3@V?$allocator@U?$pair@$$CBW4llm_tensor@@V?$basic_string@DU?$char_traits@D@std@@V?$allocator@D@2@@std@@@std@@@3@@std@@@std@@PEAX@std@@@1@PEAU?$_Tree_node@U?$pair@$$CBW4llm_arch@@V?$map@W4llm_tensor@@V?$basic_string@DU?$char_traits@D@std@@V?$allocator@D@2@@std@@U?$less@W4llm_tensor@@@3@V?$allocator@U?$pair@$$CBW4llm_tensor@@V?$basic_string@DU?$char_traits@D@std@@V?$allocator@D@2@@std@@@std@@@3@@std@@@std@@PEAX@1@@Z
	??$_Erase_tree@V?$allocator@U?$_Tree_node@U?$pair@$$CBW4llm_kv@@PEBD@std@@PEAX@std@@@std@@@?$_Tree_val@U?$_Tree_simple_types@U?$pair@$$CBW4llm_kv@@PEBD@std@@@std@@@std@@QEAAXAEAV?$allocator@U?$_Tree_node@U?$pair@$$CBW4llm_kv@@PEBD@std@@PEAX@std@@@1@PEAU?$_Tree_node@U?$pair@$$CBW4llm_kv@@PEBD@std@@PEAX@1@@Z
	??$_Erase_tree@V?$allocator@U?$_Tree_node@U?$pair@$$CBW4llm_tensor@@V?$basic_string@DU?$char_traits@D@std@@V?$allocator@D@2@@std@@@std@@PEAX@std@@@std@@@?$_Tree_val@U?$_Tree_simple_types@U?$pair@$$CBW4llm_tensor@@V?$basic_string@DU?$char_traits@D@std@@V?$allocator@D@2@@std@@@std@@@std@@@std@@QEAAXAEAV?$allocator@U?$_Tree_node@U?$pair@$$CBW4llm_tensor@@V?$basic_string@DU?$char_traits@D@std@@V?$allocator@D@2@@std@@@std@@PEAX@std@@@1@PEAU?$_Tree_node@U?$pair@$$CBW4llm_tensor@@V?$basic_string@DU?$char_traits@D@std@@V?$allocator@D@2@@std@@@std@@PEAX@1@@Z
	??$_Erase_tree@V?$allocator@U?$_Tree_node@U?$pair@QEAUggml_backend_buffer_type@@H@std@@PEAX@std@@@std@@@?$_Tree_val@U?$_Tree_simple_types@U?$pair@QEAUggml_backend_buffer_type@@H@std@@@std@@@std@@QEAAXAEAV?$allocator@U?$_Tree_node@U?$pair@QEAUggml_backend_buffer_type@@H@std@@PEAX@std@@@1@PEAU?$_Tree_node@U?$pair@QEAUggml_backend_buffer_type@@H@std@@PEAX@1@@Z
	??$_Erase_tree@V?$allocator@U?$_Tree_node@U?$pair@QEAUggml_backend_buffer_type@@PEAUggml_context@@@std@@PEAX@std@@@std@@@?$_Tree_val@U?$_Tree_simple_types@U?$pair@QEAUggml_backend_buffer_type@@PEAUggml_context@@@std@@@std@@@std@@QEAAXAEAV?$allocator@U?$_Tree_node@U?$pair@QEAUggml_backend_buffer_type@@PEAUggml_context@@@std@@PEAX@std@@@1@PEAU?$_Tree_node@U?$pair@QEAUggml_backend_buffer_type@@PEAUggml_context@@@std@@PEAX@1@@Z
	??$_Erase_tree@V?$allocator@U?$_Tree_node@V?$basic_string@DU?$char_traits@D@std@@V?$allocator@D@2@@std@@PEAX@std@@@std@@@?$_Tree_val@U?$_Tree_simple_types@V?$basic_string@DU?$char_traits@D@std@@V?$allocator@D@2@@std@@@std@@@std@@QEAAXAEAV?$allocator@U?$_Tree_node@V?$basic_string@DU?$char_traits@D@std@@V?$allocator@D@2@@std@@PEAX@std@@@1@PEAU?$_Tree_node@V?$basic_string@DU?$char_traits@D@std@@V?$allocator@D@2@@std@@PEAX@1@@Z
	??$_Erase_tree_and_orphan@V?$allocator@U?$_Tree_node@HPEAX@std@@@std@@@?$_Tree_val@U?$_Tree_simple_types@H@std@@@std@@QEAAXAEAV?$allocator@U?$_Tree_node@HPEAX@std@@@1@PEAU?$_Tree_node@HPEAX@1@@Z
	??$_Erase_tree_and_orphan@V?$allocator@U?$_Tree_node@U?$pair@$$CBW4llm_tensor@@V?$basic_string@DU?$char_traits@D@std@@V?$allocator@D@2@@std@@@std@@PEAX@std@@@std@@@?$_Tree_val@U?$_Tree_simple_types@U?$pair@$$CBW4llm_tensor@@V?$basic_string@DU?$char_traits@D@std@@V?$allocator@D@2@@std@@@std@@@std@@@std@@QEAAXAEAV?$allocator@U?$_Tree_node@U?$pair@$$CBW4llm_tensor@@V?$basic_string@DU?$char_traits@D@std@@V?$allocator@D@2@@std@@@std@@PEAX@std@@@1@PEAU?$_Tree_node@U?$pair@$$CBW4llm_tensor@@V?$basic_string@DU?$char_traits@D@std@@V?$allocator@D@2@@std@@@std@@PEAX@1@@Z
	??$_Eval@V?$mersenne_twister_engine@I$0CA@$0CHA@$0BIN@$0BP@$0JJAILANP@$0L@$0PPPPPPPP@$06$0JNCMFGIA@$0P@$0OPMGAAAA@$0BC@$0GMAHIJGF@@std@@@?$discrete_distribution@H@std@@AEBAHAEAV?$mersenne_twister_engine@I$0CA@$0CHA@$0BIN@$0BP@$0JJAILANP@$0L@$0PPPPPPPP@$06$0JNCMFGIA@$0P@$0OPMGAAAA@$0BC@$0GMAHIJGF@@1@AEBUparam_type@01@@Z
	??$_Fgetc@D@std@@YA_NAEADPEAU_iobuf@@@Z
	??$_Fill_memset@PEADD@std@@YAXPEADD_K@Z
	??$_Fill_vbool@V?$_Vb_iterator@U?$_Wrap_alloc@V?$allocator@I@std@@@std@@@std@@@std@@YAXV?$_Vb_iterator@U?$_Wrap_alloc@V?$allocator@I@std@@@std@@@0@V10@_N@Z
	??$_Fill_zero_memset@PEAH@std@@YAXPEAH_K@Z
	??$_Fill_zero_memset@PEAI@std@@YAXPEAI_K@Z
	??$_Fill_zero_memset@PEAM@std@@YAXPEAM_K@Z
	??$_Fill_zero_memset@PEAN@std@@YAXPEAN_K@Z
	??$_Fill_zero_memset@PEAPEAUgguf_context@@@std@@YAXPEAPEAUgguf_context@@_K@Z
	??$_Fill_zero_memset@PEA_K@std@@YAXPEA_K_K@Z
	??$_Find@D@?$_Tree@V?$_Tmap_traits@DUnaive_trie@@U?$less@D@std@@V?$allocator@U?$pair@$$CBDUnaive_trie@@@std@@@3@$0A@@std@@@std@@AEBAPEAU?$_Tree_node@U?$pair@$$CBDUnaive_trie@@@std@@PEAX@1@AEBD@Z
	??$_Find@E@?$_Hash@V?$_Umap_traits@EV?$basic_string@DU?$char_traits@D@std@@V?$allocator@D@2@@std@@V?$_Uhash_compare@EU?$hash@E@std@@U?$equal_to@E@2@@2@V?$allocator@U?$pair@$$CBEV?$basic_string@DU?$char_traits@D@std@@V?$allocator@D@2@@std@@@std@@@2@$0A@@std@@@std@@AEBAPEAU?$_List_node@U?$pair@$$CBEV?$basic_string@DU?$char_traits@D@std@@V?$allocator@D@2@@std@@@std@@PEAX@1@AEBE_K@Z
	??$_Find@E@_Bitmap@std@@QEBA_NE@Z
	??$_Find@G@_Bitmap@std@@QEBA_NG@Z
	??$_Find@H@?$_Hash@V?$_Umap_traits@HHV?$_Uhash_compare@HU?$hash@H@std@@U?$equal_to@H@2@@std@@V?$allocator@U?$pair@$$CBHH@std@@@2@$0A@@std@@@std@@AEBAPEAU?$_List_node@U?$pair@$$CBHH@std@@PEAX@1@AEBH_K@Z
	??$_Find@H@?$_Tree@V?$_Tmap_traits@HHU?$less@H@std@@V?$allocator@U?$pair@$$CBHH@std@@@2@$0A@@std@@@std@@AEBAPEAU?$_Tree_node@U?$pair@$$CBHH@std@@PEAX@1@AEBH@Z
	??$_Find@H@?$_Tree@V?$_Tmap_traits@HV?$vector@MV?$allocator@M@std@@@std@@U?$less@H@2@V?$allocator@U?$pair@$$CBHV?$vector@MV?$allocator@M@std@@@std@@@std@@@2@$0A@@std@@@std@@AEBAPEAU?$_Tree_node@U?$pair@$$CBHV?$vector@MV?$allocator@M@std@@@std@@@std@@PEAX@1@AEBH@Z
	??$_Find@H@?$_Tree@V?$_Tset_traits@HU?$less@H@std@@V?$allocator@H@2@$0A@@std@@@std@@AEBAPEAU?$_Tree_node@HPEAX@1@AEBH@Z
	??$_Find@I@?$_Hash@V?$_Umap_traits@IIV?$_Uhash_compare@IU?$hash@I@std@@U?$equal_to@I@2@@std@@V?$allocator@U?$pair@$$CBII@std@@@2@$0A@@std@@@std@@AEBAPEAU?$_List_node@U?$pair@$$CBII@std@@PEAX@1@AEBI_K@Z
	??$_Find@PEAUggml_backend_buffer_type@@@?$_Tree@V?$_Tmap_traits@PEAUggml_backend_buffer_type@@PEAUggml_context@@U?$less@PEAUggml_backend_buffer_type@@@std@@V?$allocator@U?$pair@QEAUggml_backend_buffer_type@@PEAUggml_context@@@std@@@4@$0A@@std@@@std@@AEBAPEAU?$_Tree_node@U?$pair@QEAUggml_backend_buffer_type@@PEAUggml_context@@@std@@PEAX@1@AEBQEAUggml_backend_buffer_type@@@Z
	??$_Find@PEAUllama_lora_adapter@@@?$_Hash@V?$_Umap_traits@PEAUllama_lora_adapter@@MV?$_Uhash_compare@PEAUllama_lora_adapter@@U?$hash@PEAUllama_lora_adapter@@@std@@U?$equal_to@PEAUllama_lora_adapter@@@3@@std@@V?$allocator@U?$pair@QEAUllama_lora_adapter@@M@std@@@3@$0A@@std@@@std@@AEBAPEAU?$_List_node@U?$pair@QEAUllama_lora_adapter@@M@std@@PEAX@1@AEBQEAUllama_lora_adapter@@_K@Z
	??$_Find@PEAUllama_lora_adapter@@@?$_Tree@V?$_Tset_traits@PEAUllama_lora_adapter@@U?$less@PEAUllama_lora_adapter@@@std@@V?$allocator@PEAUllama_lora_adapter@@@3@$0A@@std@@@std@@AEBAPEAU?$_Tree_node@PEAUllama_lora_adapter@@PEAX@1@AEBQEAUllama_lora_adapter@@@Z
	??$_Find@U?$pair@V?$basic_string@DU?$char_traits@D@std@@V?$allocator@D@2@@std@@V12@@std@@@?$_Tree@V?$_Tmap_traits@U?$pair@V?$basic_string@DU?$char_traits@D@std@@V?$allocator@D@2@@std@@V12@@std@@HU?$less@U?$pair@V?$basic_string@DU?$char_traits@D@std@@V?$allocator@D@2@@std@@V12@@std@@@2@V?$allocator@U?$pair@$$CBU?$pair@V?$basic_string@DU?$char_traits@D@std@@V?$allocator@D@2@@std@@V12@@std@@H@std@@@2@$0A@@std@@@std@@AEBAPEAU?$_Tree_node@U?$pair@$$CBU?$pair@V?$basic_string@DU?$char_traits@D@std@@V?$allocator@D@2@@std@@V12@@std@@H@std@@PEAX@1@AEBU?$pair@V?$basic_string@DU?$char_traits@D@std@@V?$allocator@D@2@@std@@V12@@1@@Z
	??$_Find@V?$basic_string@DU?$char_traits@D@std@@V?$allocator@D@2@@std@@@?$_Hash@V?$_Umap_traits@V?$basic_string@DU?$char_traits@D@std@@V?$allocator@D@2@@std@@EV?$_Uhash_compare@V?$basic_string@DU?$char_traits@D@std@@V?$allocator@D@2@@std@@U?$hash@V?$basic_string@DU?$char_traits@D@std@@V?$allocator@D@2@@std@@@2@U?$equal_to@V?$basic_string@DU?$char_traits@D@std@@V?$allocator@D@2@@std@@@2@@2@V?$allocator@U?$pair@$$CBV?$basic_string@DU?$char_traits@D@std@@V?$allocator@D@2@@std@@E@std@@@2@$0A@@std@@@std@@AEBAPEAU?$_List_node@U?$pair@$$CBV?$basic_string@DU?$char_traits@D@std@@V?$allocator@D@2@@std@@E@std@@PEAX@1@AEBV?$basic_string@DU?$char_traits@D@std@@V?$allocator@D@2@@1@_K@Z
	??$_Find@V?$basic_string@DU?$char_traits@D@std@@V?$allocator@D@2@@std@@@?$_Hash@V?$_Umap_traits@V?$basic_string@DU?$char_traits@D@std@@V?$allocator@D@2@@std@@HV?$_Uhash_compare@V?$basic_string@DU?$char_traits@D@std@@V?$allocator@D@2@@std@@U?$hash@V?$basic_string@DU?$char_traits@D@std@@V?$allocator@D@2@@std@@@2@U?$equal_to@V?$basic_string@DU?$char_traits@D@std@@V?$allocator@D@2@@std@@@2@@2@V?$allocator@U?$pair@$$CBV?$basic_string@DU?$char_traits@D@std@@V?$allocator@D@2@@std@@H@std@@@2@$0A@@std@@@std@@AEBAPEAU?$_List_node@U?$pair@$$CBV?$basic_string@DU?$char_traits@D@std@@V?$allocator@D@2@@std@@H@std@@PEAX@1@AEBV?$basic_string@DU?$char_traits@D@std@@V?$allocator@D@2@@1@_K@Z
	??$_Find@V?$basic_string@DU?$char_traits@D@std@@V?$allocator@D@2@@std@@@?$_Hash@V?$_Umap_traits@V?$basic_string@DU?$char_traits@D@std@@V?$allocator@D@2@@std@@Ullama_lora_weight@@V?$_Uhash_compare@V?$basic_string@DU?$char_traits@D@std@@V?$allocator@D@2@@std@@U?$hash@V?$basic_string@DU?$char_traits@D@std@@V?$allocator@D@2@@std@@@2@U?$equal_to@V?$basic_string@DU?$char_traits@D@std@@V?$allocator@D@2@@std@@@2@@2@V?$allocator@U?$pair@$$CBV?$basic_string@DU?$char_traits@D@std@@V?$allocator@D@2@@std@@Ullama_lora_weight@@@std@@@2@$0A@@std@@@std@@AEBAPEAU?$_List_node@U?$pair@$$CBV?$basic_string@DU?$char_traits@D@std@@V?$allocator@D@2@@std@@Ullama_lora_weight@@@std@@PEAX@1@AEBV?$basic_string@DU?$char_traits@D@std@@V?$allocator@D@2@@1@_K@Z
	??$_Find@V?$basic_string@DU?$char_traits@D@std@@V?$allocator@D@2@@std@@@?$_Hash@V?$_Umap_traits@V?$basic_string@DU?$char_traits@D@std@@V?$allocator@D@2@@std@@Ullama_model_kv_override@@V?$_Uhash_compare@V?$basic_string@DU?$char_traits@D@std@@V?$allocator@D@2@@std@@U?$hash@V?$basic_string@DU?$char_traits@D@std@@V?$allocator@D@2@@std@@@2@U?$equal_to@V?$basic_string@DU?$char_traits@D@std@@V?$allocator@D@2@@std@@@2@@2@V?$allocator@U?$pair@$$CBV?$basic_string@DU?$char_traits@D@std@@V?$allocator@D@2@@std@@Ullama_model_kv_override@@@std@@@2@$0A@@std@@@std@@AEBAPEAU?$_List_node@U?$pair@$$CBV?$basic_string@DU?$char_traits@D@std@@V?$allocator@D@2@@std@@Ullama_model_kv_override@@@std@@PEAX@1@AEBV?$basic_string@DU?$char_traits@D@std@@V?$allocator@D@2@@1@_K@Z
	??$_Find@V?$basic_string@DU?$char_traits@D@std@@V?$allocator@D@2@@std@@@?$_Hash@V?$_Umap_traits@V?$basic_string@DU?$char_traits@D@std@@V?$allocator@D@2@@std@@V12@V?$_Uhash_compare@V?$basic_string@DU?$char_traits@D@std@@V?$allocator@D@2@@std@@U?$hash@V?$basic_string@DU?$char_traits@D@std@@V?$allocator@D@2@@std@@@2@U?$equal_to@V?$basic_string@DU?$char_traits@D@std@@V?$allocator@D@2@@std@@@2@@2@V?$allocator@U?$pair@$$CBV?$basic_string@DU?$char_traits@D@std@@V?$allocator@D@2@@std@@V12@@std@@@2@$0A@@std@@@std@@AEBAPEAU?$_List_node@U?$pair@$$CBV?$basic_string@DU?$char_traits@D@std@@V?$allocator@D@2@@std@@V12@@std@@PEAX@1@AEBV?$basic_string@DU?$char_traits@D@std@@V?$allocator@D@2@@1@_K@Z
	??$_Find@V?$basic_string@DU?$char_traits@D@std@@V?$allocator@D@2@@std@@@?$_Hash@V?$_Umap_traits@V?$basic_string@DU?$char_traits@D@std@@V?$allocator@D@2@@std@@V?$vector@MV?$allocator@M@std@@@2@V?$_Uhash_compare@V?$basic_string@DU?$char_traits@D@std@@V?$allocator@D@2@@std@@U?$hash@V?$basic_string@DU?$char_traits@D@std@@V?$allocator@D@2@@std@@@2@U?$equal_to@V?$basic_string@DU?$char_traits@D@std@@V?$allocator@D@2@@std@@@2@@2@V?$allocator@U?$pair@$$CBV?$basic_string@DU?$char_traits@D@std@@V?$allocator@D@2@@std@@V?$vector@MV?$allocator@M@std@@@2@@std@@@2@$0A@@std@@@std@@AEBAPEAU?$_List_node@U?$pair@$$CBV?$basic_string@DU?$char_traits@D@std@@V?$allocator@D@2@@std@@V?$vector@MV?$allocator@M@std@@@2@@std@@PEAX@1@AEBV?$basic_string@DU?$char_traits@D@std@@V?$allocator@D@2@@1@_K@Z
	??$_Find@V?$basic_string@DU?$char_traits@D@std@@V?$allocator@D@2@@std@@@?$_Tree@V?$_Tmap_traits@V?$basic_string@DU?$char_traits@D@std@@V?$allocator@D@2@@std@@HU?$less@V?$basic_string@DU?$char_traits@D@std@@V?$allocator@D@2@@std@@@2@V?$allocator@U?$pair@$$CBV?$basic_string@DU?$char_traits@D@std@@V?$allocator@D@2@@std@@H@std@@@2@$0A@@std@@@std@@AEBAPEAU?$_Tree_node@U?$pair@$$CBV?$basic_string@DU?$char_traits@D@std@@V?$allocator@D@2@@std@@H@std@@PEAX@1@AEBV?$basic_string@DU?$char_traits@D@std@@V?$allocator@D@2@@1@@Z
	??$_Find@V?$basic_string@DU?$char_traits@D@std@@V?$allocator@D@2@@std@@@?$_Tree@V?$_Tmap_traits@V?$basic_string@DU?$char_traits@D@std@@V?$allocator@D@2@@std@@U?$pair@HH@2@U?$less@V?$basic_string@DU?$char_traits@D@std@@V?$allocator@D@2@@std@@@2@V?$allocator@U?$pair@$$CBV?$basic_string@DU?$char_traits@D@std@@V?$allocator@D@2@@std@@U?$pair@HH@2@@std@@@2@$0A@@std@@@std@@AEBAPEAU?$_Tree_node@U?$pair@$$CBV?$basic_string@DU?$char_traits@D@std@@V?$allocator@D@2@@std@@U?$pair@HH@2@@std@@PEAX@1@AEBV?$basic_string@DU?$char_traits@D@std@@V?$allocator@D@2@@1@@Z
	??$_Find@V?$basic_string@DU?$char_traits@D@std@@V?$allocator@D@2@@std@@@?$_Tree@V?$_Tmap_traits@V?$basic_string@DU?$char_traits@D@std@@V?$allocator@D@2@@std@@Ullama_lora_weight@@U?$less@V?$basic_string@DU?$char_traits@D@std@@V?$allocator@D@2@@std@@@2@V?$allocator@U?$pair@$$CBV?$basic_string@DU?$char_traits@D@std@@V?$allocator@D@2@@std@@Ullama_lora_weight@@@std@@@2@$0A@@std@@@std@@AEBAPEAU?$_Tree_node@U?$pair@$$CBV?$basic_string@DU?$char_traits@D@std@@V?$allocator@D@2@@std@@Ullama_lora_weight@@@std@@PEAX@1@AEBV?$basic_string@DU?$char_traits@D@std@@V?$allocator@D@2@@1@@Z
	??$_Find@V?$basic_string@DU?$char_traits@D@std@@V?$allocator@D@2@@std@@@?$_Tree@V?$_Tset_traits@V?$basic_string@DU?$char_traits@D@std@@V?$allocator@D@2@@std@@U?$less@V?$basic_string@DU?$char_traits@D@std@@V?$allocator@D@2@@std@@@2@V?$allocator@V?$basic_string@DU?$char_traits@D@std@@V?$allocator@D@2@@std@@@2@$0A@@std@@@std@@AEBAPEAU?$_Tree_node@V?$basic_string@DU?$char_traits@D@std@@V?$allocator@D@2@@std@@PEAX@1@AEBV?$basic_string@DU?$char_traits@D@std@@V?$allocator@D@2@@1@@Z
	??$_Find@W4llm_arch@@@?$_Tree@V?$_Tmap_traits@W4llm_arch@@PEBDU?$less@W4llm_arch@@@std@@V?$allocator@U?$pair@$$CBW4llm_arch@@PEBD@std@@@3@$0A@@std@@@std@@AEBAPEAU?$_Tree_node@U?$pair@$$CBW4llm_arch@@PEBD@std@@PEAX@1@AEBW4llm_arch@@@Z
	??$_Find@W4llm_tensor@@@?$_Tree@V?$_Tmap_traits@W4llm_tensor@@V?$basic_string@DU?$char_traits@D@std@@V?$allocator@D@2@@std@@U?$less@W4llm_tensor@@@3@V?$allocator@U?$pair@$$CBW4llm_tensor@@V?$basic_string@DU?$char_traits@D@std@@V?$allocator@D@2@@std@@@std@@@3@$0A@@std@@@std@@AEBAPEAU?$_Tree_node@U?$pair@$$CBW4llm_tensor@@V?$basic_string@DU?$char_traits@D@std@@V?$allocator@D@2@@std@@@std@@PEAX@1@AEBW4llm_tensor@@@Z
	??$_Find_hint@H@?$_Tree@V?$_Tmap_traits@HHU?$less@H@std@@V?$allocator@U?$pair@$$CBHH@std@@@2@$0A@@std@@@std@@IEBA?AU?$_Tree_find_hint_result@PEAU?$_Tree_node@U?$pair@$$CBHH@std@@PEAX@std@@@1@QEAU?$_Tree_node@U?$pair@$$CBHH@std@@PEAX@1@AEBH@Z
	??$_Find_hint@H@?$_Tree@V?$_Tmap_traits@HV?$basic_string@DU?$char_traits@D@std@@V?$allocator@D@2@@std@@U?$less@H@2@V?$allocator@U?$pair@$$CBHV?$basic_string@DU?$char_traits@D@std@@V?$allocator@D@2@@std@@@std@@@2@$0A@@std@@@std@@IEBA?AU?$_Tree_find_hint_result@PEAU?$_Tree_node@U?$pair@$$CBHV?$basic_string@DU?$char_traits@D@std@@V?$allocator@D@2@@std@@@std@@PEAX@std@@@1@QEAU?$_Tree_node@U?$pair@$$CBHV?$basic_string@DU?$char_traits@D@std@@V?$allocator@D@2@@std@@@std@@PEAX@1@AEBH@Z
	??$_Find_hint@V?$basic_string@DU?$char_traits@D@std@@V?$allocator@D@2@@std@@@?$_Tree@V?$_Tmap_traits@V?$basic_string@DU?$char_traits@D@std@@V?$allocator@D@2@@std@@HU?$less@V?$basic_string@DU?$char_traits@D@std@@V?$allocator@D@2@@std@@@2@V?$allocator@U?$pair@$$CBV?$basic_string@DU?$char_traits@D@std@@V?$allocator@D@2@@std@@H@std@@@2@$0A@@std@@@std@@IEBA?AU?$_Tree_find_hint_result@PEAU?$_Tree_node@U?$pair@$$CBV?$basic_string@DU?$char_traits@D@std@@V?$allocator@D@2@@std@@H@std@@PEAX@std@@@1@QEAU?$_Tree_node@U?$pair@$$CBV?$basic_string@DU?$char_traits@D@std@@V?$allocator@D@2@@std@@H@std@@PEAX@1@AEBV?$basic_string@DU?$char_traits@D@std@@V?$allocator@D@2@@1@@Z
	??$_Find_hint@W4llama_rope_scaling_type@@@?$_Tree@V?$_Tmap_traits@W4llama_rope_scaling_type@@PEBDU?$less@W4llama_rope_scaling_type@@@std@@V?$allocator@U?$pair@$$CBW4llama_rope_scaling_type@@PEBD@std@@@3@$0A@@std@@@std@@IEBA?AU?$_Tree_find_hint_result@PEAU?$_Tree_node@U?$pair@$$CBW4llama_rope_scaling_type@@PEBD@std@@PEAX@std@@@1@QEAU?$_Tree_node@U?$pair@$$CBW4llama_rope_scaling_type@@PEBD@std@@PEAX@1@AEBW4llama_rope_scaling_type@@@Z
	??$_Find_hint@W4llm_arch@@@?$_Tree@V?$_Tmap_traits@W4llm_arch@@PEBDU?$less@W4llm_arch@@@std@@V?$allocator@U?$pair@$$CBW4llm_arch@@PEBD@std@@@3@$0A@@std@@@std@@IEBA?AU?$_Tree_find_hint_result@PEAU?$_Tree_node@U?$pair@$$CBW4llm_arch@@PEBD@std@@PEAX@std@@@1@QEAU?$_Tree_node@U?$pair@$$CBW4llm_arch@@PEBD@std@@PEAX@1@AEBW4llm_arch@@@Z
	??$_Find_hint@W4llm_arch@@@?$_Tree@V?$_Tmap_traits@W4llm_arch@@V?$map@W4llm_tensor@@V?$basic_string@DU?$char_traits@D@std@@V?$allocator@D@2@@std@@U?$less@W4llm_tensor@@@3@V?$allocator@U?$pair@$$CBW4llm_tensor@@V?$basic_string@DU?$char_traits@D@std@@V?$allocator@D@2@@std@@@std@@@3@@std@@U?$less@W4llm_arch@@@3@V?$allocator@U?$pair@$$CBW4llm_arch@@V?$map@W4llm_tensor@@V?$basic_string@DU?$char_traits@D@std@@V?$allocator@D@2@@std@@U?$less@W4llm_tensor@@@3@V?$allocator@U?$pair@$$CBW4llm_tensor@@V?$basic_string@DU?$char_traits@D@std@@V?$allocator@D@2@@std@@@std@@@3@@std@@@std@@@3@$0A@@std@@@std@@IEBA?AU?$_Tree_find_hint_result@PEAU?$_Tree_node@U?$pair@$$CBW4llm_arch@@V?$map@W4llm_tensor@@V?$basic_string@DU?$char_traits@D@std@@V?$allocator@D@2@@std@@U?$less@W4llm_tensor@@@3@V?$allocator@U?$pair@$$CBW4llm_tensor@@V?$basic_string@DU?$char_traits@D@std@@V?$allocator@D@2@@std@@@std@@@3@@std@@@std@@PEAX@std@@@1@QEAU?$_Tree_node@U?$pair@$$CBW4llm_arch@@V?$map@W4llm_tensor@@V?$basic_string@DU?$char_traits@D@std@@V?$allocator@D@2@@std@@U?$less@W4llm_tensor@@@3@V?$allocator@U?$pair@$$CBW4llm_tensor@@V?$basic_string@DU?$char_traits@D@std@@V?$allocator@D@2@@std@@@std@@@3@@std@@@std@@PEAX@1@AEBW4llm_arch@@@Z
	??$_Find_hint@W4llm_kv@@@?$_Tree@V?$_Tmap_traits@W4llm_kv@@PEBDU?$less@W4llm_kv@@@std@@V?$allocator@U?$pair@$$CBW4llm_kv@@PEBD@std@@@3@$0A@@std@@@std@@IEBA?AU?$_Tree_find_hint_result@PEAU?$_Tree_node@U?$pair@$$CBW4llm_kv@@PEBD@std@@PEAX@std@@@1@QEAU?$_Tree_node@U?$pair@$$CBW4llm_kv@@PEBD@std@@PEAX@1@AEBW4llm_kv@@@Z
	??$_Find_hint@W4llm_tensor@@@?$_Tree@V?$_Tmap_traits@W4llm_tensor@@V?$basic_string@DU?$char_traits@D@std@@V?$allocator@D@2@@std@@U?$less@W4llm_tensor@@@3@V?$allocator@U?$pair@$$CBW4llm_tensor@@V?$basic_string@DU?$char_traits@D@std@@V?$allocator@D@2@@std@@@std@@@3@$0A@@std@@@std@@IEBA?AU?$_Tree_find_hint_result@PEAU?$_Tree_node@U?$pair@$$CBW4llm_tensor@@V?$basic_string@DU?$char_traits@D@std@@V?$allocator@D@2@@std@@@std@@PEAX@std@@@1@QEAU?$_Tree_node@U?$pair@$$CBW4llm_tensor@@V?$basic_string@DU?$char_traits@D@std@@V?$allocator@D@2@@std@@@std@@PEAX@1@AEBW4llm_tensor@@@Z
	??$_Find_last@E@?$_Hash@V?$_Umap_traits@EV?$basic_string@DU?$char_traits@D@std@@V?$allocator@D@2@@std@@V?$_Uhash_compare@EU?$hash@E@std@@U?$equal_to@E@2@@2@V?$allocator@U?$pair@$$CBEV?$basic_string@DU?$char_traits@D@std@@V?$allocator@D@2@@std@@@std@@@2@$0A@@std@@@std@@IEBA?AU?$_Hash_find_last_result@PEAU?$_List_node@U?$pair@$$CBEV?$basic_string@DU?$char_traits@D@std@@V?$allocator@D@2@@std@@@std@@PEAX@std@@@1@AEBE_K@Z
	??$_Find_last@H@?$_Hash@V?$_Umap_traits@HHV?$_Uhash_compare@HU?$hash@H@std@@U?$equal_to@H@2@@std@@V?$allocator@U?$pair@$$CBHH@std@@@2@$0A@@std@@@std@@IEBA?AU?$_Hash_find_last_result@PEAU?$_List_node@U?$pair@$$CBHH@std@@PEAX@std@@@1@AEBH_K@Z
	??$_Find_last@I@?$_Hash@V?$_Umap_traits@IIV?$_Uhash_compare@IU?$hash@I@std@@U?$equal_to@I@2@@std@@V?$allocator@U?$pair@$$CBII@std@@@2@$0A@@std@@@std@@IEBA?AU?$_Hash_find_last_result@PEAU?$_List_node@U?$pair@$$CBII@std@@PEAX@std@@@1@AEBI_K@Z
	??$_Find_last@I@?$_Hash@V?$_Umap_traits@IPEAUggml_backend_buffer@@V?$_Uhash_compare@IU?$hash@I@std@@U?$equal_to@I@2@@std@@V?$allocator@U?$pair@$$CBIPEAUggml_backend_buffer@@@std@@@3@$0A@@std@@@std@@IEBA?AU?$_Hash_find_last_result@PEAU?$_List_node@U?$pair@$$CBIPEAUggml_backend_buffer@@@std@@PEAX@std@@@1@AEBI_K@Z
	??$_Find_last@I@?$_Hash@V?$_Uset_traits@IV?$_Uhash_compare@IU?$hash@I@std@@U?$equal_to@I@2@@std@@V?$allocator@I@2@$0A@@std@@@std@@IEBA?AU?$_Hash_find_last_result@PEAU?$_List_node@IPEAX@std@@@1@AEBI_K@Z
	??$_Find_last@PEAUllama_lora_adapter@@@?$_Hash@V?$_Umap_traits@PEAUllama_lora_adapter@@MV?$_Uhash_compare@PEAUllama_lora_adapter@@U?$hash@PEAUllama_lora_adapter@@@std@@U?$equal_to@PEAUllama_lora_adapter@@@3@@std@@V?$allocator@U?$pair@QEAUllama_lora_adapter@@M@std@@@3@$0A@@std@@@std@@IEBA?AU?$_Hash_find_last_result@PEAU?$_List_node@U?$pair@QEAUllama_lora_adapter@@M@std@@PEAX@std@@@1@AEBQEAUllama_lora_adapter@@_K@Z
	??$_Find_last@V?$basic_string@DU?$char_traits@D@std@@V?$allocator@D@2@@std@@@?$_Hash@V?$_Umap_traits@V?$basic_string@DU?$char_traits@D@std@@V?$allocator@D@2@@std@@EV?$_Uhash_compare@V?$basic_string@DU?$char_traits@D@std@@V?$allocator@D@2@@std@@U?$hash@V?$basic_string@DU?$char_traits@D@std@@V?$allocator@D@2@@std@@@2@U?$equal_to@V?$basic_string@DU?$char_traits@D@std@@V?$allocator@D@2@@std@@@2@@2@V?$allocator@U?$pair@$$CBV?$basic_string@DU?$char_traits@D@std@@V?$allocator@D@2@@std@@E@std@@@2@$0A@@std@@@std@@IEBA?AU?$_Hash_find_last_result@PEAU?$_List_node@U?$pair@$$CBV?$basic_string@DU?$char_traits@D@std@@V?$allocator@D@2@@std@@E@std@@PEAX@std@@@1@AEBV?$basic_string@DU?$char_traits@D@std@@V?$allocator@D@2@@1@_K@Z
	??$_Find_last@V?$basic_string@DU?$char_traits@D@std@@V?$allocator@D@2@@std@@@?$_Hash@V?$_Umap_traits@V?$basic_string@DU?$char_traits@D@std@@V?$allocator@D@2@@std@@HV?$_Uhash_compare@V?$basic_string@DU?$char_traits@D@std@@V?$allocator@D@2@@std@@U?$hash@V?$basic_string@DU?$char_traits@D@std@@V?$allocator@D@2@@std@@@2@U?$equal_to@V?$basic_string@DU?$char_traits@D@std@@V?$allocator@D@2@@std@@@2@@2@V?$allocator@U?$pair@$$CBV?$basic_string@DU?$char_traits@D@std@@V?$allocator@D@2@@std@@H@std@@@2@$0A@@std@@@std@@IEBA?AU?$_Hash_find_last_result@PEAU?$_List_node@U?$pair@$$CBV?$basic_string@DU?$char_traits@D@std@@V?$allocator@D@2@@std@@H@std@@PEAX@std@@@1@AEBV?$basic_string@DU?$char_traits@D@std@@V?$allocator@D@2@@1@_K@Z
	??$_Find_last@V?$basic_string@DU?$char_traits@D@std@@V?$allocator@D@2@@std@@@?$_Hash@V?$_Umap_traits@V?$basic_string@DU?$char_traits@D@std@@V?$allocator@D@2@@std@@Ullama_lora_weight@@V?$_Uhash_compare@V?$basic_string@DU?$char_traits@D@std@@V?$allocator@D@2@@std@@U?$hash@V?$basic_string@DU?$char_traits@D@std@@V?$allocator@D@2@@std@@@2@U?$equal_to@V?$basic_string@DU?$char_traits@D@std@@V?$allocator@D@2@@std@@@2@@2@V?$allocator@U?$pair@$$CBV?$basic_string@DU?$char_traits@D@std@@V?$allocator@D@2@@std@@Ullama_lora_weight@@@std@@@2@$0A@@std@@@std@@IEBA?AU?$_Hash_find_last_result@PEAU?$_List_node@U?$pair@$$CBV?$basic_string@DU?$char_traits@D@std@@V?$allocator@D@2@@std@@Ullama_lora_weight@@@std@@PEAX@std@@@1@AEBV?$basic_string@DU?$char_traits@D@std@@V?$allocator@D@2@@1@_K@Z
	??$_Find_last@V?$basic_string@DU?$char_traits@D@std@@V?$allocator@D@2@@std@@@?$_Hash@V?$_Umap_traits@V?$basic_string@DU?$char_traits@D@std@@V?$allocator@D@2@@std@@Ullama_model_kv_override@@V?$_Uhash_compare@V?$basic_string@DU?$char_traits@D@std@@V?$allocator@D@2@@std@@U?$hash@V?$basic_string@DU?$char_traits@D@std@@V?$allocator@D@2@@std@@@2@U?$equal_to@V?$basic_string@DU?$char_traits@D@std@@V?$allocator@D@2@@std@@@2@@2@V?$allocator@U?$pair@$$CBV?$basic_string@DU?$char_traits@D@std@@V?$allocator@D@2@@std@@Ullama_model_kv_override@@@std@@@2@$0A@@std@@@std@@IEBA?AU?$_Hash_find_last_result@PEAU?$_List_node@U?$pair@$$CBV?$basic_string@DU?$char_traits@D@std@@V?$allocator@D@2@@std@@Ullama_model_kv_override@@@std@@PEAX@std@@@1@AEBV?$basic_string@DU?$char_traits@D@std@@V?$allocator@D@2@@1@_K@Z
	??$_Find_last@V?$basic_string@DU?$char_traits@D@std@@V?$allocator@D@2@@std@@@?$_Hash@V?$_Umap_traits@V?$basic_string@DU?$char_traits@D@std@@V?$allocator@D@2@@std@@V12@V?$_Uhash_compare@V?$basic_string@DU?$char_traits@D@std@@V?$allocator@D@2@@std@@U?$hash@V?$basic_string@DU?$char_traits@D@std@@V?$allocator@D@2@@std@@@2@U?$equal_to@V?$basic_string@DU?$char_traits@D@std@@V?$allocator@D@2@@std@@@2@@2@V?$allocator@U?$pair@$$CBV?$basic_string@DU?$char_traits@D@std@@V?$allocator@D@2@@std@@V12@@std@@@2@$0A@@std@@@std@@IEBA?AU?$_Hash_find_last_result@PEAU?$_List_node@U?$pair@$$CBV?$basic_string@DU?$char_traits@D@std@@V?$allocator@D@2@@std@@V12@@std@@PEAX@std@@@1@AEBV?$basic_string@DU?$char_traits@D@std@@V?$allocator@D@2@@1@_K@Z
	??$_Find_last@V?$basic_string@DU?$char_traits@D@std@@V?$allocator@D@2@@std@@@?$_Hash@V?$_Umap_traits@V?$basic_string@DU?$char_traits@D@std@@V?$allocator@D@2@@std@@V?$vector@MV?$allocator@M@std@@@2@V?$_Uhash_compare@V?$basic_string@DU?$char_traits@D@std@@V?$allocator@D@2@@std@@U?$hash@V?$basic_string@DU?$char_traits@D@std@@V?$allocator@D@2@@std@@@2@U?$equal_to@V?$basic_string@DU?$char_traits@D@std@@V?$allocator@D@2@@std@@@2@@2@V?$allocator@U?$pair@$$CBV?$basic_string@DU?$char_traits@D@std@@V?$allocator@D@2@@std@@V?$vector@MV?$allocator@M@std@@@2@@std@@@2@$0A@@std@@@std@@IEBA?AU?$_Hash_find_last_result@PEAU?$_List_node@U?$pair@$$CBV?$basic_string@DU?$char_traits@D@std@@V?$allocator@D@2@@std@@V?$vector@MV?$allocator@M@std@@@2@@std@@PEAX@std@@@1@AEBV?$basic_string@DU?$char_traits@D@std@@V?$allocator@D@2@@1@_K@Z
	??$_Find_lower_bound@D@?$_Tree@V?$_Tmap_traits@DUnaive_trie@@U?$less@D@std@@V?$allocator@U?$pair@$$CBDUnaive_trie@@@std@@@3@$0A@@std@@@std@@IEBA?AU?$_Tree_find_result@PEAU?$_Tree_node@U?$pair@$$CBDUnaive_trie@@@std@@PEAX@std@@@1@AEBD@Z
	??$_Find_lower_bound@H@?$_Tree@V?$_Tmap_traits@HHU?$less@H@std@@V?$allocator@U?$pair@$$CBHH@std@@@2@$0A@@std@@@std@@IEBA?AU?$_Tree_find_result@PEAU?$_Tree_node@U?$pair@$$CBHH@std@@PEAX@std@@@1@AEBH@Z
	??$_Find_lower_bound@H@?$_Tree@V?$_Tmap_traits@HV?$basic_string@DU?$char_traits@D@std@@V?$allocator@D@2@@std@@U?$less@H@2@V?$allocator@U?$pair@$$CBHV?$basic_string@DU?$char_traits@D@std@@V?$allocator@D@2@@std@@@std@@@2@$0A@@std@@@std@@IEBA?AU?$_Tree_find_result@PEAU?$_Tree_node@U?$pair@$$CBHV?$basic_string@DU?$char_traits@D@std@@V?$allocator@D@2@@std@@@std@@PEAX@std@@@1@AEBH@Z
	??$_Find_lower_bound@H@?$_Tree@V?$_Tmap_traits@HV?$vector@MV?$allocator@M@std@@@std@@U?$less@H@2@V?$allocator@U?$pair@$$CBHV?$vector@MV?$allocator@M@std@@@std@@@std@@@2@$0A@@std@@@std@@IEBA?AU?$_Tree_find_result@PEAU?$_Tree_node@U?$pair@$$CBHV?$vector@MV?$allocator@M@std@@@std@@@std@@PEAX@std@@@1@AEBH@Z
	??$_Find_lower_bound@H@?$_Tree@V?$_Tset_traits@HU?$less@H@std@@V?$allocator@H@2@$0A@@std@@@std@@IEBA?AU?$_Tree_find_result@PEAU?$_Tree_node@HPEAX@std@@@1@AEBH@Z
	??$_Find_lower_bound@PEAUggml_backend_buffer_type@@@?$_Tree@V?$_Tmap_traits@PEAUggml_backend_buffer_type@@HU?$less@PEAUggml_backend_buffer_type@@@std@@V?$allocator@U?$pair@QEAUggml_backend_buffer_type@@H@std@@@3@$0A@@std@@@std@@IEBA?AU?$_Tree_find_result@PEAU?$_Tree_node@U?$pair@QEAUggml_backend_buffer_type@@H@std@@PEAX@std@@@1@AEBQEAUggml_backend_buffer_type@@@Z
	??$_Find_lower_bound@PEAUggml_backend_buffer_type@@@?$_Tree@V?$_Tmap_traits@PEAUggml_backend_buffer_type@@PEAUggml_context@@U?$less@PEAUggml_backend_buffer_type@@@std@@V?$allocator@U?$pair@QEAUggml_backend_buffer_type@@PEAUggml_context@@@std@@@4@$0A@@std@@@std@@IEBA?AU?$_Tree_find_result@PEAU?$_Tree_node@U?$pair@QEAUggml_backend_buffer_type@@PEAUggml_context@@@std@@PEAX@std@@@1@AEBQEAUggml_backend_buffer_type@@@Z
	??$_Find_lower_bound@PEAUllama_lora_adapter@@@?$_Tree@V?$_Tset_traits@PEAUllama_lora_adapter@@U?$less@PEAUllama_lora_adapter@@@std@@V?$allocator@PEAUllama_lora_adapter@@@3@$0A@@std@@@std@@IEBA?AU?$_Tree_find_result@PEAU?$_Tree_node@PEAUllama_lora_adapter@@PEAX@std@@@1@AEBQEAUllama_lora_adapter@@@Z
	??$_Find_lower_bound@U?$pair@V?$basic_string@DU?$char_traits@D@std@@V?$allocator@D@2@@std@@V12@@std@@@?$_Tree@V?$_Tmap_traits@U?$pair@V?$basic_string@DU?$char_traits@D@std@@V?$allocator@D@2@@std@@V12@@std@@HU?$less@U?$pair@V?$basic_string@DU?$char_traits@D@std@@V?$allocator@D@2@@std@@V12@@std@@@2@V?$allocator@U?$pair@$$CBU?$pair@V?$basic_string@DU?$char_traits@D@std@@V?$allocator@D@2@@std@@V12@@std@@H@std@@@2@$0A@@std@@@std@@IEBA?AU?$_Tree_find_result@PEAU?$_Tree_node@U?$pair@$$CBU?$pair@V?$basic_string@DU?$char_traits@D@std@@V?$allocator@D@2@@std@@V12@@std@@H@std@@PEAX@std@@@1@AEBU?$pair@V?$basic_string@DU?$char_traits@D@std@@V?$allocator@D@2@@std@@V12@@1@@Z
	??$_Find_lower_bound@V?$basic_string@DU?$char_traits@D@std@@V?$allocator@D@2@@std@@@?$_Tree@V?$_Tmap_traits@V?$basic_string@DU?$char_traits@D@std@@V?$allocator@D@2@@std@@HU?$less@V?$basic_string@DU?$char_traits@D@std@@V?$allocator@D@2@@std@@@2@V?$allocator@U?$pair@$$CBV?$basic_string@DU?$char_traits@D@std@@V?$allocator@D@2@@std@@H@std@@@2@$0A@@std@@@std@@IEBA?AU?$_Tree_find_result@PEAU?$_Tree_node@U?$pair@$$CBV?$basic_string@DU?$char_traits@D@std@@V?$allocator@D@2@@std@@H@std@@PEAX@std@@@1@AEBV?$basic_string@DU?$char_traits@D@std@@V?$allocator@D@2@@1@@Z
	??$_Find_lower_bound@V?$basic_string@DU?$char_traits@D@std@@V?$allocator@D@2@@std@@@?$_Tree@V?$_Tmap_traits@V?$basic_string@DU?$char_traits@D@std@@V?$allocator@D@2@@std@@U?$pair@HH@2@U?$less@V?$basic_string@DU?$char_traits@D@std@@V?$allocator@D@2@@std@@@2@V?$allocator@U?$pair@$$CBV?$basic_string@DU?$char_traits@D@std@@V?$allocator@D@2@@std@@U?$pair@HH@2@@std@@@2@$0A@@std@@@std@@IEBA?AU?$_Tree_find_result@PEAU?$_Tree_node@U?$pair@$$CBV?$basic_string@DU?$char_traits@D@std@@V?$allocator@D@2@@std@@U?$pair@HH@2@@std@@PEAX@std@@@1@AEBV?$basic_string@DU?$char_traits@D@std@@V?$allocator@D@2@@1@@Z
	??$_Find_lower_bound@V?$basic_string@DU?$char_traits@D@std@@V?$allocator@D@2@@std@@@?$_Tree@V?$_Tmap_traits@V?$basic_string@DU?$char_traits@D@std@@V?$allocator@D@2@@std@@Ullama_lora_weight@@U?$less@V?$basic_string@DU?$char_traits@D@std@@V?$allocator@D@2@@std@@@2@V?$allocator@U?$pair@$$CBV?$basic_string@DU?$char_traits@D@std@@V?$allocator@D@2@@std@@Ullama_lora_weight@@@std@@@2@$0A@@std@@@std@@IEBA?AU?$_Tree_find_result@PEAU?$_Tree_node@U?$pair@$$CBV?$basic_string@DU?$char_traits@D@std@@V?$allocator@D@2@@std@@Ullama_lora_weight@@@std@@PEAX@std@@@1@AEBV?$basic_string@DU?$char_traits@D@std@@V?$allocator@D@2@@1@@Z
	??$_Find_lower_bound@V?$basic_string@DU?$char_traits@D@std@@V?$allocator@D@2@@std@@@?$_Tree@V?$_Tset_traits@V?$basic_string@DU?$char_traits@D@std@@V?$allocator@D@2@@std@@U?$less@V?$basic_string@DU?$char_traits@D@std@@V?$allocator@D@2@@std@@@2@V?$allocator@V?$basic_string@DU?$char_traits@D@std@@V?$allocator@D@2@@std@@@2@$0A@@std@@@std@@IEBA?AU?$_Tree_find_result@PEAU?$_Tree_node@V?$basic_string@DU?$char_traits@D@std@@V?$allocator@D@2@@std@@PEAX@std@@@1@AEBV?$basic_string@DU?$char_traits@D@std@@V?$allocator@D@2@@1@@Z
	??$_Find_lower_bound@W4ggml_type@@@?$_Tree@V?$_Tmap_traits@W4ggml_type@@IU?$less@W4ggml_type@@@std@@V?$allocator@U?$pair@$$CBW4ggml_type@@I@std@@@3@$0A@@std@@@std@@IEBA?AU?$_Tree_find_result@PEAU?$_Tree_node@U?$pair@$$CBW4ggml_type@@I@std@@PEAX@std@@@1@AEBW4ggml_type@@@Z
	??$_Find_lower_bound@W4llama_rope_scaling_type@@@?$_Tree@V?$_Tmap_traits@W4llama_rope_scaling_type@@PEBDU?$less@W4llama_rope_scaling_type@@@std@@V?$allocator@U?$pair@$$CBW4llama_rope_scaling_type@@PEBD@std@@@3@$0A@@std@@@std@@IEBA?AU?$_Tree_find_result@PEAU?$_Tree_node@U?$pair@$$CBW4llama_rope_scaling_type@@PEBD@std@@PEAX@std@@@1@AEBW4llama_rope_scaling_type@@@Z
	??$_Find_lower_bound@W4llm_arch@@@?$_Tree@V?$_Tmap_traits@W4llm_arch@@PEBDU?$less@W4llm_arch@@@std@@V?$allocator@U?$pair@$$CBW4llm_arch@@PEBD@std@@@3@$0A@@std@@@std@@IEBA?AU?$_Tree_find_result@PEAU?$_Tree_node@U?$pair@$$CBW4llm_arch@@PEBD@std@@PEAX@std@@@1@AEBW4llm_arch@@@Z
	??$_Find_lower_bound@W4llm_arch@@@?$_Tree@V?$_Tmap_traits@W4llm_arch@@V?$map@W4llm_tensor@@V?$basic_string@DU?$char_traits@D@std@@V?$allocator@D@2@@std@@U?$less@W4llm_tensor@@@3@V?$allocator@U?$pair@$$CBW4llm_tensor@@V?$basic_string@DU?$char_traits@D@std@@V?$allocator@D@2@@std@@@std@@@3@@std@@U?$less@W4llm_arch@@@3@V?$allocator@U?$pair@$$CBW4llm_arch@@V?$map@W4llm_tensor@@V?$basic_string@DU?$char_traits@D@std@@V?$allocator@D@2@@std@@U?$less@W4llm_tensor@@@3@V?$allocator@U?$pair@$$CBW4llm_tensor@@V?$basic_string@DU?$char_traits@D@std@@V?$allocator@D@2@@std@@@std@@@3@@std@@@std@@@3@$0A@@std@@@std@@IEBA?AU?$_Tree_find_result@PEAU?$_Tree_node@U?$pair@$$CBW4llm_arch@@V?$map@W4llm_tensor@@V?$basic_string@DU?$char_traits@D@std@@V?$allocator@D@2@@std@@U?$less@W4llm_tensor@@@3@V?$allocator@U?$pair@$$CBW4llm_tensor@@V?$basic_string@DU?$char_traits@D@std@@V?$allocator@D@2@@std@@@std@@@3@@std@@@std@@PEAX@std@@@1@AEBW4llm_arch@@@Z
	??$_Find_lower_bound@W4llm_kv@@@?$_Tree@V?$_Tmap_traits@W4llm_kv@@PEBDU?$less@W4llm_kv@@@std@@V?$allocator@U?$pair@$$CBW4llm_kv@@PEBD@std@@@3@$0A@@std@@@std@@IEBA?AU?$_Tree_find_result@PEAU?$_Tree_node@U?$pair@$$CBW4llm_kv@@PEBD@std@@PEAX@std@@@1@AEBW4llm_kv@@@Z
	??$_Find_lower_bound@W4llm_tensor@@@?$_Tree@V?$_Tmap_traits@W4llm_tensor@@V?$basic_string@DU?$char_traits@D@std@@V?$allocator@D@2@@std@@U?$less@W4llm_tensor@@@3@V?$allocator@U?$pair@$$CBW4llm_tensor@@V?$basic_string@DU?$char_traits@D@std@@V?$allocator@D@2@@std@@@std@@@3@$0A@@std@@@std@@IEBA?AU?$_Tree_find_result@PEAU?$_Tree_node@U?$pair@$$CBW4llm_tensor@@V?$basic_string@DU?$char_traits@D@std@@V?$allocator@D@2@@std@@@std@@PEAX@std@@@1@AEBW4llm_tensor@@@Z
	??$_Find_unchecked@PEAV?$vector@PEBUllama_grammar_element@@V?$allocator@PEBUllama_grammar_element@@@std@@@std@@V12@@std@@YAPEAV?$vector@PEBUllama_grammar_element@@V?$allocator@PEBUllama_grammar_element@@@std@@@0@PEAV10@QEAV10@AEBV10@@Z
	??$_Find_unchecked@PEBDE@std@@YAPEBDPEBDQEBDAEBE@Z
	??$_Find_unchecked@PEBDW4_Meta_type@std@@@std@@YAPEBDPEBDQEBDAEBW4_Meta_type@0@@Z
	??$_Find_unchecked@PEB_WG@std@@YAPEB_WPEB_WQEB_WAEBG@Z
	??$_Find_unchecked@PEB_WW4_Meta_type@std@@@std@@YAPEB_WPEB_WQEB_WAEBW4_Meta_type@0@@Z
	??$_Find_vectorized@$$CBDE@std@@YAPEBDQEBD0E@Z
	??$_Find_vectorized@$$CB_WG@std@@YAPEB_WQEB_W0G@Z
	??$_Fnv1a_append_value@E@std@@YA_K_KAEBE@Z
	??$_Fnv1a_append_value@H@std@@YA_K_KAEBH@Z
	??$_Fnv1a_append_value@I@std@@YA_K_KAEBI@Z
	??$_Fnv1a_append_value@PEAUllama_lora_adapter@@@std@@YA_K_KAEBQEAUllama_lora_adapter@@@Z
	??$_Fputc@D@std@@YA_NDPEAU_iobuf@@@Z
	??$_Free_non_head@V?$allocator@U?$_List_node@IPEAX@std@@@std@@@?$_List_node@IPEAX@std@@SAXAEAV?$allocator@U?$_List_node@IPEAX@std@@@1@PEAU01@@Z
	??$_Free_non_head@V?$allocator@U?$_List_node@U?$pair@$$CBEV?$basic_string@DU?$char_traits@D@std@@V?$allocator@D@2@@std@@@std@@PEAX@std@@@std@@@?$_List_node@U?$pair@$$CBEV?$basic_string@DU?$char_traits@D@std@@V?$allocator@D@2@@std@@@std@@PEAX@std@@SAXAEAV?$allocator@U?$_List_node@U?$pair@$$CBEV?$basic_string@DU?$char_traits@D@std@@V?$allocator@D@2@@std@@@std@@PEAX@std@@@1@PEAU01@@Z
	??$_Free_non_head@V?$allocator@U?$_List_node@U?$pair@$$CBHH@std@@PEAX@std@@@std@@@?$_List_node@U?$pair@$$CBHH@std@@PEAX@std@@SAXAEAV?$allocator@U?$_List_node@U?$pair@$$CBHH@std@@PEAX@std@@@1@PEAU01@@Z
	??$_Free_non_head@V?$allocator@U?$_List_node@U?$pair@$$CBII@std@@PEAX@std@@@std@@@?$_List_node@U?$pair@$$CBII@std@@PEAX@std@@SAXAEAV?$allocator@U?$_List_node@U?$pair@$$CBII@std@@PEAX@std@@@1@PEAU01@@Z
	??$_Free_non_head@V?$allocator@U?$_List_node@U?$pair@$$CBIPEAUggml_backend_buffer@@@std@@PEAX@std@@@std@@@?$_List_node@U?$pair@$$CBIPEAUggml_backend_buffer@@@std@@PEAX@std@@SAXAEAV?$allocator@U?$_List_node@U?$pair@$$CBIPEAUggml_backend_buffer@@@std@@PEAX@std@@@1@PEAU01@@Z
	??$_Free_non_head@V?$allocator@U?$_List_node@U?$pair@$$CBV?$basic_string@DU?$char_traits@D@std@@V?$allocator@D@2@@std@@E@std@@PEAX@std@@@std@@@?$_List_node@U?$pair@$$CBV?$basic_string@DU?$char_traits@D@std@@V?$allocator@D@2@@std@@E@std@@PEAX@std@@SAXAEAV?$allocator@U?$_List_node@U?$pair@$$CBV?$basic_string@DU?$char_traits@D@std@@V?$allocator@D@2@@std@@E@std@@PEAX@std@@@1@PEAU01@@Z
	??$_Free_non_head@V?$allocator@U?$_List_node@U?$pair@$$CBV?$basic_string@DU?$char_traits@D@std@@V?$allocator@D@2@@std@@H@std@@PEAX@std@@@std@@@?$_List_node@U?$pair@$$CBV?$basic_string@DU?$char_traits@D@std@@V?$allocator@D@2@@std@@H@std@@PEAX@std@@SAXAEAV?$allocator@U?$_List_node@U?$pair@$$CBV?$basic_string@DU?$char_traits@D@std@@V?$allocator@D@2@@std@@H@std@@PEAX@std@@@1@PEAU01@@Z
	??$_Free_non_head@V?$allocator@U?$_List_node@U?$pair@$$CBV?$basic_string@DU?$char_traits@D@std@@V?$allocator@D@2@@std@@Ullama_lora_weight@@@std@@PEAX@std@@@std@@@?$_List_node@U?$pair@$$CBV?$basic_string@DU?$char_traits@D@std@@V?$allocator@D@2@@std@@Ullama_lora_weight@@@std@@PEAX@std@@SAXAEAV?$allocator@U?$_List_node@U?$pair@$$CBV?$basic_string@DU?$char_traits@D@std@@V?$allocator@D@2@@std@@Ullama_lora_weight@@@std@@PEAX@std@@@1@PEAU01@@Z
	??$_Free_non_head@V?$allocator@U?$_List_node@U?$pair@$$CBV?$basic_string@DU?$char_traits@D@std@@V?$allocator@D@2@@std@@Ullama_model_kv_override@@@std@@PEAX@std@@@std@@@?$_List_node@U?$pair@$$CBV?$basic_string@DU?$char_traits@D@std@@V?$allocator@D@2@@std@@Ullama_model_kv_override@@@std@@PEAX@std@@SAXAEAV?$allocator@U?$_List_node@U?$pair@$$CBV?$basic_string@DU?$char_traits@D@std@@V?$allocator@D@2@@std@@Ullama_model_kv_override@@@std@@PEAX@std@@@1@PEAU01@@Z
	??$_Free_non_head@V?$allocator@U?$_List_node@U?$pair@$$CBV?$basic_string@DU?$char_traits@D@std@@V?$allocator@D@2@@std@@V12@@std@@PEAX@std@@@std@@@?$_List_node@U?$pair@$$CBV?$basic_string@DU?$char_traits@D@std@@V?$allocator@D@2@@std@@V12@@std@@PEAX@std@@SAXAEAV?$allocator@U?$_List_node@U?$pair@$$CBV?$basic_string@DU?$char_traits@D@std@@V?$allocator@D@2@@std@@V12@@std@@PEAX@std@@@1@PEAU01@@Z
	??$_Free_non_head@V?$allocator@U?$_List_node@U?$pair@QEAUllama_lora_adapter@@M@std@@PEAX@std@@@std@@@?$_List_node@U?$pair@QEAUllama_lora_adapter@@M@std@@PEAX@std@@SAXAEAV?$allocator@U?$_List_node@U?$pair@QEAUllama_lora_adapter@@M@std@@PEAX@std@@@1@PEAU01@@Z
	??$_Freenode0@V?$allocator@U?$_List_node@IPEAX@std@@@std@@@?$_List_node@IPEAX@std@@SAXAEAV?$allocator@U?$_List_node@IPEAX@std@@@1@PEAU01@@Z
	??$_Freenode0@V?$allocator@U?$_List_node@U?$pair@$$CBEV?$basic_string@DU?$char_traits@D@std@@V?$allocator@D@2@@std@@@std@@PEAX@std@@@std@@@?$_List_node@U?$pair@$$CBEV?$basic_string@DU?$char_traits@D@std@@V?$allocator@D@2@@std@@@std@@PEAX@std@@SAXAEAV?$allocator@U?$_List_node@U?$pair@$$CBEV?$basic_string@DU?$char_traits@D@std@@V?$allocator@D@2@@std@@@std@@PEAX@std@@@1@PEAU01@@Z
	??$_Freenode0@V?$allocator@U?$_List_node@U?$pair@$$CBHH@std@@PEAX@std@@@std@@@?$_List_node@U?$pair@$$CBHH@std@@PEAX@std@@SAXAEAV?$allocator@U?$_List_node@U?$pair@$$CBHH@std@@PEAX@std@@@1@PEAU01@@Z
	??$_Freenode0@V?$allocator@U?$_List_node@U?$pair@$$CBII@std@@PEAX@std@@@std@@@?$_List_node@U?$pair@$$CBII@std@@PEAX@std@@SAXAEAV?$allocator@U?$_List_node@U?$pair@$$CBII@std@@PEAX@std@@@1@PEAU01@@Z
	??$_Freenode0@V?$allocator@U?$_List_node@U?$pair@$$CBIPEAUggml_backend_buffer@@@std@@PEAX@std@@@std@@@?$_List_node@U?$pair@$$CBIPEAUggml_backend_buffer@@@std@@PEAX@std@@SAXAEAV?$allocator@U?$_List_node@U?$pair@$$CBIPEAUggml_backend_buffer@@@std@@PEAX@std@@@1@PEAU01@@Z
	??$_Freenode0@V?$allocator@U?$_List_node@U?$pair@$$CBV?$basic_string@DU?$char_traits@D@std@@V?$allocator@D@2@@std@@E@std@@PEAX@std@@@std@@@?$_List_node@U?$pair@$$CBV?$basic_string@DU?$char_traits@D@std@@V?$allocator@D@2@@std@@E@std@@PEAX@std@@SAXAEAV?$allocator@U?$_List_node@U?$pair@$$CBV?$basic_string@DU?$char_traits@D@std@@V?$allocator@D@2@@std@@E@std@@PEAX@std@@@1@PEAU01@@Z
	??$_Freenode0@V?$allocator@U?$_List_node@U?$pair@$$CBV?$basic_string@DU?$char_traits@D@std@@V?$allocator@D@2@@std@@H@std@@PEAX@std@@@std@@@?$_List_node@U?$pair@$$CBV?$basic_string@DU?$char_traits@D@std@@V?$allocator@D@2@@std@@H@std@@PEAX@std@@SAXAEAV?$allocator@U?$_List_node@U?$pair@$$CBV?$basic_string@DU?$char_traits@D@std@@V?$allocator@D@2@@std@@H@std@@PEAX@std@@@1@PEAU01@@Z
	??$_Freenode0@V?$allocator@U?$_List_node@U?$pair@$$CBV?$basic_string@DU?$char_traits@D@std@@V?$allocator@D@2@@std@@Ullama_lora_weight@@@std@@PEAX@std@@@std@@@?$_List_node@U?$pair@$$CBV?$basic_string@DU?$char_traits@D@std@@V?$allocator@D@2@@std@@Ullama_lora_weight@@@std@@PEAX@std@@SAXAEAV?$allocator@U?$_List_node@U?$pair@$$CBV?$basic_string@DU?$char_traits@D@std@@V?$allocator@D@2@@std@@Ullama_lora_weight@@@std@@PEAX@std@@@1@PEAU01@@Z
	??$_Freenode0@V?$allocator@U?$_List_node@U?$pair@$$CBV?$basic_string@DU?$char_traits@D@std@@V?$allocator@D@2@@std@@Ullama_model_kv_override@@@std@@PEAX@std@@@std@@@?$_List_node@U?$pair@$$CBV?$basic_string@DU?$char_traits@D@std@@V?$allocator@D@2@@std@@Ullama_model_kv_override@@@std@@PEAX@std@@SAXAEAV?$allocator@U?$_List_node@U?$pair@$$CBV?$basic_string@DU?$char_traits@D@std@@V?$allocator@D@2@@std@@Ullama_model_kv_override@@@std@@PEAX@std@@@1@PEAU01@@Z
	??$_Freenode0@V?$allocator@U?$_List_node@U?$pair@$$CBV?$basic_string@DU?$char_traits@D@std@@V?$allocator@D@2@@std@@V12@@std@@PEAX@std@@@std@@@?$_List_node@U?$pair@$$CBV?$basic_string@DU?$char_traits@D@std@@V?$allocator@D@2@@std@@V12@@std@@PEAX@std@@SAXAEAV?$allocator@U?$_List_node@U?$pair@$$CBV?$basic_string@DU?$char_traits@D@std@@V?$allocator@D@2@@std@@V12@@std@@PEAX@std@@@1@PEAU01@@Z
	??$_Freenode0@V?$allocator@U?$_List_node@U?$pair@QEAUllama_lora_adapter@@M@std@@PEAX@std@@@std@@@?$_List_node@U?$pair@QEAUllama_lora_adapter@@M@std@@PEAX@std@@SAXAEAV?$allocator@U?$_List_node@U?$pair@QEAUllama_lora_adapter@@M@std@@PEAX@std@@@1@PEAU01@@Z
	??$_Freenode0@V?$allocator@U?$_Tree_node@HPEAX@std@@@std@@@?$_Tree_node@HPEAX@std@@SAXAEAV?$allocator@U?$_Tree_node@HPEAX@std@@@1@PEAU01@@Z
	??$_Freenode0@V?$allocator@U?$_Tree_node@PEAUllama_lora_adapter@@PEAX@std@@@std@@@?$_Tree_node@PEAUllama_lora_adapter@@PEAX@std@@SAXAEAV?$allocator@U?$_Tree_node@PEAUllama_lora_adapter@@PEAX@std@@@1@PEAU01@@Z
	??$_Freenode0@V?$allocator@U?$_Tree_node@U?$pair@$$CBDUnaive_trie@@@std@@PEAX@std@@@std@@@?$_Tree_node@U?$pair@$$CBDUnaive_trie@@@std@@PEAX@std@@SAXAEAV?$allocator@U?$_Tree_node@U?$pair@$$CBDUnaive_trie@@@std@@PEAX@std@@@1@PEAU01@@Z
	??$_Freenode0@V?$allocator@U?$_Tree_node@U?$pair@$$CBHH@std@@PEAX@std@@@std@@@?$_Tree_node@U?$pair@$$CBHH@std@@PEAX@std@@SAXAEAV?$allocator@U?$_Tree_node@U?$pair@$$CBHH@std@@PEAX@std@@@1@PEAU01@@Z
	??$_Freenode0@V?$allocator@U?$_Tree_node@U?$pair@$$CBHV?$basic_string@DU?$char_traits@D@std@@V?$allocator@D@2@@std@@@std@@PEAX@std@@@std@@@?$_Tree_node@U?$pair@$$CBHV?$basic_string@DU?$char_traits@D@std@@V?$allocator@D@2@@std@@@std@@PEAX@std@@SAXAEAV?$allocator@U?$_Tree_node@U?$pair@$$CBHV?$basic_string@DU?$char_traits@D@std@@V?$allocator@D@2@@std@@@std@@PEAX@std@@@1@PEAU01@@Z
	??$_Freenode0@V?$allocator@U?$_Tree_node@U?$pair@$$CBHV?$vector@MV?$allocator@M@std@@@std@@@std@@PEAX@std@@@std@@@?$_Tree_node@U?$pair@$$CBHV?$vector@MV?$allocator@M@std@@@std@@@std@@PEAX@std@@SAXAEAV?$allocator@U?$_Tree_node@U?$pair@$$CBHV?$vector@MV?$allocator@M@std@@@std@@@std@@PEAX@std@@@1@PEAU01@@Z
	??$_Freenode0@V?$allocator@U?$_Tree_node@U?$pair@$$CBU?$pair@V?$basic_string@DU?$char_traits@D@std@@V?$allocator@D@2@@std@@V12@@std@@H@std@@PEAX@std@@@std@@@?$_Tree_node@U?$pair@$$CBU?$pair@V?$basic_string@DU?$char_traits@D@std@@V?$allocator@D@2@@std@@V12@@std@@H@std@@PEAX@std@@SAXAEAV?$allocator@U?$_Tree_node@U?$pair@$$CBU?$pair@V?$basic_string@DU?$char_traits@D@std@@V?$allocator@D@2@@std@@V12@@std@@H@std@@PEAX@std@@@1@PEAU01@@Z
	??$_Freenode0@V?$allocator@U?$_Tree_node@U?$pair@$$CBV?$basic_string@DU?$char_traits@D@std@@V?$allocator@D@2@@std@@H@std@@PEAX@std@@@std@@@?$_Tree_node@U?$pair@$$CBV?$basic_string@DU?$char_traits@D@std@@V?$allocator@D@2@@std@@H@std@@PEAX@std@@SAXAEAV?$allocator@U?$_Tree_node@U?$pair@$$CBV?$basic_string@DU?$char_traits@D@std@@V?$allocator@D@2@@std@@H@std@@PEAX@std@@@1@PEAU01@@Z
	??$_Freenode0@V?$allocator@U?$_Tree_node@U?$pair@$$CBV?$basic_string@DU?$char_traits@D@std@@V?$allocator@D@2@@std@@U?$pair@HH@2@@std@@PEAX@std@@@std@@@?$_Tree_node@U?$pair@$$CBV?$basic_string@DU?$char_traits@D@std@@V?$allocator@D@2@@std@@U?$pair@HH@2@@std@@PEAX@std@@SAXAEAV?$allocator@U?$_Tree_node@U?$pair@$$CBV?$basic_string@DU?$char_traits@D@std@@V?$allocator@D@2@@std@@U?$pair@HH@2@@std@@PEAX@std@@@1@PEAU01@@Z
	??$_Freenode0@V?$allocator@U?$_Tree_node@U?$pair@$$CBV?$basic_string@DU?$char_traits@D@std@@V?$allocator@D@2@@std@@Ullama_lora_weight@@@std@@PEAX@std@@@std@@@?$_Tree_node@U?$pair@$$CBV?$basic_string@DU?$char_traits@D@std@@V?$allocator@D@2@@std@@Ullama_lora_weight@@@std@@PEAX@std@@SAXAEAV?$allocator@U?$_Tree_node@U?$pair@$$CBV?$basic_string@DU?$char_traits@D@std@@V?$allocator@D@2@@std@@Ullama_lora_weight@@@std@@PEAX@std@@@1@PEAU01@@Z
	??$_Freenode0@V?$allocator@U?$_Tree_node@U?$pair@$$CBW4ggml_type@@I@std@@PEAX@std@@@std@@@?$_Tree_node@U?$pair@$$CBW4ggml_type@@I@std@@PEAX@std@@SAXAEAV?$allocator@U?$_Tree_node@U?$pair@$$CBW4ggml_type@@I@std@@PEAX@std@@@1@PEAU01@@Z
	??$_Freenode0@V?$allocator@U?$_Tree_node@U?$pair@$$CBW4llama_rope_scaling_type@@PEBD@std@@PEAX@std@@@std@@@?$_Tree_node@U?$pair@$$CBW4llama_rope_scaling_type@@PEBD@std@@PEAX@std@@SAXAEAV?$allocator@U?$_Tree_node@U?$pair@$$CBW4llama_rope_scaling_type@@PEBD@std@@PEAX@std@@@1@PEAU01@@Z
	??$_Freenode0@V?$allocator@U?$_Tree_node@U?$pair@$$CBW4llm_arch@@PEBD@std@@PEAX@std@@@std@@@?$_Tree_node@U?$pair@$$CBW4llm_arch@@PEBD@std@@PEAX@std@@SAXAEAV?$allocator@U?$_Tree_node@U?$pair@$$CBW4llm_arch@@PEBD@std@@PEAX@std@@@1@PEAU01@@Z
	??$_Freenode0@V?$allocator@U?$_Tree_node@U?$pair@$$CBW4llm_arch@@V?$map@W4llm_tensor@@V?$basic_string@DU?$char_traits@D@std@@V?$allocator@D@2@@std@@U?$less@W4llm_tensor@@@3@V?$allocator@U?$pair@$$CBW4llm_tensor@@V?$basic_string@DU?$char_traits@D@std@@V?$allocator@D@2@@std@@@std@@@3@@std@@@std@@PEAX@std@@@std@@@?$_Tree_node@U?$pair@$$CBW4llm_arch@@V?$map@W4llm_tensor@@V?$basic_string@DU?$char_traits@D@std@@V?$allocator@D@2@@std@@U?$less@W4llm_tensor@@@3@V?$allocator@U?$pair@$$CBW4llm_tensor@@V?$basic_string@DU?$char_traits@D@std@@V?$allocator@D@2@@std@@@std@@@3@@std@@@std@@PEAX@std@@SAXAEAV?$allocator@U?$_Tree_node@U?$pair@$$CBW4llm_arch@@V?$map@W4llm_tensor@@V?$basic_string@DU?$char_traits@D@std@@V?$allocator@D@2@@std@@U?$less@W4llm_tensor@@@3@V?$allocator@U?$pair@$$CBW4llm_tensor@@V?$basic_string@DU?$char_traits@D@std@@V?$allocator@D@2@@std@@@std@@@3@@std@@@std@@PEAX@std@@@1@PEAU01@@Z
	??$_Freenode0@V?$allocator@U?$_Tree_node@U?$pair@$$CBW4llm_kv@@PEBD@std@@PEAX@std@@@std@@@?$_Tree_node@U?$pair@$$CBW4llm_kv@@PEBD@std@@PEAX@std@@SAXAEAV?$allocator@U?$_Tree_node@U?$pair@$$CBW4llm_kv@@PEBD@std@@PEAX@std@@@1@PEAU01@@Z
	??$_Freenode0@V?$allocator@U?$_Tree_node@U?$pair@$$CBW4llm_tensor@@V?$basic_string@DU?$char_traits@D@std@@V?$allocator@D@2@@std@@@std@@PEAX@std@@@std@@@?$_Tree_node@U?$pair@$$CBW4llm_tensor@@V?$basic_string@DU?$char_traits@D@std@@V?$allocator@D@2@@std@@@std@@PEAX@std@@SAXAEAV?$allocator@U?$_Tree_node@U?$pair@$$CBW4llm_tensor@@V?$basic_string@DU?$char_traits@D@std@@V?$allocator@D@2@@std@@@std@@PEAX@std@@@1@PEAU01@@Z
	??$_Freenode0@V?$allocator@U?$_Tree_node@U?$pair@QEAUggml_backend_buffer_type@@H@std@@PEAX@std@@@std@@@?$_Tree_node@U?$pair@QEAUggml_backend_buffer_type@@H@std@@PEAX@std@@SAXAEAV?$allocator@U?$_Tree_node@U?$pair@QEAUggml_backend_buffer_type@@H@std@@PEAX@std@@@1@PEAU01@@Z
	??$_Freenode0@V?$allocator@U?$_Tree_node@U?$pair@QEAUggml_backend_buffer_type@@PEAUggml_context@@@std@@PEAX@std@@@std@@@?$_Tree_node@U?$pair@QEAUggml_backend_buffer_type@@PEAUggml_context@@@std@@PEAX@std@@SAXAEAV?$allocator@U?$_Tree_node@U?$pair@QEAUggml_backend_buffer_type@@PEAUggml_context@@@std@@PEAX@std@@@1@PEAU01@@Z
	??$_Freenode0@V?$allocator@U?$_Tree_node@V?$basic_string@DU?$char_traits@D@std@@V?$allocator@D@2@@std@@PEAX@std@@@std@@@?$_Tree_node@V?$basic_string@DU?$char_traits@D@std@@V?$allocator@D@2@@std@@PEAX@std@@SAXAEAV?$allocator@U?$_Tree_node@V?$basic_string@DU?$char_traits@D@std@@V?$allocator@D@2@@std@@PEAX@std@@@1@PEAU01@@Z
	??$_Freenode@V?$allocator@U?$_Flist_node@Ufragment_buffer_variant@@PEAX@std@@@std@@@?$_Flist_node@Ufragment_buffer_variant@@PEAX@std@@SAXAEAV?$allocator@U?$_Flist_node@Ufragment_buffer_variant@@PEAX@std@@@1@PEAU01@@Z
	??$_Freenode@V?$allocator@U?$_List_node@IPEAX@std@@@std@@@?$_List_node@IPEAX@std@@SAXAEAV?$allocator@U?$_List_node@IPEAX@std@@@1@PEAU01@@Z
	??$_Freenode@V?$allocator@U?$_List_node@U?$pair@$$CBEV?$basic_string@DU?$char_traits@D@std@@V?$allocator@D@2@@std@@@std@@PEAX@std@@@std@@@?$_List_node@U?$pair@$$CBEV?$basic_string@DU?$char_traits@D@std@@V?$allocator@D@2@@std@@@std@@PEAX@std@@SAXAEAV?$allocator@U?$_List_node@U?$pair@$$CBEV?$basic_string@DU?$char_traits@D@std@@V?$allocator@D@2@@std@@@std@@PEAX@std@@@1@PEAU01@@Z
	??$_Freenode@V?$allocator@U?$_List_node@U?$pair@$$CBHH@std@@PEAX@std@@@std@@@?$_List_node@U?$pair@$$CBHH@std@@PEAX@std@@SAXAEAV?$allocator@U?$_List_node@U?$pair@$$CBHH@std@@PEAX@std@@@1@PEAU01@@Z
	??$_Freenode@V?$allocator@U?$_List_node@U?$pair@$$CBII@std@@PEAX@std@@@std@@@?$_List_node@U?$pair@$$CBII@std@@PEAX@std@@SAXAEAV?$allocator@U?$_List_node@U?$pair@$$CBII@std@@PEAX@std@@@1@PEAU01@@Z
	??$_Freenode@V?$allocator@U?$_List_node@U?$pair@$$CBIPEAUggml_backend_buffer@@@std@@PEAX@std@@@std@@@?$_List_node@U?$pair@$$CBIPEAUggml_backend_buffer@@@std@@PEAX@std@@SAXAEAV?$allocator@U?$_List_node@U?$pair@$$CBIPEAUggml_backend_buffer@@@std@@PEAX@std@@@1@PEAU01@@Z
	??$_Freenode@V?$allocator@U?$_List_node@U?$pair@$$CBV?$basic_string@DU?$char_traits@D@std@@V?$allocator@D@2@@std@@E@std@@PEAX@std@@@std@@@?$_List_node@U?$pair@$$CBV?$basic_string@DU?$char_traits@D@std@@V?$allocator@D@2@@std@@E@std@@PEAX@std@@SAXAEAV?$allocator@U?$_List_node@U?$pair@$$CBV?$basic_string@DU?$char_traits@D@std@@V?$allocator@D@2@@std@@E@std@@PEAX@std@@@1@PEAU01@@Z
	??$_Freenode@V?$allocator@U?$_List_node@U?$pair@$$CBV?$basic_string@DU?$char_traits@D@std@@V?$allocator@D@2@@std@@H@std@@PEAX@std@@@std@@@?$_List_node@U?$pair@$$CBV?$basic_string@DU?$char_traits@D@std@@V?$allocator@D@2@@std@@H@std@@PEAX@std@@SAXAEAV?$allocator@U?$_List_node@U?$pair@$$CBV?$basic_string@DU?$char_traits@D@std@@V?$allocator@D@2@@std@@H@std@@PEAX@std@@@1@PEAU01@@Z
	??$_Freenode@V?$allocator@U?$_List_node@U?$pair@$$CBV?$basic_string@DU?$char_traits@D@std@@V?$allocator@D@2@@std@@Ullama_lora_weight@@@std@@PEAX@std@@@std@@@?$_List_node@U?$pair@$$CBV?$basic_string@DU?$char_traits@D@std@@V?$allocator@D@2@@std@@Ullama_lora_weight@@@std@@PEAX@std@@SAXAEAV?$allocator@U?$_List_node@U?$pair@$$CBV?$basic_string@DU?$char_traits@D@std@@V?$allocator@D@2@@std@@Ullama_lora_weight@@@std@@PEAX@std@@@1@PEAU01@@Z
	??$_Freenode@V?$allocator@U?$_List_node@U?$pair@$$CBV?$basic_string@DU?$char_traits@D@std@@V?$allocator@D@2@@std@@Ullama_model_kv_override@@@std@@PEAX@std@@@std@@@?$_List_node@U?$pair@$$CBV?$basic_string@DU?$char_traits@D@std@@V?$allocator@D@2@@std@@Ullama_model_kv_override@@@std@@PEAX@std@@SAXAEAV?$allocator@U?$_List_node@U?$pair@$$CBV?$basic_string@DU?$char_traits@D@std@@V?$allocator@D@2@@std@@Ullama_model_kv_override@@@std@@PEAX@std@@@1@PEAU01@@Z
	??$_Freenode@V?$allocator@U?$_List_node@U?$pair@$$CBV?$basic_string@DU?$char_traits@D@std@@V?$allocator@D@2@@std@@V12@@std@@PEAX@std@@@std@@@?$_List_node@U?$pair@$$CBV?$basic_string@DU?$char_traits@D@std@@V?$allocator@D@2@@std@@V12@@std@@PEAX@std@@SAXAEAV?$allocator@U?$_List_node@U?$pair@$$CBV?$basic_string@DU?$char_traits@D@std@@V?$allocator@D@2@@std@@V12@@std@@PEAX@std@@@1@PEAU01@@Z
	??$_Freenode@V?$allocator@U?$_List_node@U?$pair@QEAUllama_lora_adapter@@M@std@@PEAX@std@@@std@@@?$_List_node@U?$pair@QEAUllama_lora_adapter@@M@std@@PEAX@std@@SAXAEAV?$allocator@U?$_List_node@U?$pair@QEAUllama_lora_adapter@@M@std@@PEAX@std@@@1@PEAU01@@Z
	??$_Freenode@V?$allocator@U?$_Tree_node@HPEAX@std@@@std@@@?$_Tree_node@HPEAX@std@@SAXAEAV?$allocator@U?$_Tree_node@HPEAX@std@@@1@PEAU01@@Z
	??$_Freenode@V?$allocator@U?$_Tree_node@PEAUllama_lora_adapter@@PEAX@std@@@std@@@?$_Tree_node@PEAUllama_lora_adapter@@PEAX@std@@SAXAEAV?$allocator@U?$_Tree_node@PEAUllama_lora_adapter@@PEAX@std@@@1@PEAU01@@Z
	??$_Freenode@V?$allocator@U?$_Tree_node@U?$pair@$$CBDUnaive_trie@@@std@@PEAX@std@@@std@@@?$_Tree_node@U?$pair@$$CBDUnaive_trie@@@std@@PEAX@std@@SAXAEAV?$allocator@U?$_Tree_node@U?$pair@$$CBDUnaive_trie@@@std@@PEAX@std@@@1@PEAU01@@Z
	??$_Freenode@V?$allocator@U?$_Tree_node@U?$pair@$$CBHH@std@@PEAX@std@@@std@@@?$_Tree_node@U?$pair@$$CBHH@std@@PEAX@std@@SAXAEAV?$allocator@U?$_Tree_node@U?$pair@$$CBHH@std@@PEAX@std@@@1@PEAU01@@Z
	??$_Freenode@V?$allocator@U?$_Tree_node@U?$pair@$$CBHV?$basic_string@DU?$char_traits@D@std@@V?$allocator@D@2@@std@@@std@@PEAX@std@@@std@@@?$_Tree_node@U?$pair@$$CBHV?$basic_string@DU?$char_traits@D@std@@V?$allocator@D@2@@std@@@std@@PEAX@std@@SAXAEAV?$allocator@U?$_Tree_node@U?$pair@$$CBHV?$basic_string@DU?$char_traits@D@std@@V?$allocator@D@2@@std@@@std@@PEAX@std@@@1@PEAU01@@Z
	??$_Freenode@V?$allocator@U?$_Tree_node@U?$pair@$$CBHV?$vector@MV?$allocator@M@std@@@std@@@std@@PEAX@std@@@std@@@?$_Tree_node@U?$pair@$$CBHV?$vector@MV?$allocator@M@std@@@std@@@std@@PEAX@std@@SAXAEAV?$allocator@U?$_Tree_node@U?$pair@$$CBHV?$vector@MV?$allocator@M@std@@@std@@@std@@PEAX@std@@@1@PEAU01@@Z
	??$_Freenode@V?$allocator@U?$_Tree_node@U?$pair@$$CBU?$pair@V?$basic_string@DU?$char_traits@D@std@@V?$allocator@D@2@@std@@V12@@std@@H@std@@PEAX@std@@@std@@@?$_Tree_node@U?$pair@$$CBU?$pair@V?$basic_string@DU?$char_traits@D@std@@V?$allocator@D@2@@std@@V12@@std@@H@std@@PEAX@std@@SAXAEAV?$allocator@U?$_Tree_node@U?$pair@$$CBU?$pair@V?$basic_string@DU?$char_traits@D@std@@V?$allocator@D@2@@std@@V12@@std@@H@std@@PEAX@std@@@1@PEAU01@@Z
	??$_Freenode@V?$allocator@U?$_Tree_node@U?$pair@$$CBV?$basic_string@DU?$char_traits@D@std@@V?$allocator@D@2@@std@@H@std@@PEAX@std@@@std@@@?$_Tree_node@U?$pair@$$CBV?$basic_string@DU?$char_traits@D@std@@V?$allocator@D@2@@std@@H@std@@PEAX@std@@SAXAEAV?$allocator@U?$_Tree_node@U?$pair@$$CBV?$basic_string@DU?$char_traits@D@std@@V?$allocator@D@2@@std@@H@std@@PEAX@std@@@1@PEAU01@@Z
	??$_Freenode@V?$allocator@U?$_Tree_node@U?$pair@$$CBV?$basic_string@DU?$char_traits@D@std@@V?$allocator@D@2@@std@@U?$pair@HH@2@@std@@PEAX@std@@@std@@@?$_Tree_node@U?$pair@$$CBV?$basic_string@DU?$char_traits@D@std@@V?$allocator@D@2@@std@@U?$pair@HH@2@@std@@PEAX@std@@SAXAEAV?$allocator@U?$_Tree_node@U?$pair@$$CBV?$basic_string@DU?$char_traits@D@std@@V?$allocator@D@2@@std@@U?$pair@HH@2@@std@@PEAX@std@@@1@PEAU01@@Z
	??$_Freenode@V?$allocator@U?$_Tree_node@U?$pair@$$CBV?$basic_string@DU?$char_traits@D@std@@V?$allocator@D@2@@std@@Ullama_lora_weight@@@std@@PEAX@std@@@std@@@?$_Tree_node@U?$pair@$$CBV?$basic_string@DU?$char_traits@D@std@@V?$allocator@D@2@@std@@Ullama_lora_weight@@@std@@PEAX@std@@SAXAEAV?$allocator@U?$_Tree_node@U?$pair@$$CBV?$basic_string@DU?$char_traits@D@std@@V?$allocator@D@2@@std@@Ullama_lora_weight@@@std@@PEAX@std@@@1@PEAU01@@Z
	??$_Freenode@V?$allocator@U?$_Tree_node@U?$pair@$$CBW4ggml_type@@I@std@@PEAX@std@@@std@@@?$_Tree_node@U?$pair@$$CBW4ggml_type@@I@std@@PEAX@std@@SAXAEAV?$allocator@U?$_Tree_node@U?$pair@$$CBW4ggml_type@@I@std@@PEAX@std@@@1@PEAU01@@Z
	??$_Freenode@V?$allocator@U?$_Tree_node@U?$pair@$$CBW4llama_rope_scaling_type@@PEBD@std@@PEAX@std@@@std@@@?$_Tree_node@U?$pair@$$CBW4llama_rope_scaling_type@@PEBD@std@@PEAX@std@@SAXAEAV?$allocator@U?$_Tree_node@U?$pair@$$CBW4llama_rope_scaling_type@@PEBD@std@@PEAX@std@@@1@PEAU01@@Z
	??$_Freenode@V?$allocator@U?$_Tree_node@U?$pair@$$CBW4llm_arch@@PEBD@std@@PEAX@std@@@std@@@?$_Tree_node@U?$pair@$$CBW4llm_arch@@PEBD@std@@PEAX@std@@SAXAEAV?$allocator@U?$_Tree_node@U?$pair@$$CBW4llm_arch@@PEBD@std@@PEAX@std@@@1@PEAU01@@Z
	??$_Freenode@V?$allocator@U?$_Tree_node@U?$pair@$$CBW4llm_arch@@V?$map@W4llm_tensor@@V?$basic_string@DU?$char_traits@D@std@@V?$allocator@D@2@@std@@U?$less@W4llm_tensor@@@3@V?$allocator@U?$pair@$$CBW4llm_tensor@@V?$basic_string@DU?$char_traits@D@std@@V?$allocator@D@2@@std@@@std@@@3@@std@@@std@@PEAX@std@@@std@@@?$_Tree_node@U?$pair@$$CBW4llm_arch@@V?$map@W4llm_tensor@@V?$basic_string@DU?$char_traits@D@std@@V?$allocator@D@2@@std@@U?$less@W4llm_tensor@@@3@V?$allocator@U?$pair@$$CBW4llm_tensor@@V?$basic_string@DU?$char_traits@D@std@@V?$allocator@D@2@@std@@@std@@@3@@std@@@std@@PEAX@std@@SAXAEAV?$allocator@U?$_Tree_node@U?$pair@$$CBW4llm_arch@@V?$map@W4llm_tensor@@V?$basic_string@DU?$char_traits@D@std@@V?$allocator@D@2@@std@@U?$less@W4llm_tensor@@@3@V?$allocator@U?$pair@$$CBW4llm_tensor@@V?$basic_string@DU?$char_traits@D@std@@V?$allocator@D@2@@std@@@std@@@3@@std@@@std@@PEAX@std@@@1@PEAU01@@Z
	??$_Freenode@V?$allocator@U?$_Tree_node@U?$pair@$$CBW4llm_kv@@PEBD@std@@PEAX@std@@@std@@@?$_Tree_node@U?$pair@$$CBW4llm_kv@@PEBD@std@@PEAX@std@@SAXAEAV?$allocator@U?$_Tree_node@U?$pair@$$CBW4llm_kv@@PEBD@std@@PEAX@std@@@1@PEAU01@@Z
	??$_Freenode@V?$allocator@U?$_Tree_node@U?$pair@$$CBW4llm_tensor@@V?$basic_string@DU?$char_traits@D@std@@V?$allocator@D@2@@std@@@std@@PEAX@std@@@std@@@?$_Tree_node@U?$pair@$$CBW4llm_tensor@@V?$basic_string@DU?$char_traits@D@std@@V?$allocator@D@2@@std@@@std@@PEAX@std@@SAXAEAV?$allocator@U?$_Tree_node@U?$pair@$$CBW4llm_tensor@@V?$basic_string@DU?$char_traits@D@std@@V?$allocator@D@2@@std@@@std@@PEAX@std@@@1@PEAU01@@Z
	??$_Freenode@V?$allocator@U?$_Tree_node@U?$pair@QEAUggml_backend_buffer_type@@H@std@@PEAX@std@@@std@@@?$_Tree_node@U?$pair@QEAUggml_backend_buffer_type@@H@std@@PEAX@std@@SAXAEAV?$allocator@U?$_Tree_node@U?$pair@QEAUggml_backend_buffer_type@@H@std@@PEAX@std@@@1@PEAU01@@Z
	??$_Freenode@V?$allocator@U?$_Tree_node@U?$pair@QEAUggml_backend_buffer_type@@PEAUggml_context@@@std@@PEAX@std@@@std@@@?$_Tree_node@U?$pair@QEAUggml_backend_buffer_type@@PEAUggml_context@@@std@@PEAX@std@@SAXAEAV?$allocator@U?$_Tree_node@U?$pair@QEAUggml_backend_buffer_type@@PEAUggml_context@@@std@@PEAX@std@@@1@PEAU01@@Z
	??$_Freenode@V?$allocator@U?$_Tree_node@V?$basic_string@DU?$char_traits@D@std@@V?$allocator@D@2@@std@@PEAX@std@@@std@@@?$_Tree_node@V?$basic_string@DU?$char_traits@D@std@@V?$allocator@D@2@@std@@PEAX@std@@SAXAEAV?$allocator@U?$_Tree_node@V?$basic_string@DU?$char_traits@D@std@@V?$allocator@D@2@@std@@PEAX@std@@@1@PEAU01@@Z
	??$_Get@D@_Cl_names@std@@QEBAPEBDXZ
	??$_Get@_W@_Cl_names@std@@QEBAPEB_WXZ
	??$_Get_associated_state@U?$pair@PEAUggml_tensor@@_N@std@@V?$_Fake_no_copy_callable_adapter@V<lambda_3f39357f5ebcd3550b555fa53c33d10a>@@@2@@std@@YAPEAV?$_Associated_state@U?$pair@PEAUggml_tensor@@_N@std@@@0@W4launch@0@$$QEAV?$_Fake_no_copy_callable_adapter@V<lambda_3f39357f5ebcd3550b555fa53c33d10a>@@@0@@Z
	??$_Get_associated_state@U?$pair@PEAUggml_tensor@@_N@std@@V?$_Fake_no_copy_callable_adapter@V<lambda_e3b97c3ad3d076d7964efd5d963695f6>@@@2@@std@@YAPEAV?$_Associated_state@U?$pair@PEAUggml_tensor@@_N@std@@@0@W4launch@0@$$QEAV?$_Fake_no_copy_callable_adapter@V<lambda_e3b97c3ad3d076d7964efd5d963695f6>@@@0@@Z
	??$_Get_size_of_n@$00@std@@YA_K_K@Z
	??$_Get_size_of_n@$01@std@@YA_K_K@Z
	??$_Get_size_of_n@$03@std@@YA_K_K@Z
	??$_Get_size_of_n@$07@std@@YA_K_K@Z
	??$_Get_size_of_n@$0BA@@std@@YA_K_K@Z
	??$_Get_size_of_n@$0BEA@@std@@YA_K_K@Z
	??$_Get_size_of_n@$0BI@@std@@YA_K_K@Z
	??$_Get_size_of_n@$0CA@@std@@YA_K_K@Z
	??$_Get_size_of_n@$0CI@@std@@YA_K_K@Z
	??$_Get_size_of_n@$0CLA@@std@@YA_K_K@Z
	??$_Get_size_of_n@$0DA@@std@@YA_K_K@Z
	??$_Get_size_of_n@$0EA@@std@@YA_K_K@Z
	??$_Get_size_of_n@$0EI@@std@@YA_K_K@Z
	??$_Get_size_of_n@$0FA@@std@@YA_K_K@Z
	??$_Get_size_of_n@$0FI@@std@@YA_K_K@Z
	??$_Get_size_of_n@$0GA@@std@@YA_K_K@Z
	??$_Get_size_of_n@$0HI@@std@@YA_K_K@Z
	??$_Get_size_of_n@$0M@@std@@YA_K_K@Z
	??$_Get_unwrapped@AEAPEAD@std@@YA?A_TAEAPEAD@Z
	??$_Get_unwrapped@AEAPEAM@std@@YA?A_TAEAPEAM@Z
	??$_Get_unwrapped@AEAPEAUllama_token_data@@@std@@YA?A_TAEAPEAUllama_token_data@@@Z
	??$_Get_unwrapped@AEAPEA_W@std@@YA?A_TAEAPEA_W@Z
	??$_Get_unwrapped@AEAPEBD@std@@YA?A_TAEAPEBD@Z
	??$_Get_unwrapped@AEAPEBI@std@@YA?A_TAEAPEBI@Z
	??$_Get_unwrapped@AEAPEBM@std@@YA?A_TAEAPEBM@Z
	??$_Get_unwrapped@AEAPEB_W@std@@YA?A_TAEAPEB_W@Z
	??$_Get_unwrapped@AEAV?$_Flist_iterator@V?$_Flist_val@U?$_Flist_simple_types@Ufragment_buffer_variant@@@std@@@std@@@std@@@std@@YA?A_TAEAV?$_Flist_iterator@V?$_Flist_val@U?$_Flist_simple_types@Ufragment_buffer_variant@@@std@@@std@@@0@@Z
	??$_Get_unwrapped@AEAV?$_String_iterator@V?$_String_val@U?$_Simple_types@D@std@@@std@@@std@@@std@@YA?A_TAEAV?$_String_iterator@V?$_String_val@U?$_Simple_types@D@std@@@std@@@0@@Z
	??$_Get_unwrapped@AEAV?$_String_iterator@V?$_String_val@U?$_Simple_types@_W@std@@@std@@@std@@@std@@YA?A_TAEAV?$_String_iterator@V?$_String_val@U?$_Simple_types@_W@std@@@std@@@0@@Z
	??$_Get_unwrapped@AEAV?$_Tree_unchecked_const_iterator@V?$_Tree_val@U?$_Tree_simple_types@H@std@@@std@@U_Iterator_base0@2@@std@@@std@@YA?A_TAEAV?$_Tree_unchecked_const_iterator@V?$_Tree_val@U?$_Tree_simple_types@H@std@@@std@@U_Iterator_base0@2@@0@@Z
	??$_Get_unwrapped@AEAV?$_Vb_iterator@U?$_Wrap_alloc@V?$allocator@I@std@@@std@@@std@@@std@@YA?A_TAEAV?$_Vb_iterator@U?$_Wrap_alloc@V?$allocator@I@std@@@std@@@0@@Z
	??$_Get_unwrapped@AEAV?$_Vector_const_iterator@V?$_Vector_val@U?$_Simple_types@I@std@@@std@@@std@@@std@@YA?A_TAEAV?$_Vector_const_iterator@V?$_Vector_val@U?$_Simple_types@I@std@@@std@@@0@@Z
	??$_Get_unwrapped@AEAV?$_Vector_const_iterator@V?$_Vector_val@U?$_Simple_types@N@std@@@std@@@std@@@std@@YA?A_TAEAV?$_Vector_const_iterator@V?$_Vector_val@U?$_Simple_types@N@std@@@std@@@0@@Z
	??$_Get_unwrapped@AEAV?$_Vector_const_iterator@V?$_Vector_val@U?$_Simple_types@PEBUllama_grammar_element@@@std@@@std@@@std@@@std@@YA?A_TAEAV?$_Vector_const_iterator@V?$_Vector_val@U?$_Simple_types@PEBUllama_grammar_element@@@std@@@std@@@0@@Z
	??$_Get_unwrapped@AEAV?$_Vector_const_iterator@V?$_Vector_val@U?$_Simple_types@Urange_nfd@@@std@@@std@@@std@@@std@@YA?A_TAEAV?$_Vector_const_iterator@V?$_Vector_val@U?$_Simple_types@Urange_nfd@@@std@@@std@@@0@@Z
	??$_Get_unwrapped@AEAV?$_Vector_iterator@V?$_Vector_val@U?$_Simple_types@M@std@@@std@@@std@@@std@@YA?A_TAEAV?$_Vector_iterator@V?$_Vector_val@U?$_Simple_types@M@std@@@std@@@0@@Z
	??$_Get_unwrapped@AEAV?$_Vector_iterator@V?$_Vector_val@U?$_Simple_types@U?$pair@V?$basic_string@DU?$char_traits@D@std@@V?$allocator@D@2@@std@@PEAUggml_tensor@@@std@@@std@@@std@@@std@@@std@@YA?A_TAEAV?$_Vector_iterator@V?$_Vector_val@U?$_Simple_types@U?$pair@V?$basic_string@DU?$char_traits@D@std@@V?$allocator@D@2@@std@@PEAUggml_tensor@@@std@@@std@@@std@@@0@@Z
	??$_Get_unwrapped@AEAV?$_Vector_iterator@V?$_Vector_val@U?$_Simple_types@Ullama_token_data@@@std@@@std@@@std@@@std@@YA?A_TAEAV?$_Vector_iterator@V?$_Vector_val@U?$_Simple_types@Ullama_token_data@@@std@@@std@@@0@@Z
	??$_Get_unwrapped@AEAV?$_Vector_iterator@V?$_Vector_val@U?$_Simple_types@Ullm_bigram_bpe@@@std@@@std@@@std@@@std@@YA?A_TAEAV?$_Vector_iterator@V?$_Vector_val@U?$_Simple_types@Ullm_bigram_bpe@@@std@@@std@@@0@@Z
	??$_Get_unwrapped@AEAV?$_Vector_iterator@V?$_Vector_val@U?$_Simple_types@Ullm_bigram_spm@@@std@@@std@@@std@@@std@@YA?A_TAEAV?$_Vector_iterator@V?$_Vector_val@U?$_Simple_types@Ullm_bigram_spm@@@std@@@std@@@0@@Z
	??$_Get_unwrapped@AEAV?$_Vector_iterator@V?$_Vector_val@U?$_Simple_types@V?$vector@PEBUllama_grammar_element@@V?$allocator@PEBUllama_grammar_element@@@std@@@std@@@std@@@std@@@std@@@std@@YA?A_TAEAV?$_Vector_iterator@V?$_Vector_val@U?$_Simple_types@V?$vector@PEBUllama_grammar_element@@V?$allocator@PEBUllama_grammar_element@@@std@@@std@@@std@@@std@@@0@@Z
	??$_Get_unwrapped@AEAV?$_Vector_iterator@V?$_Vector_val@U?$_Simple_types@_K@std@@@std@@@std@@@std@@YA?A_TAEAV?$_Vector_iterator@V?$_Vector_val@U?$_Simple_types@_K@std@@@std@@@0@@Z
	??$_Get_unwrapped@AEBQEAC@std@@YA?A_TAEBQEAC@Z
	??$_Get_unwrapped@AEBQEAE@std@@YA?A_TAEBQEAE@Z
	??$_Get_unwrapped@AEBQEAH@std@@YA?A_TAEBQEAH@Z
	??$_Get_unwrapped@AEBQEAI@std@@YA?A_TAEBQEAI@Z
	??$_Get_unwrapped@AEBQEAM@std@@YA?A_TAEBQEAM@Z
	??$_Get_unwrapped@AEBQEAN@std@@YA?A_TAEBQEAN@Z
	??$_Get_unwrapped@AEBQEAPEAH@std@@YA?A_TAEBQEAPEAH@Z
	??$_Get_unwrapped@AEBQEAPEAUggml_backend@@@std@@YA?A_TAEBQEAPEAUggml_backend@@@Z
	??$_Get_unwrapped@AEBQEAPEAUggml_backend_buffer@@@std@@YA?A_TAEBQEAPEAUggml_backend_buffer@@@Z
	??$_Get_unwrapped@AEBQEAPEAUggml_backend_buffer_type@@@std@@YA?A_TAEBQEAPEAUggml_backend_buffer_type@@@Z
	??$_Get_unwrapped@AEBQEAPEAUggml_context@@@std@@YA?A_TAEBQEAPEAUggml_context@@@Z
	??$_Get_unwrapped@AEBQEAPEAUggml_tensor@@@std@@YA?A_TAEBQEAPEAUggml_tensor@@@Z
	??$_Get_unwrapped@AEBQEAPEAUllama_token_data@@@std@@YA?A_TAEBQEAPEAUllama_token_data@@@Z
	??$_Get_unwrapped@AEBQEAPEAX@std@@YA?A_TAEBQEAPEAX@Z
	??$_Get_unwrapped@AEBQEAPEBUllama_chat_message@@@std@@YA?A_TAEBQEAPEBUllama_chat_message@@@Z
	??$_Get_unwrapped@AEBQEAPEBUllama_grammar_element@@@std@@YA?A_TAEBQEAPEBUllama_grammar_element@@@Z
	??$_Get_unwrapped@AEBQEAU?$no_init@E@@@std@@YA?A_TAEBQEAU?$no_init@E@@@Z
	??$_Get_unwrapped@AEBQEAU?$no_init@M@@@std@@YA?A_TAEBQEAU?$no_init@M@@@Z
	??$_Get_unwrapped@AEBQEAU?$pair@II@std@@@std@@YA?A_TAEBQEAU?$pair@II@0@@Z
	??$_Get_unwrapped@AEBQEAU?$pair@PEAUggml_context@@V?$unordered_map@IPEAUggml_backend_buffer@@U?$hash@I@std@@U?$equal_to@I@3@V?$allocator@U?$pair@$$CBIPEAUggml_backend_buffer@@@std@@@3@@std@@@std@@@std@@YA?A_TAEBQEAU?$pair@PEAUggml_context@@V?$unordered_map@IPEAUggml_backend_buffer@@U?$hash@I@std@@U?$equal_to@I@3@V?$allocator@U?$pair@$$CBIPEAUggml_backend_buffer@@@std@@@3@@std@@@0@@Z
	??$_Get_unwrapped@AEBQEAU?$pair@V?$basic_string@DU?$char_traits@D@std@@V?$allocator@D@2@@std@@PEAUggml_tensor@@@std@@@std@@YA?A_TAEBQEAU?$pair@V?$basic_string@DU?$char_traits@D@std@@V?$allocator@D@2@@std@@PEAUggml_tensor@@@0@@Z
	??$_Get_unwrapped@AEBQEAU?$pair@V?$vector@IV?$allocator@I@std@@@std@@Ullama_partial_utf8@@@std@@@std@@YA?A_TAEBQEAU?$pair@V?$vector@IV?$allocator@I@std@@@std@@Ullama_partial_utf8@@@0@@Z
	??$_Get_unwrapped@AEBQEAU?$pair@_K_K@std@@@std@@YA?A_TAEBQEAU?$pair@_K_K@0@@Z
	??$_Get_unwrapped@AEBQEAU_Grp_t@?$_Tgt_state_t@PEBD@std@@@std@@YA?A_TAEBQEAU_Grp_t@?$_Tgt_state_t@PEBD@0@@Z
	??$_Get_unwrapped@AEBQEAU_Grp_t@?$_Tgt_state_t@PEB_W@std@@@std@@YA?A_TAEBQEAU_Grp_t@?$_Tgt_state_t@PEB_W@0@@Z
	??$_Get_unwrapped@AEBQEAU_Loop_vals_t@std@@@std@@YA?A_TAEBQEAU_Loop_vals_t@0@@Z
	??$_Get_unwrapped@AEBQEAUlayer_buft@llama_model@@@std@@YA?A_TAEBQEAUlayer_buft@llama_model@@@Z
	??$_Get_unwrapped@AEBQEAUllama_grammar_candidate@@@std@@YA?A_TAEBQEAUllama_grammar_candidate@@@Z
	??$_Get_unwrapped@AEBQEAUllama_grammar_element@@@std@@YA?A_TAEBQEAUllama_grammar_element@@@Z
	??$_Get_unwrapped@AEBQEAUllama_layer@@@std@@YA?A_TAEBQEAUllama_layer@@@Z
	??$_Get_unwrapped@AEBQEAUllama_sbatch_seq@@@std@@YA?A_TAEBQEAUllama_sbatch_seq@@@Z
	??$_Get_unwrapped@AEBQEAUllama_tensor_weight@llama_model_loader@@@std@@YA?A_TAEBQEAUllama_tensor_weight@llama_model_loader@@@Z
	??$_Get_unwrapped@AEBQEAUllama_token_data@@@std@@YA?A_TAEBQEAUllama_token_data@@@Z
	??$_Get_unwrapped@AEBQEAUllm_bigram_bpe@@@std@@YA?A_TAEBQEAUllm_bigram_bpe@@@Z
	??$_Get_unwrapped@AEBQEAUllm_bigram_spm@@@std@@YA?A_TAEBQEAUllm_bigram_spm@@@Z
	??$_Get_unwrapped@AEBQEAUllm_symbol@@@std@@YA?A_TAEBQEAUllm_symbol@@@Z
	??$_Get_unwrapped@AEBQEAUtoken_data@llama_vocab@@@std@@YA?A_TAEBQEAUtoken_data@llama_vocab@@@Z
	??$_Get_unwrapped@AEBQEAV?$_List_unchecked_const_iterator@V?$_List_val@U?$_List_simple_types@I@std@@@std@@U_Iterator_base0@2@@std@@@std@@YA?A_TAEBQEAV?$_List_unchecked_const_iterator@V?$_List_val@U?$_List_simple_types@I@std@@@std@@U_Iterator_base0@2@@0@@Z
	??$_Get_unwrapped@AEBQEAV?$_List_unchecked_iterator@V?$_List_val@U?$_List_simple_types@U?$pair@$$CBEV?$basic_string@DU?$char_traits@D@std@@V?$allocator@D@2@@std@@@std@@@std@@@std@@@std@@@std@@YA?A_TAEBQEAV?$_List_unchecked_iterator@V?$_List_val@U?$_List_simple_types@U?$pair@$$CBEV?$basic_string@DU?$char_traits@D@std@@V?$allocator@D@2@@std@@@std@@@std@@@std@@@0@@Z
	??$_Get_unwrapped@AEBQEAV?$_List_unchecked_iterator@V?$_List_val@U?$_List_simple_types@U?$pair@$$CBHH@std@@@std@@@std@@@std@@@std@@YA?A_TAEBQEAV?$_List_unchecked_iterator@V?$_List_val@U?$_List_simple_types@U?$pair@$$CBHH@std@@@std@@@std@@@0@@Z
	??$_Get_unwrapped@AEBQEAV?$_List_unchecked_iterator@V?$_List_val@U?$_List_simple_types@U?$pair@$$CBII@std@@@std@@@std@@@std@@@std@@YA?A_TAEBQEAV?$_List_unchecked_iterator@V?$_List_val@U?$_List_simple_types@U?$pair@$$CBII@std@@@std@@@std@@@0@@Z
	??$_Get_unwrapped@AEBQEAV?$_List_unchecked_iterator@V?$_List_val@U?$_List_simple_types@U?$pair@$$CBIPEAUggml_backend_buffer@@@std@@@std@@@std@@@std@@@std@@YA?A_TAEBQEAV?$_List_unchecked_iterator@V?$_List_val@U?$_List_simple_types@U?$pair@$$CBIPEAUggml_backend_buffer@@@std@@@std@@@std@@@0@@Z
	??$_Get_unwrapped@AEBQEAV?$_List_unchecked_iterator@V?$_List_val@U?$_List_simple_types@U?$pair@$$CBV?$basic_string@DU?$char_traits@D@std@@V?$allocator@D@2@@std@@E@std@@@std@@@std@@@std@@@std@@YA?A_TAEBQEAV?$_List_unchecked_iterator@V?$_List_val@U?$_List_simple_types@U?$pair@$$CBV?$basic_string@DU?$char_traits@D@std@@V?$allocator@D@2@@std@@E@std@@@std@@@std@@@0@@Z
	??$_Get_unwrapped@AEBQEAV?$_List_unchecked_iterator@V?$_List_val@U?$_List_simple_types@U?$pair@$$CBV?$basic_string@DU?$char_traits@D@std@@V?$allocator@D@2@@std@@H@std@@@std@@@std@@@std@@@std@@YA?A_TAEBQEAV?$_List_unchecked_iterator@V?$_List_val@U?$_List_simple_types@U?$pair@$$CBV?$basic_string@DU?$char_traits@D@std@@V?$allocator@D@2@@std@@H@std@@@std@@@std@@@0@@Z
	??$_Get_unwrapped@AEBQEAV?$_List_unchecked_iterator@V?$_List_val@U?$_List_simple_types@U?$pair@$$CBV?$basic_string@DU?$char_traits@D@std@@V?$allocator@D@2@@std@@Ullama_lora_weight@@@std@@@std@@@std@@@std@@@std@@YA?A_TAEBQEAV?$_List_unchecked_iterator@V?$_List_val@U?$_List_simple_types@U?$pair@$$CBV?$basic_string@DU?$char_traits@D@std@@V?$allocator@D@2@@std@@Ullama_lora_weight@@@std@@@std@@@std@@@0@@Z
	??$_Get_unwrapped@AEBQEAV?$_List_unchecked_iterator@V?$_List_val@U?$_List_simple_types@U?$pair@$$CBV?$basic_string@DU?$char_traits@D@std@@V?$allocator@D@2@@std@@Ullama_model_kv_override@@@std@@@std@@@std@@@std@@@std@@YA?A_TAEBQEAV?$_List_unchecked_iterator@V?$_List_val@U?$_List_simple_types@U?$pair@$$CBV?$basic_string@DU?$char_traits@D@std@@V?$allocator@D@2@@std@@Ullama_model_kv_override@@@std@@@std@@@std@@@0@@Z
	??$_Get_unwrapped@AEBQEAV?$_List_unchecked_iterator@V?$_List_val@U?$_List_simple_types@U?$pair@$$CBV?$basic_string@DU?$char_traits@D@std@@V?$allocator@D@2@@std@@V12@@std@@@std@@@std@@@std@@@std@@YA?A_TAEBQEAV?$_List_unchecked_iterator@V?$_List_val@U?$_List_simple_types@U?$pair@$$CBV?$basic_string@DU?$char_traits@D@std@@V?$allocator@D@2@@std@@V12@@std@@@std@@@std@@@0@@Z
	??$_Get_unwrapped@AEBQEAV?$_List_unchecked_iterator@V?$_List_val@U?$_List_simple_types@U?$pair@QEAUllama_lora_adapter@@M@std@@@std@@@std@@@std@@@std@@YA?A_TAEBQEAV?$_List_unchecked_iterator@V?$_List_val@U?$_List_simple_types@U?$pair@QEAUllama_lora_adapter@@M@std@@@std@@@std@@@0@@Z
	??$_Get_unwrapped@AEBQEAV?$basic_string@DU?$char_traits@D@std@@V?$allocator@D@2@@std@@@std@@YA?A_TAEBQEAV?$basic_string@DU?$char_traits@D@std@@V?$allocator@D@2@@0@@Z
	??$_Get_unwrapped@AEBQEAV?$future@U?$pair@PEAUggml_tensor@@_N@std@@@std@@@std@@YA?A_TAEBQEAV?$future@U?$pair@PEAUggml_tensor@@_N@std@@@0@@Z
	??$_Get_unwrapped@AEBQEAV?$sub_match@PEBD@std@@@std@@YA?A_TAEBQEAV?$sub_match@PEBD@0@@Z
	??$_Get_unwrapped@AEBQEAV?$sub_match@PEB_W@std@@@std@@YA?A_TAEBQEAV?$sub_match@PEB_W@0@@Z
	??$_Get_unwrapped@AEBQEAV?$unique_ptr@Ullama_file@@U?$default_delete@Ullama_file@@@std@@@std@@@std@@YA?A_TAEBQEAV?$unique_ptr@Ullama_file@@U?$default_delete@Ullama_file@@@std@@@0@@Z
	??$_Get_unwrapped@AEBQEAV?$unique_ptr@Ullama_mlock@@U?$default_delete@Ullama_mlock@@@std@@@std@@@std@@YA?A_TAEBQEAV?$unique_ptr@Ullama_mlock@@U?$default_delete@Ullama_mlock@@@std@@@0@@Z
	??$_Get_unwrapped@AEBQEAV?$unique_ptr@Ullama_mmap@@U?$default_delete@Ullama_mmap@@@std@@@std@@@std@@YA?A_TAEBQEAV?$unique_ptr@Ullama_mmap@@U?$default_delete@Ullama_mmap@@@std@@@0@@Z
	??$_Get_unwrapped@AEBQEAV?$vector@PEBUllama_grammar_element@@V?$allocator@PEBUllama_grammar_element@@@std@@@std@@@std@@YA?A_TAEBQEAV?$vector@PEBUllama_grammar_element@@V?$allocator@PEBUllama_grammar_element@@@std@@@0@@Z
	??$_Get_unwrapped@AEBQEAVthread@std@@@std@@YA?A_TAEBQEAVthread@0@@Z
	??$_Get_unwrapped@AEBQEA_K@std@@YA?A_TAEBQEA_K@Z
	??$_Get_unwrapped@AEBQEBD@std@@YA?A_TAEBQEBD@Z
	??$_Get_unwrapped@AEBQEBQEBUllama_grammar_element@@@std@@YA?A_TAEBQEBQEBUllama_grammar_element@@@Z
	??$_Get_unwrapped@AEBQEB_W@std@@YA?A_TAEBQEB_W@Z
	??$_Get_unwrapped@AEBV?$_Array_iterator@I$0CAA@@std@@@std@@YA?A_TAEBV?$_Array_iterator@I$0CAA@@0@@Z
	??$_Get_unwrapped@AEBV?$_String_iterator@V?$_String_val@U?$_Simple_types@D@std@@@std@@@std@@@std@@YA?A_TAEBV?$_String_iterator@V?$_String_val@U?$_Simple_types@D@std@@@std@@@0@@Z
	??$_Get_unwrapped@AEBV?$_Vector_const_iterator@V?$_Vector_val@U?$_Simple_types@N@std@@@std@@@std@@@std@@YA?A_TAEBV?$_Vector_const_iterator@V?$_Vector_val@U?$_Simple_types@N@std@@@std@@@0@@Z
	??$_Get_unwrapped@AEBV?$_Vector_iterator@V?$_Vector_val@U?$_Simple_types@H@std@@@std@@@std@@@std@@YA?A_TAEBV?$_Vector_iterator@V?$_Vector_val@U?$_Simple_types@H@std@@@std@@@0@@Z
	??$_Get_unwrapped@AEBV?$_Vector_iterator@V?$_Vector_val@U?$_Simple_types@M@std@@@std@@@std@@@std@@YA?A_TAEBV?$_Vector_iterator@V?$_Vector_val@U?$_Simple_types@M@std@@@std@@@0@@Z
	??$_Get_unwrapped@AEBV?$_Vector_iterator@V?$_Vector_val@U?$_Simple_types@U?$pair@V?$basic_string@DU?$char_traits@D@std@@V?$allocator@D@2@@std@@PEAUggml_tensor@@@std@@@std@@@std@@@std@@@std@@YA?A_TAEBV?$_Vector_iterator@V?$_Vector_val@U?$_Simple_types@U?$pair@V?$basic_string@DU?$char_traits@D@std@@V?$allocator@D@2@@std@@PEAUggml_tensor@@@std@@@std@@@std@@@0@@Z
	??$_Get_unwrapped@AEBV?$_Vector_iterator@V?$_Vector_val@U?$_Simple_types@Ullama_sbatch_seq@@@std@@@std@@@std@@@std@@YA?A_TAEBV?$_Vector_iterator@V?$_Vector_val@U?$_Simple_types@Ullama_sbatch_seq@@@std@@@std@@@0@@Z
	??$_Get_unwrapped@AEBV?$_Vector_iterator@V?$_Vector_val@U?$_Simple_types@V?$vector@PEBUllama_grammar_element@@V?$allocator@PEBUllama_grammar_element@@@std@@@std@@@std@@@std@@@std@@@std@@YA?A_TAEBV?$_Vector_iterator@V?$_Vector_val@U?$_Simple_types@V?$vector@PEBUllama_grammar_element@@V?$allocator@PEBUllama_grammar_element@@@std@@@std@@@std@@@std@@@0@@Z
	??$_Get_unwrapped@AEBV?$_Vector_iterator@V?$_Vector_val@U?$_Simple_types@_K@std@@@std@@@std@@@std@@YA?A_TAEBV?$_Vector_iterator@V?$_Vector_val@U?$_Simple_types@_K@std@@@std@@@0@@Z
	??$_Get_unwrapped@PEAD@std@@YA?A_T$$QEAPEAD@Z
	??$_Get_unwrapped@PEAI@std@@YA?A_T$$QEAPEAI@Z
	??$_Get_unwrapped@PEAM@std@@YA?A_T$$QEAPEAM@Z
	??$_Get_unwrapped@PEAPEAX@std@@YA?A_T$$QEAPEAPEAX@Z
	??$_Get_unwrapped@PEAPEBUllama_grammar_element@@@std@@YA?A_T$$QEAPEAPEBUllama_grammar_element@@@Z
	??$_Get_unwrapped@PEAU?$pair@PEAUggml_context@@V?$unordered_map@IPEAUggml_backend_buffer@@U?$hash@I@std@@U?$equal_to@I@3@V?$allocator@U?$pair@$$CBIPEAUggml_backend_buffer@@@std@@@3@@std@@@std@@@std@@YA?A_T$$QEAPEAU?$pair@PEAUggml_context@@V?$unordered_map@IPEAUggml_backend_buffer@@U?$hash@I@std@@U?$equal_to@I@3@V?$allocator@U?$pair@$$CBIPEAUggml_backend_buffer@@@std@@@3@@std@@@0@@Z
	??$_Get_unwrapped@PEAU_Grp_t@?$_Tgt_state_t@PEBD@std@@@std@@YA?A_T$$QEAPEAU_Grp_t@?$_Tgt_state_t@PEBD@0@@Z
	??$_Get_unwrapped@PEAU_Grp_t@?$_Tgt_state_t@PEB_W@std@@@std@@YA?A_T$$QEAPEAU_Grp_t@?$_Tgt_state_t@PEB_W@0@@Z
	??$_Get_unwrapped@PEAUllama_grammar_element@@@std@@YA?A_T$$QEAPEAUllama_grammar_element@@@Z
	??$_Get_unwrapped@PEAUllama_kv_cell@@@std@@YA?A_T$$QEAPEAUllama_kv_cell@@@Z
	??$_Get_unwrapped@PEAUllm_symbol@@@std@@YA?A_T$$QEAPEAUllm_symbol@@@Z
	??$_Get_unwrapped@PEAV?$set@HU?$less@H@std@@V?$allocator@H@2@@std@@@std@@YA?A_T$$QEAPEAV?$set@HU?$less@H@std@@V?$allocator@H@2@@0@@Z
	??$_Get_unwrapped@PEAV?$sub_match@PEBD@std@@@std@@YA?A_T$$QEAPEAV?$sub_match@PEBD@0@@Z
	??$_Get_unwrapped@PEAV?$sub_match@PEB_W@std@@@std@@YA?A_T$$QEAPEAV?$sub_match@PEB_W@0@@Z
	??$_Get_unwrapped@PEAV?$vector@PEBUllama_grammar_element@@V?$allocator@PEBUllama_grammar_element@@@std@@@std@@@std@@YA?A_T$$QEAPEAV?$vector@PEBUllama_grammar_element@@V?$allocator@PEBUllama_grammar_element@@@std@@@0@@Z
	??$_Get_unwrapped@PEAV?$vector@Ullama_grammar_element@@V?$allocator@Ullama_grammar_element@@@std@@@std@@@std@@YA?A_T$$QEAPEAV?$vector@Ullama_grammar_element@@V?$allocator@Ullama_grammar_element@@@std@@@0@@Z
	??$_Get_unwrapped@PEA_W@std@@YA?A_T$$QEAPEA_W@Z
	??$_Get_unwrapped@PEBD@std@@YA?A_T$$QEAPEBD@Z
	??$_Get_unwrapped@PEBQEBUllama_grammar_element@@@std@@YA?A_T$$QEAPEBQEBUllama_grammar_element@@@Z
	??$_Get_unwrapped@PEBU?$pair@IG@std@@@std@@YA?A_T$$QEAPEBU?$pair@IG@0@@Z
	??$_Get_unwrapped@PEBU?$pair@W4llm_kv@@AEAH@std@@@std@@YA?A_T$$QEAPEBU?$pair@W4llm_kv@@AEAH@0@@Z
	??$_Get_unwrapped@PEBUrange_nfd@@@std@@YA?A_T$$QEAPEBUrange_nfd@@@Z
	??$_Get_unwrapped@PEBV?$basic_string@DU?$char_traits@D@std@@V?$allocator@D@2@@std@@@std@@YA?A_T$$QEAPEBV?$basic_string@DU?$char_traits@D@std@@V?$allocator@D@2@@0@@Z
	??$_Get_unwrapped@PEB_J@std@@YA?A_T$$QEAPEB_J@Z
	??$_Get_unwrapped@PEB_K@std@@YA?A_T$$QEAPEB_K@Z
	??$_Get_unwrapped@PEB_W@std@@YA?A_T$$QEAPEB_W@Z
	??$_Get_unwrapped_n@AEAPEAUllama_token_data@@_J@std@@YA?A_TAEAPEAUllama_token_data@@_J@Z
	??$_Get_unwrapped_n@AEAV?$_Array_iterator@I$0CAA@@std@@_J@std@@YA?A_TAEAV?$_Array_iterator@I$0CAA@@0@_J@Z
	??$_Get_unwrapped_n@AEAV?$_String_iterator@V?$_String_val@U?$_Simple_types@D@std@@@std@@@std@@_J@std@@YA?A_TAEAV?$_String_iterator@V?$_String_val@U?$_Simple_types@D@std@@@std@@@0@_J@Z
	??$_Get_unwrapped_n@AEAV?$_Vb_iterator@U?$_Wrap_alloc@V?$allocator@I@std@@@std@@@std@@_J@std@@YA?A_TAEAV?$_Vb_iterator@U?$_Wrap_alloc@V?$allocator@I@std@@@std@@@0@_J@Z
	??$_Get_unwrapped_n@AEAV?$_Vector_iterator@V?$_Vector_val@U?$_Simple_types@M@std@@@std@@@std@@_J@std@@YA?A_TAEAV?$_Vector_iterator@V?$_Vector_val@U?$_Simple_types@M@std@@@std@@@0@_J@Z
	??$_Get_unwrapped_n@AEBQEBD_J@std@@YA?A_TAEBQEBD_J@Z
	??$_Get_unwrapped_n@AEBQEBQEBUllama_grammar_element@@_J@std@@YA?A_TAEBQEBQEBUllama_grammar_element@@_J@Z
	??$_Get_unwrapped_n@AEBQEB_W_J@std@@YA?A_TAEBQEB_W_J@Z
	??$_Get_unwrapped_n@V?$_Flist_iterator@V?$_Flist_val@U?$_Flist_simple_types@Ufragment_buffer_variant@@@std@@@std@@@std@@_J@std@@YA?A_T$$QEAV?$_Flist_iterator@V?$_Flist_val@U?$_Flist_simple_types@Ufragment_buffer_variant@@@std@@@std@@@0@_J@Z
	??$_Get_unwrapped_n@V?$_List_const_iterator@V?$_List_val@U?$_List_simple_types@U?$pair@$$CBV?$basic_string@DU?$char_traits@D@std@@V?$allocator@D@2@@std@@V12@@std@@@std@@@std@@@std@@H@std@@YA?A_T$$QEAV?$_List_const_iterator@V?$_List_val@U?$_List_simple_types@U?$pair@$$CBV?$basic_string@DU?$char_traits@D@std@@V?$allocator@D@2@@std@@V12@@std@@@std@@@std@@@0@H@Z
	??$_Getvals@_W@?$time_get@DV?$istreambuf_iterator@DU?$char_traits@D@std@@@std@@@std@@IEAAX_WAEBV_Locinfo@1@@Z
	??$_Getvals@_W@?$time_get@_WV?$istreambuf_iterator@_WU?$char_traits@_W@std@@@std@@@std@@IEAAX_WAEBV_Locinfo@1@@Z
	??$_Global_new@V?$_Func_impl_no_alloc@V<lambda_052e919cc0e5399df76dff3972c0cac1>@@E$$V@std@@AEBV<lambda_052e919cc0e5399df76dff3972c0cac1>@@@std@@YAPEAV?$_Func_impl_no_alloc@V<lambda_052e919cc0e5399df76dff3972c0cac1>@@E$$V@0@AEBV<lambda_052e919cc0e5399df76dff3972c0cac1>@@@Z
	??$_Global_new@V?$_Func_impl_no_alloc@V<lambda_052e919cc0e5399df76dff3972c0cac1>@@E$$V@std@@V<lambda_052e919cc0e5399df76dff3972c0cac1>@@@std@@YAPEAV?$_Func_impl_no_alloc@V<lambda_052e919cc0e5399df76dff3972c0cac1>@@E$$V@0@$$QEAV<lambda_052e919cc0e5399df76dff3972c0cac1>@@@Z
	??$_Guess_median_unchecked@PEAUllama_sbatch_seq@@V<lambda_313471036486df38593e8d47e8fa7539>@@@std@@YAXPEAUllama_sbatch_seq@@00V<lambda_313471036486df38593e8d47e8fa7539>@@@Z
	??$_Guess_median_unchecked@PEA_KV<lambda_dbe0312d54f1cfd9e2926868c057ca79>@@@std@@YAXPEA_K00V<lambda_dbe0312d54f1cfd9e2926868c057ca79>@@@Z
	??$_Hash_array_representation@D@std@@YA_KQEBD_K@Z
	??$_Hash_array_representation@_W@std@@YA_KQEB_W_K@Z
	??$_Hash_representation@E@std@@YA_KAEBE@Z
	??$_Hash_representation@H@std@@YA_KAEBH@Z
	??$_Hash_representation@I@std@@YA_KAEBI@Z
	??$_Hash_representation@PEAUllama_lora_adapter@@@std@@YA_KAEBQEAUllama_lora_adapter@@@Z
	??$_Idl_distance@PEBDPEBD@std@@YA?A_PAEBQEBD0@Z
	??$_Idl_distance@PEBIPEBI@std@@YA?A_PAEBQEBI0@Z
	??$_Idl_distance@PEBMPEBM@std@@YA?A_PAEBQEBM0@Z
	??$_Idl_distance@PEBQEBUllama_grammar_element@@PEBQEBU1@@std@@YA?A_PAEBQEBQEBUllama_grammar_element@@0@Z
	??$_Idl_distance@PEB_WPEB_W@std@@YA?A_PAEBQEB_W0@Z
	??$_Idl_distance@V?$_String_iterator@V?$_String_val@U?$_Simple_types@D@std@@@std@@@std@@PEAD@std@@YA?A_PAEBQEAD0@Z
	??$_Idl_distance@V?$_Vb_iterator@U?$_Wrap_alloc@V?$allocator@I@std@@@std@@@std@@V12@@std@@YA?A_PAEBV?$_Vb_iterator@U?$_Wrap_alloc@V?$allocator@I@std@@@std@@@0@0@Z
	??$_Idl_distance@V?$_Vector_iterator@V?$_Vector_val@U?$_Simple_types@Ullama_token_data@@@std@@@std@@@std@@PEAUllama_token_data@@@std@@YA?A_PAEBQEAUllama_token_data@@0@Z
	??$_Immortalize_memcpy_image@V_Future_error_category2@std@@@std@@YAAEBV_Future_error_category2@0@XZ
	??$_Immortalize_memcpy_image@V_Generic_error_category@std@@@std@@YAAEBV_Generic_error_category@0@XZ
	??$_In_range@H_K@std@@YA_N_K@Z
	??$_Insert@PEBD@?$_Buf@D@std@@QEAAXPEBD0@Z
	??$_Insert@PEB_W@?$_Buf@_W@std@@QEAAXPEB_W0@Z
	??$_Insert_after@AEAV?$basic_string@DU?$char_traits@D@std@@V?$allocator@D@2@@std@@H_K@?$forward_list@Ufragment_buffer_variant@@V?$allocator@Ufragment_buffer_variant@@@std@@@std@@AEAAXPEAU?$_Flist_node@Ufragment_buffer_variant@@PEAX@1@AEAV?$basic_string@DU?$char_traits@D@std@@V?$allocator@D@2@@1@$$QEAH$$QEA_K@Z
	??$_Insert_after@AEBH@?$forward_list@Ufragment_buffer_variant@@V?$allocator@Ufragment_buffer_variant@@@std@@@std@@AEAAXPEAU?$_Flist_node@Ufragment_buffer_variant@@PEAX@1@AEBH@Z
	??$_Insert_after@AEBV?$basic_string@DU?$char_traits@D@std@@V?$allocator@D@2@@std@@AEA_JAEA_J@?$forward_list@Ufragment_buffer_variant@@V?$allocator@Ufragment_buffer_variant@@@std@@@std@@AEAAXPEAU?$_Flist_node@Ufragment_buffer_variant@@PEAX@1@AEBV?$basic_string@DU?$char_traits@D@std@@V?$allocator@D@2@@1@AEA_J2@Z
	??$_Insert_after@AEBV?$basic_string@DU?$char_traits@D@std@@V?$allocator@D@2@@std@@AEB_JAEA_J@?$forward_list@Ufragment_buffer_variant@@V?$allocator@Ufragment_buffer_variant@@@std@@@std@@AEAAXPEAU?$_Flist_node@Ufragment_buffer_variant@@PEAX@1@AEBV?$basic_string@DU?$char_traits@D@std@@V?$allocator@D@2@@1@AEB_JAEA_J@Z
	??$_Insert_range_unchecked@PEBIPEBI@?$_Hash@V?$_Uset_traits@IV?$_Uhash_compare@IU?$hash@I@std@@U?$equal_to@I@2@@std@@V?$allocator@I@2@$0A@@std@@@std@@IEAAXPEBIQEBI@Z
	??$_Insert_range_unchecked@PEBU?$pair@$$CBHH@std@@PEBU12@@?$_Tree@V?$_Tmap_traits@HHU?$less@H@std@@V?$allocator@U?$pair@$$CBHH@std@@@2@$0A@@std@@@std@@IEAAXPEBU?$pair@$$CBHH@1@QEBU21@@Z
	??$_Insert_range_unchecked@PEBU?$pair@$$CBHV?$basic_string@DU?$char_traits@D@std@@V?$allocator@D@2@@std@@@std@@PEBU12@@?$_Tree@V?$_Tmap_traits@HV?$basic_string@DU?$char_traits@D@std@@V?$allocator@D@2@@std@@U?$less@H@2@V?$allocator@U?$pair@$$CBHV?$basic_string@DU?$char_traits@D@std@@V?$allocator@D@2@@std@@@std@@@2@$0A@@std@@@std@@IEAAXPEBU?$pair@$$CBHV?$basic_string@DU?$char_traits@D@std@@V?$allocator@D@2@@std@@@1@QEBU21@@Z
	??$_Insert_range_unchecked@PEBU?$pair@$$CBII@std@@PEBU12@@?$_Hash@V?$_Umap_traits@IIV?$_Uhash_compare@IU?$hash@I@std@@U?$equal_to@I@2@@std@@V?$allocator@U?$pair@$$CBII@std@@@2@$0A@@std@@@std@@IEAAXPEBU?$pair@$$CBII@1@QEBU21@@Z
	??$_Insert_range_unchecked@PEBU?$pair@$$CBV?$basic_string@DU?$char_traits@D@std@@V?$allocator@D@2@@std@@H@std@@PEBU12@@?$_Tree@V?$_Tmap_traits@V?$basic_string@DU?$char_traits@D@std@@V?$allocator@D@2@@std@@HU?$less@V?$basic_string@DU?$char_traits@D@std@@V?$allocator@D@2@@std@@@2@V?$allocator@U?$pair@$$CBV?$basic_string@DU?$char_traits@D@std@@V?$allocator@D@2@@std@@H@std@@@2@$0A@@std@@@std@@IEAAXPEBU?$pair@$$CBV?$basic_string@DU?$char_traits@D@std@@V?$allocator@D@2@@std@@H@1@QEBU21@@Z
	??$_Insert_range_unchecked@PEBU?$pair@$$CBW4llama_rope_scaling_type@@PEBD@std@@PEBU12@@?$_Tree@V?$_Tmap_traits@W4llama_rope_scaling_type@@PEBDU?$less@W4llama_rope_scaling_type@@@std@@V?$allocator@U?$pair@$$CBW4llama_rope_scaling_type@@PEBD@std@@@3@$0A@@std@@@std@@IEAAXPEBU?$pair@$$CBW4llama_rope_scaling_type@@PEBD@1@QEBU21@@Z
	??$_Insert_range_unchecked@PEBU?$pair@$$CBW4llm_arch@@PEBD@std@@PEBU12@@?$_Tree@V?$_Tmap_traits@W4llm_arch@@PEBDU?$less@W4llm_arch@@@std@@V?$allocator@U?$pair@$$CBW4llm_arch@@PEBD@std@@@3@$0A@@std@@@std@@IEAAXPEBU?$pair@$$CBW4llm_arch@@PEBD@1@QEBU21@@Z
	??$_Insert_range_unchecked@PEBU?$pair@$$CBW4llm_arch@@V?$map@W4llm_tensor@@V?$basic_string@DU?$char_traits@D@std@@V?$allocator@D@2@@std@@U?$less@W4llm_tensor@@@3@V?$allocator@U?$pair@$$CBW4llm_tensor@@V?$basic_string@DU?$char_traits@D@std@@V?$allocator@D@2@@std@@@std@@@3@@std@@@std@@PEBU12@@?$_Tree@V?$_Tmap_traits@W4llm_arch@@V?$map@W4llm_tensor@@V?$basic_string@DU?$char_traits@D@std@@V?$allocator@D@2@@std@@U?$less@W4llm_tensor@@@3@V?$allocator@U?$pair@$$CBW4llm_tensor@@V?$basic_string@DU?$char_traits@D@std@@V?$allocator@D@2@@std@@@std@@@3@@std@@U?$less@W4llm_arch@@@3@V?$allocator@U?$pair@$$CBW4llm_arch@@V?$map@W4llm_tensor@@V?$basic_string@DU?$char_traits@D@std@@V?$allocator@D@2@@std@@U?$less@W4llm_tensor@@@3@V?$allocator@U?$pair@$$CBW4llm_tensor@@V?$basic_string@DU?$char_traits@D@std@@V?$allocator@D@2@@std@@@std@@@3@@std@@@std@@@3@$0A@@std@@@std@@IEAAXPEBU?$pair@$$CBW4llm_arch@@V?$map@W4llm_tensor@@V?$basic_string@DU?$char_traits@D@std@@V?$allocator@D@2@@std@@U?$less@W4llm_tensor@@@3@V?$allocator@U?$pair@$$CBW4llm_tensor@@V?$basic_string@DU?$char_traits@D@std@@V?$allocator@D@2@@std@@@std@@@3@@std@@@1@QEBU21@@Z
	??$_Insert_range_unchecked@PEBU?$pair@$$CBW4llm_kv@@PEBD@std@@PEBU12@@?$_Tree@V?$_Tmap_traits@W4llm_kv@@PEBDU?$less@W4llm_kv@@@std@@V?$allocator@U?$pair@$$CBW4llm_kv@@PEBD@std@@@3@$0A@@std@@@std@@IEAAXPEBU?$pair@$$CBW4llm_kv@@PEBD@1@QEBU21@@Z
	??$_Insert_range_unchecked@PEBU?$pair@$$CBW4llm_tensor@@V?$basic_string@DU?$char_traits@D@std@@V?$allocator@D@2@@std@@@std@@PEBU12@@?$_Tree@V?$_Tmap_traits@W4llm_tensor@@V?$basic_string@DU?$char_traits@D@std@@V?$allocator@D@2@@std@@U?$less@W4llm_tensor@@@3@V?$allocator@U?$pair@$$CBW4llm_tensor@@V?$basic_string@DU?$char_traits@D@std@@V?$allocator@D@2@@std@@@std@@@3@$0A@@std@@@std@@IEAAXPEBU?$pair@$$CBW4llm_tensor@@V?$basic_string@DU?$char_traits@D@std@@V?$allocator@D@2@@std@@@1@QEBU21@@Z
	??$_Insert_range_unchecked@V?$_List_unchecked_const_iterator@V?$_List_val@U?$_List_simple_types@U?$pair@$$CBIPEAUggml_backend_buffer@@@std@@@std@@@std@@U_Iterator_base0@2@@std@@V12@@?$_Hash@V?$_Umap_traits@IPEAUggml_backend_buffer@@V?$_Uhash_compare@IU?$hash@I@std@@U?$equal_to@I@2@@std@@V?$allocator@U?$pair@$$CBIPEAUggml_backend_buffer@@@std@@@3@$0A@@std@@@std@@IEAAXV?$_List_unchecked_const_iterator@V?$_List_val@U?$_List_simple_types@U?$pair@$$CBIPEAUggml_backend_buffer@@@std@@@std@@@std@@U_Iterator_base0@2@@1@V21@@Z
	??$_Insert_string@DU?$char_traits@D@std@@_K@std@@YAAEAV?$basic_ostream@DU?$char_traits@D@std@@@0@AEAV10@QEBD_K@Z
	??$_Insertion_sort_unchecked@PEAUllama_sbatch_seq@@V<lambda_313471036486df38593e8d47e8fa7539>@@@std@@YAPEAUllama_sbatch_seq@@QEAU1@0V<lambda_313471036486df38593e8d47e8fa7539>@@@Z
	??$_Insertion_sort_unchecked@PEA_KV<lambda_dbe0312d54f1cfd9e2926868c057ca79>@@@std@@YAPEA_KQEA_K0V<lambda_dbe0312d54f1cfd9e2926868c057ca79>@@@Z
	??$_Integral_to_string@DH@std@@YA?AV?$basic_string@DU?$char_traits@D@std@@V?$allocator@D@2@@0@H@Z
	??$_Integral_to_string@D_J@std@@YA?AV?$basic_string@DU?$char_traits@D@std@@V?$allocator@D@2@@0@_J@Z
	??$_Invoke_stored@V<lambda_3f39357f5ebcd3550b555fa53c33d10a>@@@std@@YA?A_T$$QEAV?$tuple@V<lambda_3f39357f5ebcd3550b555fa53c33d10a>@@@0@@Z
	??$_Invoke_stored@V<lambda_e3b97c3ad3d076d7964efd5d963695f6>@@@std@@YA?A_T$$QEAV?$tuple@V<lambda_e3b97c3ad3d076d7964efd5d963695f6>@@@0@@Z
	??$_Invoke_stored_explicit@V<lambda_3f39357f5ebcd3550b555fa53c33d10a>@@$$Z$0A@@std@@YA?A_T$$QEAV?$tuple@V<lambda_3f39357f5ebcd3550b555fa53c33d10a>@@@0@U?$integer_sequence@_K$0A@@0@@Z
	??$_Invoke_stored_explicit@V<lambda_e3b97c3ad3d076d7964efd5d963695f6>@@$$Z$0A@@std@@YA?A_T$$QEAV?$tuple@V<lambda_e3b97c3ad3d076d7964efd5d963695f6>@@@0@U?$integer_sequence@_K$0A@@0@@Z
	??$_Is_all_bits_zero@H@std@@YA_NAEBH@Z
	??$_Is_all_bits_zero@I@std@@YA_NAEBI@Z
	??$_Is_all_bits_zero@M@std@@YA_NAEBM@Z
	??$_Is_all_bits_zero@N@std@@YA_NAEBN@Z
	??$_Is_all_bits_zero@PEAUgguf_context@@@std@@YA_NAEBQEAUgguf_context@@@Z
	??$_Is_all_bits_zero@_K@std@@YA_NAEB_K@Z
	??$_Is_word@_W@std@@YA_N_W@Z
	??$_Kfn@$$CBDUnaive_trie@@@?$_Tmap_traits@DUnaive_trie@@U?$less@D@std@@V?$allocator@U?$pair@$$CBDUnaive_trie@@@std@@@3@$0A@@std@@SAAEBDAEBU?$pair@$$CBDUnaive_trie@@@1@@Z
	??$_Kfn@$$CBEV?$basic_string@DU?$char_traits@D@std@@V?$allocator@D@2@@std@@@?$_Umap_traits@EV?$basic_string@DU?$char_traits@D@std@@V?$allocator@D@2@@std@@V?$_Uhash_compare@EU?$hash@E@std@@U?$equal_to@E@2@@2@V?$allocator@U?$pair@$$CBEV?$basic_string@DU?$char_traits@D@std@@V?$allocator@D@2@@std@@@std@@@2@$0A@@std@@SAAEBEAEBU?$pair@$$CBEV?$basic_string@DU?$char_traits@D@std@@V?$allocator@D@2@@std@@@1@@Z
	??$_Kfn@$$CBHH@?$_Tmap_traits@HHU?$less@H@std@@V?$allocator@U?$pair@$$CBHH@std@@@2@$0A@@std@@SAAEBHAEBU?$pair@$$CBHH@1@@Z
	??$_Kfn@$$CBHH@?$_Umap_traits@HHV?$_Uhash_compare@HU?$hash@H@std@@U?$equal_to@H@2@@std@@V?$allocator@U?$pair@$$CBHH@std@@@2@$0A@@std@@SAAEBHAEBU?$pair@$$CBHH@1@@Z
	??$_Kfn@$$CBHV?$basic_string@DU?$char_traits@D@std@@V?$allocator@D@2@@std@@@?$_Tmap_traits@HV?$basic_string@DU?$char_traits@D@std@@V?$allocator@D@2@@std@@U?$less@H@2@V?$allocator@U?$pair@$$CBHV?$basic_string@DU?$char_traits@D@std@@V?$allocator@D@2@@std@@@std@@@2@$0A@@std@@SAAEBHAEBU?$pair@$$CBHV?$basic_string@DU?$char_traits@D@std@@V?$allocator@D@2@@std@@@1@@Z
	??$_Kfn@$$CBHV?$vector@MV?$allocator@M@std@@@std@@@?$_Tmap_traits@HV?$vector@MV?$allocator@M@std@@@std@@U?$less@H@2@V?$allocator@U?$pair@$$CBHV?$vector@MV?$allocator@M@std@@@std@@@std@@@2@$0A@@std@@SAAEBHAEBU?$pair@$$CBHV?$vector@MV?$allocator@M@std@@@std@@@1@@Z
	??$_Kfn@$$CBII@?$_Umap_traits@IIV?$_Uhash_compare@IU?$hash@I@std@@U?$equal_to@I@2@@std@@V?$allocator@U?$pair@$$CBII@std@@@2@$0A@@std@@SAAEBIAEBU?$pair@$$CBII@1@@Z
	??$_Kfn@$$CBIPEAUggml_backend_buffer@@@?$_Umap_traits@IPEAUggml_backend_buffer@@V?$_Uhash_compare@IU?$hash@I@std@@U?$equal_to@I@2@@std@@V?$allocator@U?$pair@$$CBIPEAUggml_backend_buffer@@@std@@@3@$0A@@std@@SAAEBIAEBU?$pair@$$CBIPEAUggml_backend_buffer@@@1@@Z
	??$_Kfn@$$CBU?$pair@V?$basic_string@DU?$char_traits@D@std@@V?$allocator@D@2@@std@@V12@@std@@H@?$_Tmap_traits@U?$pair@V?$basic_string@DU?$char_traits@D@std@@V?$allocator@D@2@@std@@V12@@std@@HU?$less@U?$pair@V?$basic_string@DU?$char_traits@D@std@@V?$allocator@D@2@@std@@V12@@std@@@2@V?$allocator@U?$pair@$$CBU?$pair@V?$basic_string@DU?$char_traits@D@std@@V?$allocator@D@2@@std@@V12@@std@@H@std@@@2@$0A@@std@@SAAEBU?$pair@V?$basic_string@DU?$char_traits@D@std@@V?$allocator@D@2@@std@@V12@@1@AEBU?$pair@$$CBU?$pair@V?$basic_string@DU?$char_traits@D@std@@V?$allocator@D@2@@std@@V12@@std@@H@1@@Z
	??$_Kfn@$$CBV?$basic_string@DU?$char_traits@D@std@@V?$allocator@D@2@@std@@E@?$_Umap_traits@V?$basic_string@DU?$char_traits@D@std@@V?$allocator@D@2@@std@@EV?$_Uhash_compare@V?$basic_string@DU?$char_traits@D@std@@V?$allocator@D@2@@std@@U?$hash@V?$basic_string@DU?$char_traits@D@std@@V?$allocator@D@2@@std@@@2@U?$equal_to@V?$basic_string@DU?$char_traits@D@std@@V?$allocator@D@2@@std@@@2@@2@V?$allocator@U?$pair@$$CBV?$basic_string@DU?$char_traits@D@std@@V?$allocator@D@2@@std@@E@std@@@2@$0A@@std@@SAAEBV?$basic_string@DU?$char_traits@D@std@@V?$allocator@D@2@@1@AEBU?$pair@$$CBV?$basic_string@DU?$char_traits@D@std@@V?$allocator@D@2@@std@@E@1@@Z
	??$_Kfn@$$CBV?$basic_string@DU?$char_traits@D@std@@V?$allocator@D@2@@std@@H@?$_Tmap_traits@V?$basic_string@DU?$char_traits@D@std@@V?$allocator@D@2@@std@@HU?$less@V?$basic_string@DU?$char_traits@D@std@@V?$allocator@D@2@@std@@@2@V?$allocator@U?$pair@$$CBV?$basic_string@DU?$char_traits@D@std@@V?$allocator@D@2@@std@@H@std@@@2@$0A@@std@@SAAEBV?$basic_string@DU?$char_traits@D@std@@V?$allocator@D@2@@1@AEBU?$pair@$$CBV?$basic_string@DU?$char_traits@D@std@@V?$allocator@D@2@@std@@H@1@@Z
	??$_Kfn@$$CBV?$basic_string@DU?$char_traits@D@std@@V?$allocator@D@2@@std@@H@?$_Umap_traits@V?$basic_string@DU?$char_traits@D@std@@V?$allocator@D@2@@std@@HV?$_Uhash_compare@V?$basic_string@DU?$char_traits@D@std@@V?$allocator@D@2@@std@@U?$hash@V?$basic_string@DU?$char_traits@D@std@@V?$allocator@D@2@@std@@@2@U?$equal_to@V?$basic_string@DU?$char_traits@D@std@@V?$allocator@D@2@@std@@@2@@2@V?$allocator@U?$pair@$$CBV?$basic_string@DU?$char_traits@D@std@@V?$allocator@D@2@@std@@H@std@@@2@$0A@@std@@SAAEBV?$basic_string@DU?$char_traits@D@std@@V?$allocator@D@2@@1@AEBU?$pair@$$CBV?$basic_string@DU?$char_traits@D@std@@V?$allocator@D@2@@std@@H@1@@Z
	??$_Kfn@$$CBV?$basic_string@DU?$char_traits@D@std@@V?$allocator@D@2@@std@@U?$pair@HH@2@@?$_Tmap_traits@V?$basic_string@DU?$char_traits@D@std@@V?$allocator@D@2@@std@@U?$pair@HH@2@U?$less@V?$basic_string@DU?$char_traits@D@std@@V?$allocator@D@2@@std@@@2@V?$allocator@U?$pair@$$CBV?$basic_string@DU?$char_traits@D@std@@V?$allocator@D@2@@std@@U?$pair@HH@2@@std@@@2@$0A@@std@@SAAEBV?$basic_string@DU?$char_traits@D@std@@V?$allocator@D@2@@1@AEBU?$pair@$$CBV?$basic_string@DU?$char_traits@D@std@@V?$allocator@D@2@@std@@U?$pair@HH@2@@1@@Z
	??$_Kfn@$$CBV?$basic_string@DU?$char_traits@D@std@@V?$allocator@D@2@@std@@Ullama_lora_weight@@@?$_Tmap_traits@V?$basic_string@DU?$char_traits@D@std@@V?$allocator@D@2@@std@@Ullama_lora_weight@@U?$less@V?$basic_string@DU?$char_traits@D@std@@V?$allocator@D@2@@std@@@2@V?$allocator@U?$pair@$$CBV?$basic_string@DU?$char_traits@D@std@@V?$allocator@D@2@@std@@Ullama_lora_weight@@@std@@@2@$0A@@std@@SAAEBV?$basic_string@DU?$char_traits@D@std@@V?$allocator@D@2@@1@AEBU?$pair@$$CBV?$basic_string@DU?$char_traits@D@std@@V?$allocator@D@2@@std@@Ullama_lora_weight@@@1@@Z
	??$_Kfn@$$CBV?$basic_string@DU?$char_traits@D@std@@V?$allocator@D@2@@std@@Ullama_lora_weight@@@?$_Umap_traits@V?$basic_string@DU?$char_traits@D@std@@V?$allocator@D@2@@std@@Ullama_lora_weight@@V?$_Uhash_compare@V?$basic_string@DU?$char_traits@D@std@@V?$allocator@D@2@@std@@U?$hash@V?$basic_string@DU?$char_traits@D@std@@V?$allocator@D@2@@std@@@2@U?$equal_to@V?$basic_string@DU?$char_traits@D@std@@V?$allocator@D@2@@std@@@2@@2@V?$allocator@U?$pair@$$CBV?$basic_string@DU?$char_traits@D@std@@V?$allocator@D@2@@std@@Ullama_lora_weight@@@std@@@2@$0A@@std@@SAAEBV?$basic_string@DU?$char_traits@D@std@@V?$allocator@D@2@@1@AEBU?$pair@$$CBV?$basic_string@DU?$char_traits@D@std@@V?$allocator@D@2@@std@@Ullama_lora_weight@@@1@@Z
	??$_Kfn@$$CBV?$basic_string@DU?$char_traits@D@std@@V?$allocator@D@2@@std@@Ullama_model_kv_override@@@?$_Umap_traits@V?$basic_string@DU?$char_traits@D@std@@V?$allocator@D@2@@std@@Ullama_model_kv_override@@V?$_Uhash_compare@V?$basic_string@DU?$char_traits@D@std@@V?$allocator@D@2@@std@@U?$hash@V?$basic_string@DU?$char_traits@D@std@@V?$allocator@D@2@@std@@@2@U?$equal_to@V?$basic_string@DU?$char_traits@D@std@@V?$allocator@D@2@@std@@@2@@2@V?$allocator@U?$pair@$$CBV?$basic_string@DU?$char_traits@D@std@@V?$allocator@D@2@@std@@Ullama_model_kv_override@@@std@@@2@$0A@@std@@SAAEBV?$basic_string@DU?$char_traits@D@std@@V?$allocator@D@2@@1@AEBU?$pair@$$CBV?$basic_string@DU?$char_traits@D@std@@V?$allocator@D@2@@std@@Ullama_model_kv_override@@@1@@Z
	??$_Kfn@$$CBV?$basic_string@DU?$char_traits@D@std@@V?$allocator@D@2@@std@@V12@@?$_Umap_traits@V?$basic_string@DU?$char_traits@D@std@@V?$allocator@D@2@@std@@V12@V?$_Uhash_compare@V?$basic_string@DU?$char_traits@D@std@@V?$allocator@D@2@@std@@U?$hash@V?$basic_string@DU?$char_traits@D@std@@V?$allocator@D@2@@std@@@2@U?$equal_to@V?$basic_string@DU?$char_traits@D@std@@V?$allocator@D@2@@std@@@2@@2@V?$allocator@U?$pair@$$CBV?$basic_string@DU?$char_traits@D@std@@V?$allocator@D@2@@std@@V12@@std@@@2@$0A@@std@@SAAEBV?$basic_string@DU?$char_traits@D@std@@V?$allocator@D@2@@1@AEBU?$pair@$$CBV?$basic_string@DU?$char_traits@D@std@@V?$allocator@D@2@@std@@V12@@1@@Z
	??$_Kfn@$$CBV?$basic_string@DU?$char_traits@D@std@@V?$allocator@D@2@@std@@V?$vector@MV?$allocator@M@std@@@2@@?$_Umap_traits@V?$basic_string@DU?$char_traits@D@std@@V?$allocator@D@2@@std@@V?$vector@MV?$allocator@M@std@@@2@V?$_Uhash_compare@V?$basic_string@DU?$char_traits@D@std@@V?$allocator@D@2@@std@@U?$hash@V?$basic_string@DU?$char_traits@D@std@@V?$allocator@D@2@@std@@@2@U?$equal_to@V?$basic_string@DU?$char_traits@D@std@@V?$allocator@D@2@@std@@@2@@2@V?$allocator@U?$pair@$$CBV?$basic_string@DU?$char_traits@D@std@@V?$allocator@D@2@@std@@V?$vector@MV?$allocator@M@std@@@2@@std@@@2@$0A@@std@@SAAEBV?$basic_string@DU?$char_traits@D@std@@V?$allocator@D@2@@1@AEBU?$pair@$$CBV?$basic_string@DU?$char_traits@D@std@@V?$allocator@D@2@@std@@V?$vector@MV?$allocator@M@std@@@2@@1@@Z
	??$_Kfn@$$CBW4ggml_type@@I@?$_Tmap_traits@W4ggml_type@@IU?$less@W4ggml_type@@@std@@V?$allocator@U?$pair@$$CBW4ggml_type@@I@std@@@3@$0A@@std@@SAAEBW4ggml_type@@AEBU?$pair@$$CBW4ggml_type@@I@1@@Z
	??$_Kfn@$$CBW4llama_rope_scaling_type@@PEBD@?$_Tmap_traits@W4llama_rope_scaling_type@@PEBDU?$less@W4llama_rope_scaling_type@@@std@@V?$allocator@U?$pair@$$CBW4llama_rope_scaling_type@@PEBD@std@@@3@$0A@@std@@SAAEBW4llama_rope_scaling_type@@AEBU?$pair@$$CBW4llama_rope_scaling_type@@PEBD@1@@Z
	??$_Kfn@$$CBW4llm_arch@@PEBD@?$_Tmap_traits@W4llm_arch@@PEBDU?$less@W4llm_arch@@@std@@V?$allocator@U?$pair@$$CBW4llm_arch@@PEBD@std@@@3@$0A@@std@@SAAEBW4llm_arch@@AEBU?$pair@$$CBW4llm_arch@@PEBD@1@@Z
	??$_Kfn@$$CBW4llm_arch@@V?$map@W4llm_tensor@@V?$basic_string@DU?$char_traits@D@std@@V?$allocator@D@2@@std@@U?$less@W4llm_tensor@@@3@V?$allocator@U?$pair@$$CBW4llm_tensor@@V?$basic_string@DU?$char_traits@D@std@@V?$allocator@D@2@@std@@@std@@@3@@std@@@?$_Tmap_traits@W4llm_arch@@V?$map@W4llm_tensor@@V?$basic_string@DU?$char_traits@D@std@@V?$allocator@D@2@@std@@U?$less@W4llm_tensor@@@3@V?$allocator@U?$pair@$$CBW4llm_tensor@@V?$basic_string@DU?$char_traits@D@std@@V?$allocator@D@2@@std@@@std@@@3@@std@@U?$less@W4llm_arch@@@3@V?$allocator@U?$pair@$$CBW4llm_arch@@V?$map@W4llm_tensor@@V?$basic_string@DU?$char_traits@D@std@@V?$allocator@D@2@@std@@U?$less@W4llm_tensor@@@3@V?$allocator@U?$pair@$$CBW4llm_tensor@@V?$basic_string@DU?$char_traits@D@std@@V?$allocator@D@2@@std@@@std@@@3@@std@@@std@@@3@$0A@@std@@SAAEBW4llm_arch@@AEBU?$pair@$$CBW4llm_arch@@V?$map@W4llm_tensor@@V?$basic_string@DU?$char_traits@D@std@@V?$allocator@D@2@@std@@U?$less@W4llm_tensor@@@3@V?$allocator@U?$pair@$$CBW4llm_tensor@@V?$basic_string@DU?$char_traits@D@std@@V?$allocator@D@2@@std@@@std@@@3@@std@@@1@@Z
	??$_Kfn@$$CBW4llm_kv@@PEBD@?$_Tmap_traits@W4llm_kv@@PEBDU?$less@W4llm_kv@@@std@@V?$allocator@U?$pair@$$CBW4llm_kv@@PEBD@std@@@3@$0A@@std@@SAAEBW4llm_kv@@AEBU?$pair@$$CBW4llm_kv@@PEBD@1@@Z
	??$_Kfn@$$CBW4llm_tensor@@V?$basic_string@DU?$char_traits@D@std@@V?$allocator@D@2@@std@@@?$_Tmap_traits@W4llm_tensor@@V?$basic_string@DU?$char_traits@D@std@@V?$allocator@D@2@@std@@U?$less@W4llm_tensor@@@3@V?$allocator@U?$pair@$$CBW4llm_tensor@@V?$basic_string@DU?$char_traits@D@std@@V?$allocator@D@2@@std@@@std@@@3@$0A@@std@@SAAEBW4llm_tensor@@AEBU?$pair@$$CBW4llm_tensor@@V?$basic_string@DU?$char_traits@D@std@@V?$allocator@D@2@@std@@@1@@Z
	??$_Kfn@QEAUggml_backend_buffer_type@@H@?$_Tmap_traits@PEAUggml_backend_buffer_type@@HU?$less@PEAUggml_backend_buffer_type@@@std@@V?$allocator@U?$pair@QEAUggml_backend_buffer_type@@H@std@@@3@$0A@@std@@SAAEBQEAUggml_backend_buffer_type@@AEBU?$pair@QEAUggml_backend_buffer_type@@H@1@@Z
	??$_Kfn@QEAUggml_backend_buffer_type@@PEAUggml_context@@@?$_Tmap_traits@PEAUggml_backend_buffer_type@@PEAUggml_context@@U?$less@PEAUggml_backend_buffer_type@@@std@@V?$allocator@U?$pair@QEAUggml_backend_buffer_type@@PEAUggml_context@@@std@@@4@$0A@@std@@SAAEBQEAUggml_backend_buffer_type@@AEBU?$pair@QEAUggml_backend_buffer_type@@PEAUggml_context@@@1@@Z
	??$_Kfn@QEAUllama_lora_adapter@@M@?$_Umap_traits@PEAUllama_lora_adapter@@MV?$_Uhash_compare@PEAUllama_lora_adapter@@U?$hash@PEAUllama_lora_adapter@@@std@@U?$equal_to@PEAUllama_lora_adapter@@@3@@std@@V?$allocator@U?$pair@QEAUllama_lora_adapter@@M@std@@@3@$0A@@std@@SAAEBQEAUllama_lora_adapter@@AEBU?$pair@QEAUllama_lora_adapter@@M@1@@Z
	??$_LStrcoll@D@std@@YAHPEBD000PEBU_Collvec@@@Z
	??$_LStrcoll@_W@std@@YAHPEB_W000PEBU_Collvec@@@Z
	??$_LStrxfrm@D@std@@YA_KPEAD0PEBD1PEBU_Collvec@@@Z
	??$_LStrxfrm@_W@std@@YA_KPEA_W0PEB_W1PEBU_Collvec@@@Z
	??$_LogWorkItemAndInvokeUserLambda@V?$function@$$A6AEXZ@std@@@?$_InitialTaskHandle@XV<lambda_61d324d6c6ae299623b0a01e4b2f6764>@@U_TypeSelectorNoAsync@details@Concurrency@@@?$task@E@Concurrency@@QEBAEV?$function@$$A6AEXZ@std@@@Z
	??$_LogWorkItemAndInvokeUserLambda@V?$function@$$A6AEXZ@std@@@?$_InitialTaskHandle@XV<lambda_f7036c9a115536b365ca4544394c825b>@@U_TypeSelectorNoAsync@details@Concurrency@@@?$task@E@Concurrency@@QEBAEV?$function@$$A6AEXZ@std@@@Z
	??$_Lookup_coll@PEBDD@std@@YAPEBDPEBD0PEBU?$_Sequence@D@0@@Z
	??$_Lookup_coll@PEB_W_W@std@@YAPEB_WPEB_W0PEBU?$_Sequence@_W@0@@Z
	??$_Lookup_equiv@DV?$regex_traits@D@std@@@std@@YA_NEPEBU?$_Sequence@D@0@AEBV?$regex_traits@D@0@@Z
	??$_Lookup_equiv@_WV?$regex_traits@_W@std@@@std@@YA_NGPEBU?$_Sequence@_W@0@AEBV?$regex_traits@_W@0@@Z
	??$_Lookup_range@D@std@@YA_NIPEBU?$_Buf@D@0@@Z
	??$_Lookup_range@_W@std@@YA_NIPEBU?$_Buf@_W@0@@Z
	??$_Lower_bound_duplicate@D@?$_Tree@V?$_Tmap_traits@DUnaive_trie@@U?$less@D@std@@V?$allocator@U?$pair@$$CBDUnaive_trie@@@std@@@3@$0A@@std@@@std@@IEBA_NQEAU?$_Tree_node@U?$pair@$$CBDUnaive_trie@@@std@@PEAX@1@AEBD@Z
	??$_Lower_bound_duplicate@H@?$_Tree@V?$_Tmap_traits@HHU?$less@H@std@@V?$allocator@U?$pair@$$CBHH@std@@@2@$0A@@std@@@std@@IEBA_NQEAU?$_Tree_node@U?$pair@$$CBHH@std@@PEAX@1@AEBH@Z
	??$_Lower_bound_duplicate@H@?$_Tree@V?$_Tmap_traits@HV?$basic_string@DU?$char_traits@D@std@@V?$allocator@D@2@@std@@U?$less@H@2@V?$allocator@U?$pair@$$CBHV?$basic_string@DU?$char_traits@D@std@@V?$allocator@D@2@@std@@@std@@@2@$0A@@std@@@std@@IEBA_NQEAU?$_Tree_node@U?$pair@$$CBHV?$basic_string@DU?$char_traits@D@std@@V?$allocator@D@2@@std@@@std@@PEAX@1@AEBH@Z
	??$_Lower_bound_duplicate@H@?$_Tree@V?$_Tmap_traits@HV?$vector@MV?$allocator@M@std@@@std@@U?$less@H@2@V?$allocator@U?$pair@$$CBHV?$vector@MV?$allocator@M@std@@@std@@@std@@@2@$0A@@std@@@std@@IEBA_NQEAU?$_Tree_node@U?$pair@$$CBHV?$vector@MV?$allocator@M@std@@@std@@@std@@PEAX@1@AEBH@Z
	??$_Lower_bound_duplicate@H@?$_Tree@V?$_Tset_traits@HU?$less@H@std@@V?$allocator@H@2@$0A@@std@@@std@@IEBA_NQEAU?$_Tree_node@HPEAX@1@AEBH@Z
	??$_Lower_bound_duplicate@PEAUggml_backend_buffer_type@@@?$_Tree@V?$_Tmap_traits@PEAUggml_backend_buffer_type@@HU?$less@PEAUggml_backend_buffer_type@@@std@@V?$allocator@U?$pair@QEAUggml_backend_buffer_type@@H@std@@@3@$0A@@std@@@std@@IEBA_NQEAU?$_Tree_node@U?$pair@QEAUggml_backend_buffer_type@@H@std@@PEAX@1@AEBQEAUggml_backend_buffer_type@@@Z
	??$_Lower_bound_duplicate@PEAUggml_backend_buffer_type@@@?$_Tree@V?$_Tmap_traits@PEAUggml_backend_buffer_type@@PEAUggml_context@@U?$less@PEAUggml_backend_buffer_type@@@std@@V?$allocator@U?$pair@QEAUggml_backend_buffer_type@@PEAUggml_context@@@std@@@4@$0A@@std@@@std@@IEBA_NQEAU?$_Tree_node@U?$pair@QEAUggml_backend_buffer_type@@PEAUggml_context@@@std@@PEAX@1@AEBQEAUggml_backend_buffer_type@@@Z
	??$_Lower_bound_duplicate@PEAUllama_lora_adapter@@@?$_Tree@V?$_Tset_traits@PEAUllama_lora_adapter@@U?$less@PEAUllama_lora_adapter@@@std@@V?$allocator@PEAUllama_lora_adapter@@@3@$0A@@std@@@std@@IEBA_NQEAU?$_Tree_node@PEAUllama_lora_adapter@@PEAX@1@AEBQEAUllama_lora_adapter@@@Z
	??$_Lower_bound_duplicate@U?$pair@V?$basic_string@DU?$char_traits@D@std@@V?$allocator@D@2@@std@@V12@@std@@@?$_Tree@V?$_Tmap_traits@U?$pair@V?$basic_string@DU?$char_traits@D@std@@V?$allocator@D@2@@std@@V12@@std@@HU?$less@U?$pair@V?$basic_string@DU?$char_traits@D@std@@V?$allocator@D@2@@std@@V12@@std@@@2@V?$allocator@U?$pair@$$CBU?$pair@V?$basic_string@DU?$char_traits@D@std@@V?$allocator@D@2@@std@@V12@@std@@H@std@@@2@$0A@@std@@@std@@IEBA_NQEAU?$_Tree_node@U?$pair@$$CBU?$pair@V?$basic_string@DU?$char_traits@D@std@@V?$allocator@D@2@@std@@V12@@std@@H@std@@PEAX@1@AEBU?$pair@V?$basic_string@DU?$char_traits@D@std@@V?$allocator@D@2@@std@@V12@@1@@Z
	??$_Lower_bound_duplicate@V?$basic_string@DU?$char_traits@D@std@@V?$allocator@D@2@@std@@@?$_Tree@V?$_Tmap_traits@V?$basic_string@DU?$char_traits@D@std@@V?$allocator@D@2@@std@@HU?$less@V?$basic_string@DU?$char_traits@D@std@@V?$allocator@D@2@@std@@@2@V?$allocator@U?$pair@$$CBV?$basic_string@DU?$char_traits@D@std@@V?$allocator@D@2@@std@@H@std@@@2@$0A@@std@@@std@@IEBA_NQEAU?$_Tree_node@U?$pair@$$CBV?$basic_string@DU?$char_traits@D@std@@V?$allocator@D@2@@std@@H@std@@PEAX@1@AEBV?$basic_string@DU?$char_traits@D@std@@V?$allocator@D@2@@1@@Z
	??$_Lower_bound_duplicate@V?$basic_string@DU?$char_traits@D@std@@V?$allocator@D@2@@std@@@?$_Tree@V?$_Tmap_traits@V?$basic_string@DU?$char_traits@D@std@@V?$allocator@D@2@@std@@U?$pair@HH@2@U?$less@V?$basic_string@DU?$char_traits@D@std@@V?$allocator@D@2@@std@@@2@V?$allocator@U?$pair@$$CBV?$basic_string@DU?$char_traits@D@std@@V?$allocator@D@2@@std@@U?$pair@HH@2@@std@@@2@$0A@@std@@@std@@IEBA_NQEAU?$_Tree_node@U?$pair@$$CBV?$basic_string@DU?$char_traits@D@std@@V?$allocator@D@2@@std@@U?$pair@HH@2@@std@@PEAX@1@AEBV?$basic_string@DU?$char_traits@D@std@@V?$allocator@D@2@@1@@Z
	??$_Lower_bound_duplicate@V?$basic_string@DU?$char_traits@D@std@@V?$allocator@D@2@@std@@@?$_Tree@V?$_Tmap_traits@V?$basic_string@DU?$char_traits@D@std@@V?$allocator@D@2@@std@@Ullama_lora_weight@@U?$less@V?$basic_string@DU?$char_traits@D@std@@V?$allocator@D@2@@std@@@2@V?$allocator@U?$pair@$$CBV?$basic_string@DU?$char_traits@D@std@@V?$allocator@D@2@@std@@Ullama_lora_weight@@@std@@@2@$0A@@std@@@std@@IEBA_NQEAU?$_Tree_node@U?$pair@$$CBV?$basic_string@DU?$char_traits@D@std@@V?$allocator@D@2@@std@@Ullama_lora_weight@@@std@@PEAX@1@AEBV?$basic_string@DU?$char_traits@D@std@@V?$allocator@D@2@@1@@Z
	??$_Lower_bound_duplicate@V?$basic_string@DU?$char_traits@D@std@@V?$allocator@D@2@@std@@@?$_Tree@V?$_Tset_traits@V?$basic_string@DU?$char_traits@D@std@@V?$allocator@D@2@@std@@U?$less@V?$basic_string@DU?$char_traits@D@std@@V?$allocator@D@2@@std@@@2@V?$allocator@V?$basic_string@DU?$char_traits@D@std@@V?$allocator@D@2@@std@@@2@$0A@@std@@@std@@IEBA_NQEAU?$_Tree_node@V?$basic_string@DU?$char_traits@D@std@@V?$allocator@D@2@@std@@PEAX@1@AEBV?$basic_string@DU?$char_traits@D@std@@V?$allocator@D@2@@1@@Z
	??$_Lower_bound_duplicate@W4ggml_type@@@?$_Tree@V?$_Tmap_traits@W4ggml_type@@IU?$less@W4ggml_type@@@std@@V?$allocator@U?$pair@$$CBW4ggml_type@@I@std@@@3@$0A@@std@@@std@@IEBA_NQEAU?$_Tree_node@U?$pair@$$CBW4ggml_type@@I@std@@PEAX@1@AEBW4ggml_type@@@Z
	??$_Lower_bound_duplicate@W4llama_rope_scaling_type@@@?$_Tree@V?$_Tmap_traits@W4llama_rope_scaling_type@@PEBDU?$less@W4llama_rope_scaling_type@@@std@@V?$allocator@U?$pair@$$CBW4llama_rope_scaling_type@@PEBD@std@@@3@$0A@@std@@@std@@IEBA_NQEAU?$_Tree_node@U?$pair@$$CBW4llama_rope_scaling_type@@PEBD@std@@PEAX@1@AEBW4llama_rope_scaling_type@@@Z
	??$_Lower_bound_duplicate@W4llm_arch@@@?$_Tree@V?$_Tmap_traits@W4llm_arch@@PEBDU?$less@W4llm_arch@@@std@@V?$allocator@U?$pair@$$CBW4llm_arch@@PEBD@std@@@3@$0A@@std@@@std@@IEBA_NQEAU?$_Tree_node@U?$pair@$$CBW4llm_arch@@PEBD@std@@PEAX@1@AEBW4llm_arch@@@Z
	??$_Lower_bound_duplicate@W4llm_arch@@@?$_Tree@V?$_Tmap_traits@W4llm_arch@@V?$map@W4llm_tensor@@V?$basic_string@DU?$char_traits@D@std@@V?$allocator@D@2@@std@@U?$less@W4llm_tensor@@@3@V?$allocator@U?$pair@$$CBW4llm_tensor@@V?$basic_string@DU?$char_traits@D@std@@V?$allocator@D@2@@std@@@std@@@3@@std@@U?$less@W4llm_arch@@@3@V?$allocator@U?$pair@$$CBW4llm_arch@@V?$map@W4llm_tensor@@V?$basic_string@DU?$char_traits@D@std@@V?$allocator@D@2@@std@@U?$less@W4llm_tensor@@@3@V?$allocator@U?$pair@$$CBW4llm_tensor@@V?$basic_string@DU?$char_traits@D@std@@V?$allocator@D@2@@std@@@std@@@3@@std@@@std@@@3@$0A@@std@@@std@@IEBA_NQEAU?$_Tree_node@U?$pair@$$CBW4llm_arch@@V?$map@W4llm_tensor@@V?$basic_string@DU?$char_traits@D@std@@V?$allocator@D@2@@std@@U?$less@W4llm_tensor@@@3@V?$allocator@U?$pair@$$CBW4llm_tensor@@V?$basic_string@DU?$char_traits@D@std@@V?$allocator@D@2@@std@@@std@@@3@@std@@@std@@PEAX@1@AEBW4llm_arch@@@Z
	??$_Lower_bound_duplicate@W4llm_kv@@@?$_Tree@V?$_Tmap_traits@W4llm_kv@@PEBDU?$less@W4llm_kv@@@std@@V?$allocator@U?$pair@$$CBW4llm_kv@@PEBD@std@@@3@$0A@@std@@@std@@IEBA_NQEAU?$_Tree_node@U?$pair@$$CBW4llm_kv@@PEBD@std@@PEAX@1@AEBW4llm_kv@@@Z
	??$_Lower_bound_duplicate@W4llm_tensor@@@?$_Tree@V?$_Tmap_traits@W4llm_tensor@@V?$basic_string@DU?$char_traits@D@std@@V?$allocator@D@2@@std@@U?$less@W4llm_tensor@@@3@V?$allocator@U?$pair@$$CBW4llm_tensor@@V?$basic_string@DU?$char_traits@D@std@@V?$allocator@D@2@@std@@@std@@@3@$0A@@std@@@std@@IEBA_NQEAU?$_Tree_node@U?$pair@$$CBW4llm_tensor@@V?$basic_string@DU?$char_traits@D@std@@V?$allocator@D@2@@std@@@std@@PEAX@1@AEBW4llm_tensor@@@Z
	??$_Make_heap_unchecked@PEAUllama_sbatch_seq@@V<lambda_313471036486df38593e8d47e8fa7539>@@@std@@YAXPEAUllama_sbatch_seq@@0V<lambda_313471036486df38593e8d47e8fa7539>@@@Z
	??$_Make_heap_unchecked@PEA_KV<lambda_dbe0312d54f1cfd9e2926868c057ca79>@@@std@@YAXPEA_K0V<lambda_dbe0312d54f1cfd9e2926868c057ca79>@@@Z
	??$_Maklocstr@D@std@@YAPEADPEBDPEADAEBU_Cvtvec@@@Z
	??$_Maklocstr@_W@std@@YAPEA_WPEBDPEA_WAEBU_Cvtvec@@@Z
	??$_Mark@E@_Bitmap@std@@QEAAXE@Z
	??$_Mark@G@_Bitmap@std@@QEAAXG@Z
	??$_Mark@I@_Bitmap@std@@QEAAXI@Z
	??$_Match@V?$allocator@V?$sub_match@PEBD@std@@@std@@@?$_Matcher@PEBDDV?$regex_traits@D@std@@PEBD@std@@QEAA_NPEAV?$match_results@PEBDV?$allocator@V?$sub_match@PEBD@std@@@std@@@1@_N@Z
	??$_Match@V?$allocator@V?$sub_match@PEBD@std@@@std@@@?$_Matcher@PEBDDV?$regex_traits@D@std@@PEBD@std@@QEAA_NPEBDPEAV?$match_results@PEBDV?$allocator@V?$sub_match@PEBD@std@@@std@@@1@_N@Z
	??$_Match@V?$allocator@V?$sub_match@PEB_W@std@@@std@@@?$_Matcher@PEB_W_WV?$regex_traits@_W@std@@PEB_W@std@@QEAA_NPEAV?$match_results@PEB_WV?$allocator@V?$sub_match@PEB_W@std@@@std@@@1@_N@Z
	??$_Match@V?$allocator@V?$sub_match@PEB_W@std@@@std@@@?$_Matcher@PEB_W_WV?$regex_traits@_W@std@@PEB_W@std@@QEAA_NPEB_WPEAV?$match_results@PEB_WV?$allocator@V?$sub_match@PEB_W@std@@@std@@@1@_N@Z
	??$_Max_element_unchecked@PEAMU?$less@X@std@@@std@@YAPEAMPEAM0U?$less@X@0@@Z
	??$_Max_element_vectorized@M@std@@YAPEAMQEAM0@Z
	??$_Max_limit@D@std@@YADXZ
	??$_Max_limit@E@std@@YAEXZ
	??$_Max_limit@G@std@@YAGXZ
	??$_Max_limit@_J@std@@YA_JXZ
	??$_Max_limit@_W@std@@YA_WXZ
	??$_Med3_unchecked@PEAUllama_sbatch_seq@@V<lambda_313471036486df38593e8d47e8fa7539>@@@std@@YAXPEAUllama_sbatch_seq@@00V<lambda_313471036486df38593e8d47e8fa7539>@@@Z
	??$_Med3_unchecked@PEA_KV<lambda_dbe0312d54f1cfd9e2926868c057ca79>@@@std@@YAXPEA_K00V<lambda_dbe0312d54f1cfd9e2926868c057ca79>@@@Z
	??$_Memcmp_ranges@PEBDPEBD@std@@YAHPEBD00@Z
	??$_Memcmp_ranges@PEBQEBUllama_grammar_element@@PEBQEBU1@@std@@YAHPEBQEBUllama_grammar_element@@00@Z
	??$_Memcmp_ranges@PEB_WPEB_W@std@@YAHPEB_W00@Z
	??$_Move_backward_unchecked@PEAHPEAH@std@@YAPEAHPEAH00@Z
	??$_Move_backward_unchecked@PEAUllama_sbatch_seq@@PEAU1@@std@@YAPEAUllama_sbatch_seq@@PEAU1@00@Z
	??$_Move_backward_unchecked@PEAUllama_token_data@@PEAU1@@std@@YAPEAUllama_token_data@@PEAU1@00@Z
	??$_Move_backward_unchecked@PEA_KPEA_K@std@@YAPEA_KPEA_K00@Z
	??$_Move_construct_from@U?$_Task_impl@E@details@Concurrency@@@?$_Ptr_base@U?$_Task_impl@E@details@Concurrency@@@std@@IEAAX$$QEAV01@@Z
	??$_Move_construct_from@U_ExceptionHolder@details@Concurrency@@@?$_Ptr_base@U_ExceptionHolder@details@Concurrency@@@std@@IEAAX$$QEAV01@@Z
	??$_Move_construct_from@U_Task_impl_base@details@Concurrency@@@?$_Ptr_base@U_Task_impl_base@details@Concurrency@@@std@@IEAAX$$QEAV01@@Z
	??$_Move_construct_from@Uscheduler_interface@Concurrency@@@?$_Ptr_base@Uscheduler_interface@Concurrency@@@std@@IEAAX$$QEAV01@@Z
	??$_Move_unchecked@PEAIPEAI@std@@YAPEAIPEAI00@Z
	??$_Next_iter@PEAH@std@@YAPEAHPEAH@Z
	??$_Next_iter@PEAM@std@@YAPEAMPEAM@Z
	??$_Next_iter@PEAUllama_sbatch_seq@@@std@@YAPEAUllama_sbatch_seq@@PEAU1@@Z
	??$_Next_iter@PEAUllama_token_data@@@std@@YAPEAUllama_token_data@@PEAU1@@Z
	??$_Next_iter@PEA_K@std@@YAPEA_KPEA_K@Z
	??$_Next_iter@PEBN@std@@YAPEBNPEBN@Z
	??$_Next_iter@PEBUrange_nfd@@@std@@YAPEBUrange_nfd@@PEBU1@@Z
	??$_Nrand_impl@NV?$mersenne_twister_engine@I$0CA@$0CHA@$0BIN@$0BP@$0JJAILANP@$0L@$0PPPPPPPP@$06$0JNCMFGIA@$0P@$0OPMGAAAA@$0BC@$0GMAHIJGF@@std@@@std@@YANAEAV?$mersenne_twister_engine@I$0CA@$0CHA@$0BIN@$0BP@$0JJAILANP@$0L@$0PPPPPPPP@$06$0JNCMFGIA@$0P@$0OPMGAAAA@$0BC@$0GMAHIJGF@@0@@Z
	??$_Partition_by_median_guess_unchecked@PEAUllama_sbatch_seq@@V<lambda_313471036486df38593e8d47e8fa7539>@@@std@@YA?AU?$pair@PEAUllama_sbatch_seq@@PEAU1@@0@PEAUllama_sbatch_seq@@0V<lambda_313471036486df38593e8d47e8fa7539>@@@Z
	??$_Partition_by_median_guess_unchecked@PEA_KV<lambda_dbe0312d54f1cfd9e2926868c057ca79>@@@std@@YA?AU?$pair@PEA_KPEA_K@0@PEA_K0V<lambda_dbe0312d54f1cfd9e2926868c057ca79>@@@Z
	??$_Pass_fn@U?$_Char_traits_eq@U?$char_traits@D@std@@@std@@@std@@YA?A_PAEAU?$_Char_traits_eq@U?$char_traits@D@std@@@0@@Z
	??$_Pass_fn@U?$_Char_traits_eq@U?$char_traits@_W@std@@@std@@@std@@YA?A_PAEAU?$_Char_traits_eq@U?$char_traits@_W@std@@@0@@Z
	??$_Pass_fn@U?$_Cmp_icase@V?$_Regex_traits@D@std@@@std@@@std@@YA?A_PAEAU?$_Cmp_icase@V?$_Regex_traits@D@std@@@0@@Z
	??$_Pass_fn@U?$_Cmp_icase@V?$_Regex_traits@_W@std@@@std@@@std@@YA?A_PAEAU?$_Cmp_icase@V?$_Regex_traits@_W@std@@@0@@Z
	??$_Pass_fn@U?$less@X@std@@@std@@YA?A_PAEAU?$less@X@0@@Z
	??$_Pass_fn@Ucomparator@llm_bigram_bpe@@@std@@YA?A_PAEAUcomparator@llm_bigram_bpe@@@Z
	??$_Pass_fn@Ucomparator@llm_bigram_spm@@@std@@YA?A_PAEAUcomparator@llm_bigram_spm@@@Z
	??$_Pass_fn@V<lambda_313471036486df38593e8d47e8fa7539>@@@std@@YA?A_PAEAV<lambda_313471036486df38593e8d47e8fa7539>@@@Z
	??$_Pass_fn@V<lambda_dbe0312d54f1cfd9e2926868c057ca79>@@@std@@YA?A_PAEAV<lambda_dbe0312d54f1cfd9e2926868c057ca79>@@@Z
	??$_Pocca@V?$allocator@D@std@@@std@@YAXAEAV?$allocator@D@0@AEBV10@@Z
	??$_Pocca@V?$allocator@I@std@@@std@@YAXAEAV?$allocator@I@0@AEBV10@@Z
	??$_Pocca@V?$allocator@PEAX@std@@@std@@YAXAEAV?$allocator@PEAX@0@AEBV10@@Z
	??$_Pocca@V?$allocator@PEBUllama_grammar_element@@@std@@@std@@YAXAEAV?$allocator@PEBUllama_grammar_element@@@0@AEBV10@@Z
	??$_Pocca@V?$allocator@U?$_Tree_node@HPEAX@std@@@std@@@std@@YAXAEAV?$allocator@U?$_Tree_node@HPEAX@std@@@0@AEBV10@@Z
	??$_Pocca@V?$allocator@U_Grp_t@?$_Tgt_state_t@PEBD@std@@@std@@@std@@YAXAEAV?$allocator@U_Grp_t@?$_Tgt_state_t@PEBD@std@@@0@AEBV10@@Z
	??$_Pocca@V?$allocator@U_Grp_t@?$_Tgt_state_t@PEB_W@std@@@std@@@std@@YAXAEAV?$allocator@U_Grp_t@?$_Tgt_state_t@PEB_W@std@@@0@AEBV10@@Z
	??$_Pocca@V?$allocator@Ullm_symbol@@@std@@@std@@YAXAEAV?$allocator@Ullm_symbol@@@0@AEBV10@@Z
	??$_Pocca@V?$allocator@V?$vector@PEBUllama_grammar_element@@V?$allocator@PEBUllama_grammar_element@@@std@@@std@@@std@@@std@@YAXAEAV?$allocator@V?$vector@PEBUllama_grammar_element@@V?$allocator@PEBUllama_grammar_element@@@std@@@std@@@0@AEBV10@@Z
	??$_Pocma@V?$allocator@D@std@@@std@@YAXAEAV?$allocator@D@0@0@Z
	??$_Pocma@V?$allocator@U?$_Tree_node@HPEAX@std@@@std@@@std@@YAXAEAV?$allocator@U?$_Tree_node@HPEAX@std@@@0@0@Z
	??$_Pocma@V?$allocator@Ullama_grammar_candidate@@@std@@@std@@YAXAEAV?$allocator@Ullama_grammar_candidate@@@0@0@Z
	??$_Pocma@V?$allocator@Ullm_bigram_bpe@@@std@@@std@@YAXAEAV?$allocator@Ullm_bigram_bpe@@@0@0@Z
	??$_Pocma@V?$allocator@_K@std@@@std@@YAXAEAV?$allocator@_K@0@0@Z
	??$_Pocma@V?$allocator@_W@std@@@std@@YAXAEAV?$allocator@_W@0@0@Z
	??$_Pocs@V?$allocator@U?$_Tree_node@HPEAX@std@@@std@@@std@@YAXAEAV?$allocator@U?$_Tree_node@HPEAX@std@@@0@0@Z
	??$_Pocs@V?$allocator@V?$basic_string@DU?$char_traits@D@std@@V?$allocator@D@2@@std@@@std@@@std@@YAXAEAV?$allocator@V?$basic_string@DU?$char_traits@D@std@@V?$allocator@D@2@@std@@@0@0@Z
	??$_Pop_heap_hole_by_index@PEAUllama_sbatch_seq@@U1@V<lambda_313471036486df38593e8d47e8fa7539>@@@std@@YAXPEAUllama_sbatch_seq@@_J1$$QEAU1@V<lambda_313471036486df38593e8d47e8fa7539>@@@Z
	??$_Pop_heap_hole_by_index@PEAUllm_bigram_bpe@@U1@Ucomparator@1@@std@@YAXPEAUllm_bigram_bpe@@_J1$$QEAU1@Ucomparator@1@@Z
	??$_Pop_heap_hole_by_index@PEAUllm_bigram_spm@@U1@Ucomparator@1@@std@@YAXPEAUllm_bigram_spm@@_J1$$QEAU1@Ucomparator@1@@Z
	??$_Pop_heap_hole_by_index@PEA_K_KV<lambda_dbe0312d54f1cfd9e2926868c057ca79>@@@std@@YAXPEA_K_J1$$QEA_KV<lambda_dbe0312d54f1cfd9e2926868c057ca79>@@@Z
	??$_Pop_heap_hole_unchecked@PEAUllama_sbatch_seq@@U1@V<lambda_313471036486df38593e8d47e8fa7539>@@@std@@YAXPEAUllama_sbatch_seq@@00$$QEAU1@V<lambda_313471036486df38593e8d47e8fa7539>@@@Z
	??$_Pop_heap_hole_unchecked@PEAUllm_bigram_bpe@@U1@Ucomparator@1@@std@@YAXPEAUllm_bigram_bpe@@00$$QEAU1@Ucomparator@1@@Z
	??$_Pop_heap_hole_unchecked@PEAUllm_bigram_spm@@U1@Ucomparator@1@@std@@YAXPEAUllm_bigram_spm@@00$$QEAU1@Ucomparator@1@@Z
	??$_Pop_heap_hole_unchecked@PEA_K_KV<lambda_dbe0312d54f1cfd9e2926868c057ca79>@@@std@@YAXPEA_K00$$QEA_KV<lambda_dbe0312d54f1cfd9e2926868c057ca79>@@@Z
	??$_Pop_heap_unchecked@PEAUllama_sbatch_seq@@V<lambda_313471036486df38593e8d47e8fa7539>@@@std@@YAXPEAUllama_sbatch_seq@@0V<lambda_313471036486df38593e8d47e8fa7539>@@@Z
	??$_Pop_heap_unchecked@PEAUllm_bigram_bpe@@Ucomparator@1@@std@@YAXPEAUllm_bigram_bpe@@0Ucomparator@1@@Z
	??$_Pop_heap_unchecked@PEAUllm_bigram_spm@@Ucomparator@1@@std@@YAXPEAUllm_bigram_spm@@0Ucomparator@1@@Z
	??$_Pop_heap_unchecked@PEA_KV<lambda_dbe0312d54f1cfd9e2926868c057ca79>@@@std@@YAXPEA_K0V<lambda_dbe0312d54f1cfd9e2926868c057ca79>@@@Z
	??$_Prev_iter@PEAH@std@@YAPEAHPEAH@Z
	??$_Prev_iter@PEAUllama_sbatch_seq@@@std@@YAPEAUllama_sbatch_seq@@PEAU1@@Z
	??$_Prev_iter@PEAUllama_token_data@@@std@@YAPEAUllama_token_data@@PEAU1@@Z
	??$_Prev_iter@PEA_K@std@@YAPEA_KPEA_K@Z
	??$_Prev_iter@PEBD@std@@YAPEBDPEBD@Z
	??$_Prev_iter@PEB_W@std@@YAPEB_WPEB_W@Z
	??$_Prev_iter@V?$_Vector_const_iterator@V?$_Vector_val@U?$_Simple_types@N@std@@@std@@@std@@@std@@YA?AV?$_Vector_const_iterator@V?$_Vector_val@U?$_Simple_types@N@std@@@std@@@0@V10@@Z
	??$_Push_heap_by_index@PEAUllama_sbatch_seq@@U1@V<lambda_313471036486df38593e8d47e8fa7539>@@@std@@YAXPEAUllama_sbatch_seq@@_J1$$QEAU1@V<lambda_313471036486df38593e8d47e8fa7539>@@@Z
	??$_Push_heap_by_index@PEAUllm_bigram_bpe@@U1@Ucomparator@1@@std@@YAXPEAUllm_bigram_bpe@@_J1$$QEAU1@Ucomparator@1@@Z
	??$_Push_heap_by_index@PEAUllm_bigram_spm@@U1@Ucomparator@1@@std@@YAXPEAUllm_bigram_spm@@_J1$$QEAU1@Ucomparator@1@@Z
	??$_Push_heap_by_index@PEA_K_KV<lambda_dbe0312d54f1cfd9e2926868c057ca79>@@@std@@YAXPEA_K_J1$$QEA_KV<lambda_dbe0312d54f1cfd9e2926868c057ca79>@@@Z
	??$_Reallocate@$0A@@?$vector@HV?$allocator@H@std@@@std@@AEAAXAEA_K@Z
	??$_Reallocate@$0A@@?$vector@IV?$allocator@I@std@@@std@@AEAAXAEA_K@Z
	??$_Reallocate@$0A@@?$vector@MV?$allocator@M@std@@@std@@AEAAXAEA_K@Z
	??$_Reallocate@$0A@@?$vector@PEAUggml_backend_buffer@@V?$allocator@PEAUggml_backend_buffer@@@std@@@std@@AEAAXAEA_K@Z
	??$_Reallocate@$0A@@?$vector@PEAUggml_context@@V?$allocator@PEAUggml_context@@@std@@@std@@AEAAXAEA_K@Z
	??$_Reallocate@$0A@@?$vector@PEAUggml_tensor@@V?$allocator@PEAUggml_tensor@@@std@@@std@@AEAAXAEA_K@Z
	??$_Reallocate@$0A@@?$vector@PEAUllama_token_data@@V?$allocator@PEAUllama_token_data@@@std@@@std@@AEAAXAEA_K@Z
	??$_Reallocate@$0A@@?$vector@U?$pair@PEAUggml_context@@V?$unordered_map@IPEAUggml_backend_buffer@@U?$hash@I@std@@U?$equal_to@I@3@V?$allocator@U?$pair@$$CBIPEAUggml_backend_buffer@@@std@@@3@@std@@@std@@V?$allocator@U?$pair@PEAUggml_context@@V?$unordered_map@IPEAUggml_backend_buffer@@U?$hash@I@std@@U?$equal_to@I@3@V?$allocator@U?$pair@$$CBIPEAUggml_backend_buffer@@@std@@@3@@std@@@std@@@2@@std@@AEAAXAEA_K@Z
	??$_Reallocate@$0A@@?$vector@U?$pair@V?$vector@IV?$allocator@I@std@@@std@@Ullama_partial_utf8@@@std@@V?$allocator@U?$pair@V?$vector@IV?$allocator@I@std@@@std@@Ullama_partial_utf8@@@std@@@2@@std@@AEAAXAEA_K@Z
	??$_Reallocate@$0A@@?$vector@U?$pair@_K_K@std@@V?$allocator@U?$pair@_K_K@std@@@2@@std@@AEAAXAEA_K@Z
	??$_Reallocate@$0A@@?$vector@Ullama_grammar_candidate@@V?$allocator@Ullama_grammar_candidate@@@std@@@std@@AEAAXAEA_K@Z
	??$_Reallocate@$0A@@?$vector@V?$basic_string@DU?$char_traits@D@std@@V?$allocator@D@2@@std@@V?$allocator@V?$basic_string@DU?$char_traits@D@std@@V?$allocator@D@2@@std@@@2@@std@@AEAAXAEA_K@Z
	??$_Reallocate@$0A@@?$vector@V?$unique_ptr@Ullama_mmap@@U?$default_delete@Ullama_mmap@@@std@@@std@@V?$allocator@V?$unique_ptr@Ullama_mmap@@U?$default_delete@Ullama_mmap@@@std@@@std@@@2@@std@@AEAAXAEA_K@Z
	??$_Reallocate@$0A@@?$vector@Vthread@std@@V?$allocator@Vthread@std@@@2@@std@@AEAAXAEA_K@Z
	??$_Reallocate@$0A@@?$vector@_KV?$allocator@_K@std@@@std@@AEAAXAEA_K@Z
	??$_Reallocate_for@V<lambda_3fa8b2c8193a0f3144fc4b1b8f243931>@@PEB_W@?$basic_string@_WU?$char_traits@_W@std@@V?$allocator@_W@2@@std@@AEAAAEAV01@_KV<lambda_3fa8b2c8193a0f3144fc4b1b8f243931>@@PEB_W@Z
	??$_Reallocate_for@V<lambda_66f57f934f28d61049862f64df852ff0>@@PEBD@?$basic_string@DU?$char_traits@D@std@@V?$allocator@D@2@@std@@AEAAAEAV01@_KV<lambda_66f57f934f28d61049862f64df852ff0>@@PEBD@Z
	??$_Reallocate_grow_by@V<lambda_1dfe18491bcca09701d8ccb01d0b0af4>@@PEB_W_K@?$basic_string@_WU?$char_traits@_W@std@@V?$allocator@_W@2@@std@@AEAAAEAV01@_KV<lambda_1dfe18491bcca09701d8ccb01d0b0af4>@@PEB_W_K@Z
	??$_Reallocate_grow_by@V<lambda_25953b27f3c43b57ba59f021c7f225c5>@@_W@?$basic_string@_WU?$char_traits@_W@std@@V?$allocator@_W@2@@std@@AEAAAEAV01@_KV<lambda_25953b27f3c43b57ba59f021c7f225c5>@@_W@Z
	??$_Reallocate_grow_by@V<lambda_319d5e083f45f90dcdce5dce53cbb275>@@D@?$basic_string@DU?$char_traits@D@std@@V?$allocator@D@2@@std@@AEAAAEAV01@_KV<lambda_319d5e083f45f90dcdce5dce53cbb275>@@D@Z
	??$_Reallocate_grow_by@V<lambda_55b0f89b53a0342680e40398a0d39887>@@_K_KPEBD_K@?$basic_string@DU?$char_traits@D@std@@V?$allocator@D@2@@std@@AEAAAEAV01@_KV<lambda_55b0f89b53a0342680e40398a0d39887>@@_K2PEBD2@Z
	??$_Reallocate_grow_by@V<lambda_65e615be2a453ca0576c979606f46740>@@PEBD_K@?$basic_string@DU?$char_traits@D@std@@V?$allocator@D@2@@std@@AEAAAEAV01@_KV<lambda_65e615be2a453ca0576c979606f46740>@@PEBD_K@Z
	??$_Reallocate_grow_by@V<lambda_9013ee9e23efe4882b67eff5b0ecf103>@@$$V@?$basic_string@DU?$char_traits@D@std@@V?$allocator@D@2@@std@@AEAAAEAV01@_KV<lambda_9013ee9e23efe4882b67eff5b0ecf103>@@@Z
	??$_Reallocate_grow_by@V<lambda_a3050a43f3157934f354774ab3dd2e02>@@_K_W@?$basic_string@_WU?$char_traits@_W@std@@V?$allocator@_W@2@@std@@AEAAAEAV01@_KV<lambda_a3050a43f3157934f354774ab3dd2e02>@@_K_W@Z
	??$_Reallocate_grow_by@V<lambda_e1befb086ad3257e3f042a63030725f7>@@_KD@?$basic_string@DU?$char_traits@D@std@@V?$allocator@D@2@@std@@AEAAAEAV01@_KV<lambda_e1befb086ad3257e3f042a63030725f7>@@_KD@Z
	??$_Reallocate_grow_by@V<lambda_f3a66ab6a0570788f31503db83886f49>@@_KPEBD_K@?$basic_string@DU?$char_traits@D@std@@V?$allocator@D@2@@std@@AEAAAEAV01@_KV<lambda_f3a66ab6a0570788f31503db83886f49>@@_KPEBD2@Z
	??$_Refancy@PEAD$0A@@std@@YAPEADPEAD@Z
	??$_Refancy@PEA_W$0A@@std@@YAPEA_WPEA_W@Z
	??$_Refancy@PEBD$0A@@std@@YAPEBDPEBD@Z
	??$_Refancy_maybe_null@PEAM$0A@@std@@YAPEAMPEAM@Z
	??$_Refancy_maybe_null@PEAN$0A@@std@@YAPEANPEAN@Z
	??$_Refancy_maybe_null@PEAU?$pair@V?$basic_string@DU?$char_traits@D@std@@V?$allocator@D@2@@std@@PEAUggml_tensor@@@std@@$0A@@std@@YAPEAU?$pair@V?$basic_string@DU?$char_traits@D@std@@V?$allocator@D@2@@std@@PEAUggml_tensor@@@0@PEAU10@@Z
	??$_Refancy_maybe_null@PEAUrange_nfd@@$0A@@std@@YAPEAUrange_nfd@@PEAU1@@Z
	??$_Refancy_maybe_null@PEAV?$vector@PEBUllama_grammar_element@@V?$allocator@PEBUllama_grammar_element@@@std@@@std@@$0A@@std@@YAPEAV?$vector@PEBUllama_grammar_element@@V?$allocator@PEBUllama_grammar_element@@@std@@@0@PEAV10@@Z
	??$_Refancy_maybe_null@PEBD$0A@@std@@YAPEBDPEBD@Z
	??$_Regex_search2@PEBDV?$allocator@V?$sub_match@PEBD@std@@@std@@DV?$regex_traits@D@2@PEBD@std@@YA_NPEBD0PEAV?$match_results@PEBDV?$allocator@V?$sub_match@PEBD@std@@@std@@@0@AEBV?$basic_regex@DV?$regex_traits@D@std@@@0@W4match_flag_type@regex_constants@0@0@Z
	??$_Regex_search2@PEB_WV?$allocator@V?$sub_match@PEB_W@std@@@std@@_WV?$regex_traits@_W@2@PEB_W@std@@YA_NPEB_W0PEAV?$match_results@PEB_WV?$allocator@V?$sub_match@PEB_W@std@@@std@@@0@AEBV?$basic_regex@_WV?$regex_traits@_W@std@@@0@W4match_flag_type@regex_constants@0@0@Z
	??$_Reset@AEBV<lambda_61d324d6c6ae299623b0a01e4b2f6764>@@@?$_Func_class@X$$V@std@@IEAAXAEBV<lambda_61d324d6c6ae299623b0a01e4b2f6764>@@@Z
	??$_Reset@AEBV<lambda_f7036c9a115536b365ca4544394c825b>@@@?$_Func_class@X$$V@std@@IEAAXAEBV<lambda_f7036c9a115536b365ca4544394c825b>@@@Z
	??$_Reset@PEBD@?$basic_regex@DV?$regex_traits@D@std@@@std@@AEAAXPEBD0W4syntax_option_type@regex_constants@1@@Z
	??$_Reset@PEB_W@?$basic_regex@_WV?$regex_traits@_W@std@@@std@@AEAAXPEB_W0W4syntax_option_type@regex_constants@1@@Z
	??$_Reset@V<lambda_052e919cc0e5399df76dff3972c0cac1>@@@?$_Func_class@E$$V@std@@IEAAX$$QEAV<lambda_052e919cc0e5399df76dff3972c0cac1>@@@Z
	??$_Reset@V<lambda_2fa3e3d11fb97352afa77a4a13bfb543>@@@?$_Func_class@X$$V@std@@IEAAX$$QEAV<lambda_2fa3e3d11fb97352afa77a4a13bfb543>@@@Z
	??$_Reset@V<lambda_763529b0c7473cbc215a52d189ac9b18>@@@?$_Func_class@X$$V@std@@IEAAX$$QEAV<lambda_763529b0c7473cbc215a52d189ac9b18>@@@Z
	??$_Reset@V<lambda_f25c37099038263181b5186a3fa41b37>@@@?$_Func_class@X$$V@std@@IEAAX$$QEAV<lambda_f25c37099038263181b5186a3fa41b37>@@@Z
	??$_Reset@V?$_Fake_no_copy_callable_adapter@V<lambda_3f39357f5ebcd3550b555fa53c33d10a>@@@std@@@?$_Func_class@U?$pair@PEAUggml_tensor@@_N@std@@$$V@std@@IEAAX$$QEAV?$_Fake_no_copy_callable_adapter@V<lambda_3f39357f5ebcd3550b555fa53c33d10a>@@@1@@Z
	??$_Reset@V?$_Fake_no_copy_callable_adapter@V<lambda_e3b97c3ad3d076d7964efd5d963695f6>@@@std@@@?$_Func_class@U?$pair@PEAUggml_tensor@@_N@std@@$$V@std@@IEAAX$$QEAV?$_Fake_no_copy_callable_adapter@V<lambda_e3b97c3ad3d076d7964efd5d963695f6>@@@1@@Z
	??$_Resize@I@?$vector@IV?$allocator@I@std@@@std@@AEAAX_KAEBI@Z
	??$_Resize@U_Value_init_tag@std@@@?$vector@CV?$allocator@C@std@@@std@@AEAAX_KAEBU_Value_init_tag@1@@Z
	??$_Resize@U_Value_init_tag@std@@@?$vector@EV?$allocator@E@std@@@std@@AEAAX_KAEBU_Value_init_tag@1@@Z
	??$_Resize@U_Value_init_tag@std@@@?$vector@HV?$allocator@H@std@@@std@@AEAAX_KAEBU_Value_init_tag@1@@Z
	??$_Resize@U_Value_init_tag@std@@@?$vector@MV?$allocator@M@std@@@std@@AEAAX_KAEBU_Value_init_tag@1@@Z
	??$_Resize@U_Value_init_tag@std@@@?$vector@PEAHV?$allocator@PEAH@std@@@std@@AEAAX_KAEBU_Value_init_tag@1@@Z
	??$_Resize@U_Value_init_tag@std@@@?$vector@PEAXV?$allocator@PEAX@std@@@std@@AEAAX_KAEBU_Value_init_tag@1@@Z
	??$_Resize@U_Value_init_tag@std@@@?$vector@PEBUllama_chat_message@@V?$allocator@PEBUllama_chat_message@@@std@@@std@@AEAAX_KAEBU_Value_init_tag@1@@Z
	??$_Resize@U_Value_init_tag@std@@@?$vector@U?$no_init@E@@V?$allocator@U?$no_init@E@@@std@@@std@@AEAAX_KAEBU_Value_init_tag@1@@Z
	??$_Resize@U_Value_init_tag@std@@@?$vector@U?$no_init@M@@V?$allocator@U?$no_init@M@@@std@@@std@@AEAAX_KAEBU_Value_init_tag@1@@Z
	??$_Resize@U_Value_init_tag@std@@@?$vector@U_Grp_t@?$_Tgt_state_t@PEBD@std@@V?$allocator@U_Grp_t@?$_Tgt_state_t@PEBD@std@@@3@@std@@AEAAX_KAEBU_Value_init_tag@1@@Z
	??$_Resize@U_Value_init_tag@std@@@?$vector@U_Grp_t@?$_Tgt_state_t@PEB_W@std@@V?$allocator@U_Grp_t@?$_Tgt_state_t@PEB_W@std@@@3@@std@@AEAAX_KAEBU_Value_init_tag@1@@Z
	??$_Resize@U_Value_init_tag@std@@@?$vector@U_Loop_vals_t@std@@V?$allocator@U_Loop_vals_t@std@@@2@@std@@AEAAX_KAEBU_Value_init_tag@1@@Z
	??$_Resize@U_Value_init_tag@std@@@?$vector@Ulayer_buft@llama_model@@V?$allocator@Ulayer_buft@llama_model@@@std@@@std@@AEAAX_KAEBU_Value_init_tag@1@@Z
	??$_Resize@U_Value_init_tag@std@@@?$vector@Ullama_kv_cell@@V?$allocator@Ullama_kv_cell@@@std@@@std@@AEAAX_KAEBU_Value_init_tag@1@@Z
	??$_Resize@U_Value_init_tag@std@@@?$vector@Ullama_layer@@V?$allocator@Ullama_layer@@@std@@@std@@AEAAX_KAEBU_Value_init_tag@1@@Z
	??$_Resize@U_Value_init_tag@std@@@?$vector@Ullama_sbatch_seq@@V?$allocator@Ullama_sbatch_seq@@@std@@@std@@AEAAX_KAEBU_Value_init_tag@1@@Z
	??$_Resize@U_Value_init_tag@std@@@?$vector@Utoken_data@llama_vocab@@V?$allocator@Utoken_data@llama_vocab@@@std@@@std@@AEAAX_KAEBU_Value_init_tag@1@@Z
	??$_Resize@U_Value_init_tag@std@@@?$vector@V?$set@HU?$less@H@std@@V?$allocator@H@2@@std@@V?$allocator@V?$set@HU?$less@H@std@@V?$allocator@H@2@@std@@@2@@std@@AEAAX_KAEBU_Value_init_tag@1@@Z
	??$_Resize@U_Value_init_tag@std@@@?$vector@V?$sub_match@PEBD@std@@V?$allocator@V?$sub_match@PEBD@std@@@2@@std@@AEAAX_KAEBU_Value_init_tag@1@@Z
	??$_Resize@U_Value_init_tag@std@@@?$vector@V?$sub_match@PEB_W@std@@V?$allocator@V?$sub_match@PEB_W@std@@@2@@std@@AEAAX_KAEBU_Value_init_tag@1@@Z
	??$_Resize@U_Value_init_tag@std@@@?$vector@_KV?$allocator@_K@std@@@std@@AEAAX_KAEBU_Value_init_tag@1@@Z
	??$_Resize_reallocate@I@?$vector@IV?$allocator@I@std@@@std@@AEAAX_KAEBI@Z
	??$_Resize_reallocate@U_Value_init_tag@std@@@?$vector@CV?$allocator@C@std@@@std@@AEAAX_KAEBU_Value_init_tag@1@@Z
	??$_Resize_reallocate@U_Value_init_tag@std@@@?$vector@EV?$allocator@E@std@@@std@@AEAAX_KAEBU_Value_init_tag@1@@Z
	??$_Resize_reallocate@U_Value_init_tag@std@@@?$vector@HV?$allocator@H@std@@@std@@AEAAX_KAEBU_Value_init_tag@1@@Z
	??$_Resize_reallocate@U_Value_init_tag@std@@@?$vector@MV?$allocator@M@std@@@std@@AEAAX_KAEBU_Value_init_tag@1@@Z
	??$_Resize_reallocate@U_Value_init_tag@std@@@?$vector@PEAHV?$allocator@PEAH@std@@@std@@AEAAX_KAEBU_Value_init_tag@1@@Z
	??$_Resize_reallocate@U_Value_init_tag@std@@@?$vector@PEAXV?$allocator@PEAX@std@@@std@@AEAAX_KAEBU_Value_init_tag@1@@Z
	??$_Resize_reallocate@U_Value_init_tag@std@@@?$vector@PEBUllama_chat_message@@V?$allocator@PEBUllama_chat_message@@@std@@@std@@AEAAX_KAEBU_Value_init_tag@1@@Z
	??$_Resize_reallocate@U_Value_init_tag@std@@@?$vector@U?$no_init@E@@V?$allocator@U?$no_init@E@@@std@@@std@@AEAAX_KAEBU_Value_init_tag@1@@Z
	??$_Resize_reallocate@U_Value_init_tag@std@@@?$vector@U?$no_init@M@@V?$allocator@U?$no_init@M@@@std@@@std@@AEAAX_KAEBU_Value_init_tag@1@@Z
	??$_Resize_reallocate@U_Value_init_tag@std@@@?$vector@U_Grp_t@?$_Tgt_state_t@PEBD@std@@V?$allocator@U_Grp_t@?$_Tgt_state_t@PEBD@std@@@3@@std@@AEAAX_KAEBU_Value_init_tag@1@@Z
	??$_Resize_reallocate@U_Value_init_tag@std@@@?$vector@U_Grp_t@?$_Tgt_state_t@PEB_W@std@@V?$allocator@U_Grp_t@?$_Tgt_state_t@PEB_W@std@@@3@@std@@AEAAX_KAEBU_Value_init_tag@1@@Z
	??$_Resize_reallocate@U_Value_init_tag@std@@@?$vector@U_Loop_vals_t@std@@V?$allocator@U_Loop_vals_t@std@@@2@@std@@AEAAX_KAEBU_Value_init_tag@1@@Z
	??$_Resize_reallocate@U_Value_init_tag@std@@@?$vector@Ulayer_buft@llama_model@@V?$allocator@Ulayer_buft@llama_model@@@std@@@std@@AEAAX_KAEBU_Value_init_tag@1@@Z
	??$_Resize_reallocate@U_Value_init_tag@std@@@?$vector@Ullama_kv_cell@@V?$allocator@Ullama_kv_cell@@@std@@@std@@AEAAX_KAEBU_Value_init_tag@1@@Z
	??$_Resize_reallocate@U_Value_init_tag@std@@@?$vector@Ullama_layer@@V?$allocator@Ullama_layer@@@std@@@std@@AEAAX_KAEBU_Value_init_tag@1@@Z
	??$_Resize_reallocate@U_Value_init_tag@std@@@?$vector@Ullama_sbatch_seq@@V?$allocator@Ullama_sbatch_seq@@@std@@@std@@AEAAX_KAEBU_Value_init_tag@1@@Z
	??$_Resize_reallocate@U_Value_init_tag@std@@@?$vector@Utoken_data@llama_vocab@@V?$allocator@Utoken_data@llama_vocab@@@std@@@std@@AEAAX_KAEBU_Value_init_tag@1@@Z
	??$_Resize_reallocate@U_Value_init_tag@std@@@?$vector@V?$set@HU?$less@H@std@@V?$allocator@H@2@@std@@V?$allocator@V?$set@HU?$less@H@std@@V?$allocator@H@2@@std@@@2@@std@@AEAAX_KAEBU_Value_init_tag@1@@Z
	??$_Resize_reallocate@U_Value_init_tag@std@@@?$vector@V?$sub_match@PEBD@std@@V?$allocator@V?$sub_match@PEBD@std@@@2@@std@@AEAAX_KAEBU_Value_init_tag@1@@Z
	??$_Resize_reallocate@U_Value_init_tag@std@@@?$vector@V?$sub_match@PEB_W@std@@V?$allocator@V?$sub_match@PEB_W@std@@@2@@std@@AEAAX_KAEBU_Value_init_tag@1@@Z
	??$_Resize_reallocate@U_Value_init_tag@std@@@?$vector@_KV?$allocator@_K@std@@@std@@AEAAX_KAEBU_Value_init_tag@1@@Z
	??$_Reverse_vectorized@$03@std@@YAXPEAX0@Z
	??$_Seek_wrapped@PEAMPEAM@std@@YAXAEAPEAM$$QEAPEAM@Z
	??$_Seek_wrapped@PEAUllama_token_data@@AEAPEAU1@@std@@YAXAEAPEAUllama_token_data@@0@Z
	??$_Seek_wrapped@PEAUllama_token_data@@PEAU1@@std@@YAXAEAPEAUllama_token_data@@$$QEAPEAU1@@Z
	??$_Seek_wrapped@PEBDPEBD@std@@YAXAEAPEBD$$QEAPEBD@Z
	??$_Seek_wrapped@PEB_WPEB_W@std@@YAXAEAPEB_W$$QEAPEB_W@Z
	??$_Seek_wrapped@V?$_Array_iterator@I$0CAA@@std@@PEAI@std@@YAXAEAV?$_Array_iterator@I$0CAA@@0@$$QEAPEAI@Z
	??$_Seek_wrapped@V?$_String_iterator@V?$_String_val@U?$_Simple_types@D@std@@@std@@@std@@AEAPEAD@std@@YAXAEAV?$_String_iterator@V?$_String_val@U?$_Simple_types@D@std@@@std@@@0@AEAPEAD@Z
	??$_Seek_wrapped@V?$_Vb_iterator@U?$_Wrap_alloc@V?$allocator@I@std@@@std@@@std@@V12@@std@@YAXAEAV?$_Vb_iterator@U?$_Wrap_alloc@V?$allocator@I@std@@@std@@@0@$$QEAV10@@Z
	??$_Seek_wrapped@V?$_Vector_const_iterator@V?$_Vector_val@U?$_Simple_types@N@std@@@std@@@std@@AEAPEBN@std@@YAXAEAV?$_Vector_const_iterator@V?$_Vector_val@U?$_Simple_types@N@std@@@std@@@0@AEAPEBN@Z
	??$_Seek_wrapped@V?$_Vector_const_iterator@V?$_Vector_val@U?$_Simple_types@Urange_nfd@@@std@@@std@@@std@@AEAPEBUrange_nfd@@@std@@YAXAEAV?$_Vector_const_iterator@V?$_Vector_val@U?$_Simple_types@Urange_nfd@@@std@@@std@@@0@AEAPEBUrange_nfd@@@Z
	??$_Seek_wrapped@V?$_Vector_iterator@V?$_Vector_val@U?$_Simple_types@M@std@@@std@@@std@@AEAPEAM@std@@YAXAEAV?$_Vector_iterator@V?$_Vector_val@U?$_Simple_types@M@std@@@std@@@0@AEAPEAM@Z
	??$_Seek_wrapped@V?$_Vector_iterator@V?$_Vector_val@U?$_Simple_types@M@std@@@std@@@std@@PEAM@std@@YAXAEAV?$_Vector_iterator@V?$_Vector_val@U?$_Simple_types@M@std@@@std@@@0@$$QEAPEAM@Z
	??$_Seek_wrapped@V?$_Vector_iterator@V?$_Vector_val@U?$_Simple_types@U?$pair@V?$basic_string@DU?$char_traits@D@std@@V?$allocator@D@2@@std@@PEAUggml_tensor@@@std@@@std@@@std@@@std@@AEAPEAU?$pair@V?$basic_string@DU?$char_traits@D@std@@V?$allocator@D@2@@std@@PEAUggml_tensor@@@2@@std@@YAXAEAV?$_Vector_iterator@V?$_Vector_val@U?$_Simple_types@U?$pair@V?$basic_string@DU?$char_traits@D@std@@V?$allocator@D@2@@std@@PEAUggml_tensor@@@std@@@std@@@std@@@0@AEAPEAU?$pair@V?$basic_string@DU?$char_traits@D@std@@V?$allocator@D@2@@std@@PEAUggml_tensor@@@0@@Z
	??$_Seek_wrapped@V?$_Vector_iterator@V?$_Vector_val@U?$_Simple_types@V?$vector@PEBUllama_grammar_element@@V?$allocator@PEBUllama_grammar_element@@@std@@@std@@@std@@@std@@@std@@PEAV?$vector@PEBUllama_grammar_element@@V?$allocator@PEBUllama_grammar_element@@@std@@@2@@std@@YAXAEAV?$_Vector_iterator@V?$_Vector_val@U?$_Simple_types@V?$vector@PEBUllama_grammar_element@@V?$allocator@PEBUllama_grammar_element@@@std@@@std@@@std@@@std@@@0@$$QEAPEAV?$vector@PEBUllama_grammar_element@@V?$allocator@PEBUllama_grammar_element@@@std@@@0@@Z
	??$_Set_ptr_rep_and_enable_shared@U?$_Task_impl@E@details@Concurrency@@@?$shared_ptr@U?$_Task_impl@E@details@Concurrency@@@std@@AEAAXQEAU?$_Task_impl@E@details@Concurrency@@QEAV_Ref_count_base@1@@Z
	??$_Set_ptr_rep_and_enable_shared@U_ExceptionHolder@details@Concurrency@@@?$shared_ptr@U_ExceptionHolder@details@Concurrency@@@std@@AEAAXQEAU_ExceptionHolder@details@Concurrency@@QEAV_Ref_count_base@1@@Z
	??$_Sort_heap_unchecked@PEAUllama_sbatch_seq@@V<lambda_313471036486df38593e8d47e8fa7539>@@@std@@YAXPEAUllama_sbatch_seq@@0V<lambda_313471036486df38593e8d47e8fa7539>@@@Z
	??$_Sort_heap_unchecked@PEA_KV<lambda_dbe0312d54f1cfd9e2926868c057ca79>@@@std@@YAXPEA_K0V<lambda_dbe0312d54f1cfd9e2926868c057ca79>@@@Z
	??$_Sort_unchecked@PEAUllama_sbatch_seq@@V<lambda_313471036486df38593e8d47e8fa7539>@@@std@@YAXPEAUllama_sbatch_seq@@0_JV<lambda_313471036486df38593e8d47e8fa7539>@@@Z
	??$_Sort_unchecked@PEA_KV<lambda_dbe0312d54f1cfd9e2926868c057ca79>@@@std@@YAXPEA_K0_JV<lambda_dbe0312d54f1cfd9e2926868c057ca79>@@@Z
	??$_TaskInitMaybeFunctor@V<lambda_61d324d6c6ae299623b0a01e4b2f6764>@@@?$task@X@Concurrency@@AEAAXAEAV<lambda_61d324d6c6ae299623b0a01e4b2f6764>@@U?$integral_constant@_N$00@std@@@Z
	??$_TaskInitMaybeFunctor@V<lambda_f7036c9a115536b365ca4544394c825b>@@@?$task@X@Concurrency@@AEAAXAEAV<lambda_f7036c9a115536b365ca4544394c825b>@@U?$integral_constant@_N$00@std@@@Z
	??$_TaskInitWithFunctor@XV<lambda_61d324d6c6ae299623b0a01e4b2f6764>@@@?$task@E@Concurrency@@AEAAXAEBV<lambda_61d324d6c6ae299623b0a01e4b2f6764>@@@Z
	??$_TaskInitWithFunctor@XV<lambda_f7036c9a115536b365ca4544394c825b>@@@?$task@E@Concurrency@@AEAAXAEBV<lambda_f7036c9a115536b365ca4544394c825b>@@@Z
	??$_Test_callable@V<lambda_052e919cc0e5399df76dff3972c0cac1>@@@std@@YA_NAEBV<lambda_052e919cc0e5399df76dff3972c0cac1>@@@Z
	??$_Test_callable@V<lambda_2fa3e3d11fb97352afa77a4a13bfb543>@@@std@@YA_NAEBV<lambda_2fa3e3d11fb97352afa77a4a13bfb543>@@@Z
	??$_Test_callable@V<lambda_61d324d6c6ae299623b0a01e4b2f6764>@@@std@@YA_NAEBV<lambda_61d324d6c6ae299623b0a01e4b2f6764>@@@Z
	??$_Test_callable@V<lambda_763529b0c7473cbc215a52d189ac9b18>@@@std@@YA_NAEBV<lambda_763529b0c7473cbc215a52d189ac9b18>@@@Z
	??$_Test_callable@V<lambda_f25c37099038263181b5186a3fa41b37>@@@std@@YA_NAEBV<lambda_f25c37099038263181b5186a3fa41b37>@@@Z
	??$_Test_callable@V<lambda_f7036c9a115536b365ca4544394c825b>@@@std@@YA_NAEBV<lambda_f7036c9a115536b365ca4544394c825b>@@@Z
	??$_Test_callable@V?$_Fake_no_copy_callable_adapter@V<lambda_3f39357f5ebcd3550b555fa53c33d10a>@@@std@@@std@@YA_NAEBV?$_Fake_no_copy_callable_adapter@V<lambda_3f39357f5ebcd3550b555fa53c33d10a>@@@0@@Z
	??$_Test_callable@V?$_Fake_no_copy_callable_adapter@V<lambda_e3b97c3ad3d076d7964efd5d963695f6>@@@std@@@std@@YA_NAEBV?$_Fake_no_copy_callable_adapter@V<lambda_e3b97c3ad3d076d7964efd5d963695f6>@@@0@@Z
	??$_To_address@PEAC@std@@YA?A_PAEBQEAC@Z
	??$_To_address@PEAD@std@@YA?A_PAEBQEAD@Z
	??$_To_address@PEAE@std@@YA?A_PAEBQEAE@Z
	??$_To_address@PEAH@std@@YA?A_PAEBQEAH@Z
	??$_To_address@PEAI@std@@YA?A_PAEBQEAI@Z
	??$_To_address@PEAM@std@@YA?A_PAEBQEAM@Z
	??$_To_address@PEAN@std@@YA?A_PAEBQEAN@Z
	??$_To_address@PEAPEAH@std@@YA?A_PAEBQEAPEAH@Z
	??$_To_address@PEAPEAUggml_backend@@@std@@YA?A_PAEBQEAPEAUggml_backend@@@Z
	??$_To_address@PEAPEAUggml_backend_buffer@@@std@@YA?A_PAEBQEAPEAUggml_backend_buffer@@@Z
	??$_To_address@PEAPEAUggml_backend_buffer_type@@@std@@YA?A_PAEBQEAPEAUggml_backend_buffer_type@@@Z
	??$_To_address@PEAPEAUggml_context@@@std@@YA?A_PAEBQEAPEAUggml_context@@@Z
	??$_To_address@PEAPEAUggml_tensor@@@std@@YA?A_PAEBQEAPEAUggml_tensor@@@Z
	??$_To_address@PEAPEAUgguf_context@@@std@@YA?A_PAEBQEAPEAUgguf_context@@@Z
	??$_To_address@PEAPEAUllama_token_data@@@std@@YA?A_PAEBQEAPEAUllama_token_data@@@Z
	??$_To_address@PEAPEAX@std@@YA?A_PAEBQEAPEAX@Z
	??$_To_address@PEAPEBUllama_chat_message@@@std@@YA?A_PAEBQEAPEBUllama_chat_message@@@Z
	??$_To_address@PEAPEBUllama_grammar_element@@@std@@YA?A_PAEBQEAPEBUllama_grammar_element@@@Z
	??$_To_address@PEAU?$no_init@E@@@std@@YA?A_PAEBQEAU?$no_init@E@@@Z
	??$_To_address@PEAU?$no_init@M@@@std@@YA?A_PAEBQEAU?$no_init@M@@@Z
	??$_To_address@PEAU?$pair@IG@std@@@std@@YA?A_PAEBQEAU?$pair@IG@0@@Z
	??$_To_address@PEAU?$pair@II@std@@@std@@YA?A_PAEBQEAU?$pair@II@0@@Z
	??$_To_address@PEAU?$pair@W4llm_kv@@AEAH@std@@@std@@YA?A_PAEBQEAU?$pair@W4llm_kv@@AEAH@0@@Z
	??$_To_address@PEAU?$pair@_K_K@std@@@std@@YA?A_PAEBQEAU?$pair@_K_K@0@@Z
	??$_To_address@PEAU_Grp_t@?$_Tgt_state_t@PEBD@std@@@std@@YA?A_PAEBQEAU_Grp_t@?$_Tgt_state_t@PEBD@0@@Z
	??$_To_address@PEAU_Grp_t@?$_Tgt_state_t@PEB_W@std@@@std@@YA?A_PAEBQEAU_Grp_t@?$_Tgt_state_t@PEB_W@0@@Z
	??$_To_address@PEAU_Loop_vals_t@std@@@std@@YA?A_PAEBQEAU_Loop_vals_t@0@@Z
	??$_To_address@PEAUlayer_buft@llama_model@@@std@@YA?A_PAEBQEAUlayer_buft@llama_model@@@Z
	??$_To_address@PEAUllama_grammar_candidate@@@std@@YA?A_PAEBQEAUllama_grammar_candidate@@@Z
	??$_To_address@PEAUllama_grammar_element@@@std@@YA?A_PAEBQEAUllama_grammar_element@@@Z
	??$_To_address@PEAUllama_layer@@@std@@YA?A_PAEBQEAUllama_layer@@@Z
	??$_To_address@PEAUllama_sbatch_seq@@@std@@YA?A_PAEBQEAUllama_sbatch_seq@@@Z
	??$_To_address@PEAUllama_tensor_weight@llama_model_loader@@@std@@YA?A_PAEBQEAUllama_tensor_weight@llama_model_loader@@@Z
	??$_To_address@PEAUllama_token_data@@@std@@YA?A_PAEBQEAUllama_token_data@@@Z
	??$_To_address@PEAUllm_bigram_spm@@@std@@YA?A_PAEBQEAUllm_bigram_spm@@@Z
	??$_To_address@PEAUllm_symbol@@@std@@YA?A_PAEBQEAUllm_symbol@@@Z
	??$_To_address@PEAUrange_nfd@@@std@@YA?A_PAEBQEAUrange_nfd@@@Z
	??$_To_address@PEAV?$sub_match@PEBD@std@@@std@@YA?A_PAEBQEAV?$sub_match@PEBD@0@@Z
	??$_To_address@PEAV?$sub_match@PEB_W@std@@@std@@YA?A_PAEBQEAV?$sub_match@PEB_W@0@@Z
	??$_To_address@PEA_J@std@@YA?A_PAEBQEA_J@Z
	??$_To_address@PEA_K@std@@YA?A_PAEBQEA_K@Z
	??$_To_address@PEA_W@std@@YA?A_PAEBQEA_W@Z
	??$_To_address@PEBD@std@@YA?A_PAEBQEBD@Z
	??$_To_address@PEBI@std@@YA?A_PAEBQEBI@Z
	??$_To_address@PEBM@std@@YA?A_PAEBQEBM@Z
	??$_To_address@PEBQEBUllama_grammar_element@@@std@@YA?A_PAEBQEBQEBUllama_grammar_element@@@Z
	??$_To_address@PEBU?$pair@IG@std@@@std@@YA?A_PAEBQEBU?$pair@IG@0@@Z
	??$_To_address@PEBU?$pair@W4llm_kv@@AEAH@std@@@std@@YA?A_PAEBQEBU?$pair@W4llm_kv@@AEAH@0@@Z
	??$_To_address@PEBUrange_nfd@@@std@@YA?A_PAEBQEBUrange_nfd@@@Z
	??$_To_address@PEB_J@std@@YA?A_PAEBQEB_J@Z
	??$_To_address@PEB_K@std@@YA?A_PAEBQEB_K@Z
	??$_To_address@PEB_W@std@@YA?A_PAEBQEB_W@Z
	??$_Traits_compare@U?$char_traits@D@std@@@std@@YAHQEBD_K01@Z
	??$_Traits_equal@U?$char_traits@D@std@@@std@@YA_NQEBD_K01@Z
	??$_Traits_equal@U?$char_traits@_W@std@@@std@@YA_NQEB_W_K01@Z
	??$_Traits_find@U?$char_traits@D@std@@@std@@YA_KQEBD_K101@Z
	??$_Traits_find_ch@U?$char_traits@D@std@@@std@@YA_KQEBD_K1D@Z
	??$_Traits_rfind@U?$char_traits@D@std@@@std@@YA_KQEBD_K101@Z
	??$_Try_emplace@AEBH$$V@?$_Hash@V?$_Umap_traits@HHV?$_Uhash_compare@HU?$hash@H@std@@U?$equal_to@H@2@@std@@V?$allocator@U?$pair@$$CBHH@std@@@2@$0A@@std@@@std@@IEAA?AU?$pair@PEAU?$_List_node@U?$pair@$$CBHH@std@@PEAX@std@@_N@1@AEBH@Z
	??$_Try_emplace@AEBH$$V@?$map@HV?$vector@MV?$allocator@M@std@@@std@@U?$less@H@2@V?$allocator@U?$pair@$$CBHV?$vector@MV?$allocator@M@std@@@std@@@std@@@2@@std@@AEAA?AU?$pair@PEAU?$_Tree_node@U?$pair@$$CBHV?$vector@MV?$allocator@M@std@@@std@@@std@@PEAX@std@@_N@1@AEBH@Z
	??$_Try_emplace@AEBQEAUggml_backend_buffer_type@@$$V@?$map@PEAUggml_backend_buffer_type@@HU?$less@PEAUggml_backend_buffer_type@@@std@@V?$allocator@U?$pair@QEAUggml_backend_buffer_type@@H@std@@@3@@std@@AEAA?AU?$pair@PEAU?$_Tree_node@U?$pair@QEAUggml_backend_buffer_type@@H@std@@PEAX@std@@_N@1@AEBQEAUggml_backend_buffer_type@@@Z
	??$_Try_emplace@AEBQEAUggml_backend_buffer_type@@$$V@?$map@PEAUggml_backend_buffer_type@@PEAUggml_context@@U?$less@PEAUggml_backend_buffer_type@@@std@@V?$allocator@U?$pair@QEAUggml_backend_buffer_type@@PEAUggml_context@@@std@@@4@@std@@AEAA?AU?$pair@PEAU?$_Tree_node@U?$pair@QEAUggml_backend_buffer_type@@PEAUggml_context@@@std@@PEAX@std@@_N@1@AEBQEAUggml_backend_buffer_type@@@Z
	??$_Try_emplace@AEBQEAUllama_lora_adapter@@$$V@?$_Hash@V?$_Umap_traits@PEAUllama_lora_adapter@@MV?$_Uhash_compare@PEAUllama_lora_adapter@@U?$hash@PEAUllama_lora_adapter@@@std@@U?$equal_to@PEAUllama_lora_adapter@@@3@@std@@V?$allocator@U?$pair@QEAUllama_lora_adapter@@M@std@@@3@$0A@@std@@@std@@IEAA?AU?$pair@PEAU?$_List_node@U?$pair@QEAUllama_lora_adapter@@M@std@@PEAX@std@@_N@1@AEBQEAUllama_lora_adapter@@@Z
	??$_Try_emplace@AEBV?$basic_string@DU?$char_traits@D@std@@V?$allocator@D@2@@std@@$$V@?$_Hash@V?$_Umap_traits@V?$basic_string@DU?$char_traits@D@std@@V?$allocator@D@2@@std@@HV?$_Uhash_compare@V?$basic_string@DU?$char_traits@D@std@@V?$allocator@D@2@@std@@U?$hash@V?$basic_string@DU?$char_traits@D@std@@V?$allocator@D@2@@std@@@2@U?$equal_to@V?$basic_string@DU?$char_traits@D@std@@V?$allocator@D@2@@std@@@2@@2@V?$allocator@U?$pair@$$CBV?$basic_string@DU?$char_traits@D@std@@V?$allocator@D@2@@std@@H@std@@@2@$0A@@std@@@std@@IEAA?AU?$pair@PEAU?$_List_node@U?$pair@$$CBV?$basic_string@DU?$char_traits@D@std@@V?$allocator@D@2@@std@@H@std@@PEAX@std@@_N@1@AEBV?$basic_string@DU?$char_traits@D@std@@V?$allocator@D@2@@1@@Z
	??$_Try_emplace@AEBV?$basic_string@DU?$char_traits@D@std@@V?$allocator@D@2@@std@@$$V@?$_Hash@V?$_Umap_traits@V?$basic_string@DU?$char_traits@D@std@@V?$allocator@D@2@@std@@Ullama_lora_weight@@V?$_Uhash_compare@V?$basic_string@DU?$char_traits@D@std@@V?$allocator@D@2@@std@@U?$hash@V?$basic_string@DU?$char_traits@D@std@@V?$allocator@D@2@@std@@@2@U?$equal_to@V?$basic_string@DU?$char_traits@D@std@@V?$allocator@D@2@@std@@@2@@2@V?$allocator@U?$pair@$$CBV?$basic_string@DU?$char_traits@D@std@@V?$allocator@D@2@@std@@Ullama_lora_weight@@@std@@@2@$0A@@std@@@std@@IEAA?AU?$pair@PEAU?$_List_node@U?$pair@$$CBV?$basic_string@DU?$char_traits@D@std@@V?$allocator@D@2@@std@@Ullama_lora_weight@@@std@@PEAX@std@@_N@1@AEBV?$basic_string@DU?$char_traits@D@std@@V?$allocator@D@2@@1@@Z
	??$_Try_emplace@AEBV?$basic_string@DU?$char_traits@D@std@@V?$allocator@D@2@@std@@$$V@?$map@V?$basic_string@DU?$char_traits@D@std@@V?$allocator@D@2@@std@@U?$pair@HH@2@U?$less@V?$basic_string@DU?$char_traits@D@std@@V?$allocator@D@2@@std@@@2@V?$allocator@U?$pair@$$CBV?$basic_string@DU?$char_traits@D@std@@V?$allocator@D@2@@std@@U?$pair@HH@2@@std@@@2@@std@@AEAA?AU?$pair@PEAU?$_Tree_node@U?$pair@$$CBV?$basic_string@DU?$char_traits@D@std@@V?$allocator@D@2@@std@@U?$pair@HH@2@@std@@PEAX@std@@_N@1@AEBV?$basic_string@DU?$char_traits@D@std@@V?$allocator@D@2@@1@@Z
	??$_Try_emplace@AEBV?$basic_string@DU?$char_traits@D@std@@V?$allocator@D@2@@std@@$$V@?$map@V?$basic_string@DU?$char_traits@D@std@@V?$allocator@D@2@@std@@Ullama_lora_weight@@U?$less@V?$basic_string@DU?$char_traits@D@std@@V?$allocator@D@2@@std@@@2@V?$allocator@U?$pair@$$CBV?$basic_string@DU?$char_traits@D@std@@V?$allocator@D@2@@std@@Ullama_lora_weight@@@std@@@2@@std@@AEAA?AU?$pair@PEAU?$_Tree_node@U?$pair@$$CBV?$basic_string@DU?$char_traits@D@std@@V?$allocator@D@2@@std@@Ullama_lora_weight@@@std@@PEAX@std@@_N@1@AEBV?$basic_string@DU?$char_traits@D@std@@V?$allocator@D@2@@1@@Z
	??$_Try_emplace@AEBW4ggml_type@@$$V@?$map@W4ggml_type@@IU?$less@W4ggml_type@@@std@@V?$allocator@U?$pair@$$CBW4ggml_type@@I@std@@@3@@std@@AEAA?AU?$pair@PEAU?$_Tree_node@U?$pair@$$CBW4ggml_type@@I@std@@PEAX@std@@_N@1@AEBW4ggml_type@@@Z
	??$_Try_emplace@E$$V@?$_Hash@V?$_Umap_traits@EV?$basic_string@DU?$char_traits@D@std@@V?$allocator@D@2@@std@@V?$_Uhash_compare@EU?$hash@E@std@@U?$equal_to@E@2@@2@V?$allocator@U?$pair@$$CBEV?$basic_string@DU?$char_traits@D@std@@V?$allocator@D@2@@std@@@std@@@2@$0A@@std@@@std@@IEAA?AU?$pair@PEAU?$_List_node@U?$pair@$$CBEV?$basic_string@DU?$char_traits@D@std@@V?$allocator@D@2@@std@@@std@@PEAX@std@@_N@1@$$QEAE@Z
	??$_Try_emplace@PEAUggml_backend_buffer_type@@$$V@?$map@PEAUggml_backend_buffer_type@@HU?$less@PEAUggml_backend_buffer_type@@@std@@V?$allocator@U?$pair@QEAUggml_backend_buffer_type@@H@std@@@3@@std@@AEAA?AU?$pair@PEAU?$_Tree_node@U?$pair@QEAUggml_backend_buffer_type@@H@std@@PEAX@std@@_N@1@$$QEAPEAUggml_backend_buffer_type@@@Z
	??$_Try_emplace@V?$basic_string@DU?$char_traits@D@std@@V?$allocator@D@2@@std@@$$V@?$_Hash@V?$_Umap_traits@V?$basic_string@DU?$char_traits@D@std@@V?$allocator@D@2@@std@@EV?$_Uhash_compare@V?$basic_string@DU?$char_traits@D@std@@V?$allocator@D@2@@std@@U?$hash@V?$basic_string@DU?$char_traits@D@std@@V?$allocator@D@2@@std@@@2@U?$equal_to@V?$basic_string@DU?$char_traits@D@std@@V?$allocator@D@2@@std@@@2@@2@V?$allocator@U?$pair@$$CBV?$basic_string@DU?$char_traits@D@std@@V?$allocator@D@2@@std@@E@std@@@2@$0A@@std@@@std@@IEAA?AU?$pair@PEAU?$_List_node@U?$pair@$$CBV?$basic_string@DU?$char_traits@D@std@@V?$allocator@D@2@@std@@E@std@@PEAX@std@@_N@1@$$QEAV?$basic_string@DU?$char_traits@D@std@@V?$allocator@D@2@@1@@Z
	??$_Tuple_get@$0A@$$QEAE@std@@YA$$QEA_P$$QEAV?$tuple@$$QEAE@0@@Z
	??$_Tuple_get@$0A@$$QEAPEAUggml_backend_buffer_type@@@std@@YA$$QEA_P$$QEAV?$tuple@$$QEAPEAUggml_backend_buffer_type@@@0@@Z
	??$_Tuple_get@$0A@$$QEAV?$basic_string@DU?$char_traits@D@std@@V?$allocator@D@2@@std@@@std@@YA$$QEA_P$$QEAV?$tuple@$$QEAV?$basic_string@DU?$char_traits@D@std@@V?$allocator@D@2@@std@@@0@@Z
	??$_Tuple_get@$0A@AEBH@std@@YA$$QEA_P$$QEAV?$tuple@AEBH@0@@Z
	??$_Tuple_get@$0A@AEBQEAUggml_backend_buffer_type@@@std@@YA$$QEA_P$$QEAV?$tuple@AEBQEAUggml_backend_buffer_type@@@0@@Z
	??$_Tuple_get@$0A@AEBQEAUllama_lora_adapter@@@std@@YA$$QEA_P$$QEAV?$tuple@AEBQEAUllama_lora_adapter@@@0@@Z
	??$_Tuple_get@$0A@AEBV?$basic_string@DU?$char_traits@D@std@@V?$allocator@D@2@@std@@@std@@YA$$QEA_P$$QEAV?$tuple@AEBV?$basic_string@DU?$char_traits@D@std@@V?$allocator@D@2@@std@@@0@@Z
	??$_Tuple_get@$0A@AEBW4ggml_type@@@std@@YA$$QEA_P$$QEAV?$tuple@AEBW4ggml_type@@@0@@Z
	??$_UIntegral_to_buff@DI@std@@YAPEADPEADI@Z
	??$_UIntegral_to_buff@D_K@std@@YAPEADPEAD_K@Z
	??$_UIntegral_to_string@DI@std@@YA?AV?$basic_string@DU?$char_traits@D@std@@V?$allocator@D@2@@0@I@Z
	??$_UIntegral_to_string@D_K@std@@YA?AV?$basic_string@DU?$char_traits@D@std@@V?$allocator@D@2@@0@_K@Z
	??$_Unfancy@$$CBD@std@@YAPEBDPEBD@Z
	??$_Unfancy@C@std@@YAPEACPEAC@Z
	??$_Unfancy@D@std@@YAPEADPEAD@Z
	??$_Unfancy@E@std@@YAPEAEPEAE@Z
	??$_Unfancy@H@std@@YAPEAHPEAH@Z
	??$_Unfancy@I@std@@YAPEAIPEAI@Z
	??$_Unfancy@M@std@@YAPEAMPEAM@Z
	??$_Unfancy@N@std@@YAPEANPEAN@Z
	??$_Unfancy@PEAH@std@@YAPEAPEAHPEAPEAH@Z
	??$_Unfancy@PEAUggml_backend@@@std@@YAPEAPEAUggml_backend@@PEAPEAU1@@Z
	??$_Unfancy@PEAUggml_backend_buffer@@@std@@YAPEAPEAUggml_backend_buffer@@PEAPEAU1@@Z
	??$_Unfancy@PEAUggml_backend_buffer_type@@@std@@YAPEAPEAUggml_backend_buffer_type@@PEAPEAU1@@Z
	??$_Unfancy@PEAUggml_context@@@std@@YAPEAPEAUggml_context@@PEAPEAU1@@Z
	??$_Unfancy@PEAUggml_tensor@@@std@@YAPEAPEAUggml_tensor@@PEAPEAU1@@Z
	??$_Unfancy@PEAUgguf_context@@@std@@YAPEAPEAUgguf_context@@PEAPEAU1@@Z
	??$_Unfancy@PEAUllama_token_data@@@std@@YAPEAPEAUllama_token_data@@PEAPEAU1@@Z
	??$_Unfancy@PEAX@std@@YAPEAPEAXPEAPEAX@Z
	??$_Unfancy@PEBUllama_chat_message@@@std@@YAPEAPEBUllama_chat_message@@PEAPEBU1@@Z
	??$_Unfancy@PEBUllama_grammar_element@@@std@@YAPEAPEBUllama_grammar_element@@PEAPEBU1@@Z
	??$_Unfancy@U?$no_init@E@@@std@@YAPEAU?$no_init@E@@PEAU1@@Z
	??$_Unfancy@U?$no_init@M@@@std@@YAPEAU?$no_init@M@@PEAU1@@Z
	??$_Unfancy@U?$pair@IG@std@@@std@@YAPEAU?$pair@IG@0@PEAU10@@Z
	??$_Unfancy@U?$pair@II@std@@@std@@YAPEAU?$pair@II@0@PEAU10@@Z
	??$_Unfancy@U?$pair@PEAUggml_context@@V?$unordered_map@IPEAUggml_backend_buffer@@U?$hash@I@std@@U?$equal_to@I@3@V?$allocator@U?$pair@$$CBIPEAUggml_backend_buffer@@@std@@@3@@std@@@std@@@std@@YAPEAU?$pair@PEAUggml_context@@V?$unordered_map@IPEAUggml_backend_buffer@@U?$hash@I@std@@U?$equal_to@I@3@V?$allocator@U?$pair@$$CBIPEAUggml_backend_buffer@@@std@@@3@@std@@@0@PEAU10@@Z
	??$_Unfancy@U?$pair@V?$basic_string@DU?$char_traits@D@std@@V?$allocator@D@2@@std@@PEAUggml_tensor@@@std@@@std@@YAPEAU?$pair@V?$basic_string@DU?$char_traits@D@std@@V?$allocator@D@2@@std@@PEAUggml_tensor@@@0@PEAU10@@Z
	??$_Unfancy@U?$pair@V?$vector@IV?$allocator@I@std@@@std@@Ullama_partial_utf8@@@std@@@std@@YAPEAU?$pair@V?$vector@IV?$allocator@I@std@@@std@@Ullama_partial_utf8@@@0@PEAU10@@Z
	??$_Unfancy@U?$pair@W4llm_kv@@AEAH@std@@@std@@YAPEAU?$pair@W4llm_kv@@AEAH@0@PEAU10@@Z
	??$_Unfancy@U?$pair@_K_K@std@@@std@@YAPEAU?$pair@_K_K@0@PEAU10@@Z
	??$_Unfancy@U_Container_proxy@std@@@std@@YAPEAU_Container_proxy@0@PEAU10@@Z
	??$_Unfancy@U_Grp_t@?$_Tgt_state_t@PEBD@std@@@std@@YAPEAU_Grp_t@?$_Tgt_state_t@PEBD@0@PEAU120@@Z
	??$_Unfancy@U_Grp_t@?$_Tgt_state_t@PEB_W@std@@@std@@YAPEAU_Grp_t@?$_Tgt_state_t@PEB_W@0@PEAU120@@Z
	??$_Unfancy@U_Loop_vals_t@std@@@std@@YAPEAU_Loop_vals_t@0@PEAU10@@Z
	??$_Unfancy@Ubest_tokenization@llm_tokenizer_ugm@@@std@@YAPEAUbest_tokenization@llm_tokenizer_ugm@@PEAU12@@Z
	??$_Unfancy@Ucodepoint_flags@@@std@@YAPEAUcodepoint_flags@@PEAU1@@Z
	??$_Unfancy@Ulayer_buft@llama_model@@@std@@YAPEAUlayer_buft@llama_model@@PEAU12@@Z
	??$_Unfancy@Ullama_grammar_candidate@@@std@@YAPEAUllama_grammar_candidate@@PEAU1@@Z
	??$_Unfancy@Ullama_grammar_element@@@std@@YAPEAUllama_grammar_element@@PEAU1@@Z
	??$_Unfancy@Ullama_kv_cell@@@std@@YAPEAUllama_kv_cell@@PEAU1@@Z
	??$_Unfancy@Ullama_layer@@@std@@YAPEAUllama_layer@@PEAU1@@Z
	??$_Unfancy@Ullama_sbatch_seq@@@std@@YAPEAUllama_sbatch_seq@@PEAU1@@Z
	??$_Unfancy@Ullama_tensor_weight@llama_model_loader@@@std@@YAPEAUllama_tensor_weight@llama_model_loader@@PEAU12@@Z
	??$_Unfancy@Ullama_token_data@@@std@@YAPEAUllama_token_data@@PEAU1@@Z
	??$_Unfancy@Ullm_bigram_bpe@@@std@@YAPEAUllm_bigram_bpe@@PEAU1@@Z
	??$_Unfancy@Ullm_bigram_spm@@@std@@YAPEAUllm_bigram_spm@@PEAU1@@Z
	??$_Unfancy@Ullm_symbol@@@std@@YAPEAUllm_symbol@@PEAU1@@Z
	??$_Unfancy@Urange_nfd@@@std@@YAPEAUrange_nfd@@PEAU1@@Z
	??$_Unfancy@Utoken_data@llama_vocab@@@std@@YAPEAUtoken_data@llama_vocab@@PEAU12@@Z
	??$_Unfancy@V?$basic_string@DU?$char_traits@D@std@@V?$allocator@D@2@@std@@@std@@YAPEAV?$basic_string@DU?$char_traits@D@std@@V?$allocator@D@2@@0@PEAV10@@Z
	??$_Unfancy@V?$future@U?$pair@PEAUggml_tensor@@_N@std@@@std@@@std@@YAPEAV?$future@U?$pair@PEAUggml_tensor@@_N@std@@@0@PEAV10@@Z
	??$_Unfancy@V?$set@HU?$less@H@std@@V?$allocator@H@2@@std@@@std@@YAPEAV?$set@HU?$less@H@std@@V?$allocator@H@2@@0@PEAV10@@Z
	??$_Unfancy@V?$sub_match@PEBD@std@@@std@@YAPEAV?$sub_match@PEBD@0@PEAV10@@Z
	??$_Unfancy@V?$sub_match@PEB_W@std@@@std@@YAPEAV?$sub_match@PEB_W@0@PEAV10@@Z
	??$_Unfancy@V?$unique_ptr@Ullama_file@@U?$default_delete@Ullama_file@@@std@@@std@@@std@@YAPEAV?$unique_ptr@Ullama_file@@U?$default_delete@Ullama_file@@@std@@@0@PEAV10@@Z
	??$_Unfancy@V?$unique_ptr@Ullama_mlock@@U?$default_delete@Ullama_mlock@@@std@@@std@@@std@@YAPEAV?$unique_ptr@Ullama_mlock@@U?$default_delete@Ullama_mlock@@@std@@@0@PEAV10@@Z
	??$_Unfancy@V?$unique_ptr@Ullama_mmap@@U?$default_delete@Ullama_mmap@@@std@@@std@@@std@@YAPEAV?$unique_ptr@Ullama_mmap@@U?$default_delete@Ullama_mmap@@@std@@@0@PEAV10@@Z
	??$_Unfancy@V?$vector@PEBUllama_grammar_element@@V?$allocator@PEBUllama_grammar_element@@@std@@@std@@@std@@YAPEAV?$vector@PEBUllama_grammar_element@@V?$allocator@PEBUllama_grammar_element@@@std@@@0@PEAV10@@Z
	??$_Unfancy@V?$vector@Ullama_grammar_element@@V?$allocator@Ullama_grammar_element@@@std@@@std@@@std@@YAPEAV?$vector@Ullama_grammar_element@@V?$allocator@Ullama_grammar_element@@@std@@@0@PEAV10@@Z
	??$_Unfancy@Vthread@std@@@std@@YAPEAVthread@0@PEAV10@@Z
	??$_Unfancy@_J@std@@YAPEA_JPEA_J@Z
	??$_Unfancy@_K@std@@YAPEA_KPEA_K@Z
	??$_Unfancy@_W@std@@YAPEA_WPEA_W@Z
	??$_Unfancy_maybe_null@$$CBD@std@@YAPEBDPEBD@Z
	??$_Unfancy_maybe_null@$$CB_W@std@@YAPEB_WPEB_W@Z
	??$_Unfancy_maybe_null@C@std@@YAPEACPEAC@Z
	??$_Unfancy_maybe_null@D@std@@YAPEADPEAD@Z
	??$_Unfancy_maybe_null@E@std@@YAPEAEPEAE@Z
	??$_Unfancy_maybe_null@H@std@@YAPEAHPEAH@Z
	??$_Unfancy_maybe_null@I@std@@YAPEAIPEAI@Z
	??$_Unfancy_maybe_null@M@std@@YAPEAMPEAM@Z
	??$_Unfancy_maybe_null@N@std@@YAPEANPEAN@Z
	??$_Unfancy_maybe_null@PEAH@std@@YAPEAPEAHPEAPEAH@Z
	??$_Unfancy_maybe_null@PEAUggml_backend@@@std@@YAPEAPEAUggml_backend@@PEAPEAU1@@Z
	??$_Unfancy_maybe_null@PEAUggml_backend_buffer@@@std@@YAPEAPEAUggml_backend_buffer@@PEAPEAU1@@Z
	??$_Unfancy_maybe_null@PEAUggml_backend_buffer_type@@@std@@YAPEAPEAUggml_backend_buffer_type@@PEAPEAU1@@Z
	??$_Unfancy_maybe_null@PEAUggml_context@@@std@@YAPEAPEAUggml_context@@PEAPEAU1@@Z
	??$_Unfancy_maybe_null@PEAUggml_tensor@@@std@@YAPEAPEAUggml_tensor@@PEAPEAU1@@Z
	??$_Unfancy_maybe_null@PEAUgguf_context@@@std@@YAPEAPEAUgguf_context@@PEAPEAU1@@Z
	??$_Unfancy_maybe_null@PEBUllama_chat_message@@@std@@YAPEAPEBUllama_chat_message@@PEAPEBU1@@Z
	??$_Unfancy_maybe_null@PEBUllama_grammar_element@@@std@@YAPEAPEBUllama_grammar_element@@PEAPEBU1@@Z
	??$_Unfancy_maybe_null@U?$no_init@E@@@std@@YAPEAU?$no_init@E@@PEAU1@@Z
	??$_Unfancy_maybe_null@U?$no_init@M@@@std@@YAPEAU?$no_init@M@@PEAU1@@Z
	??$_Unfancy_maybe_null@U?$pair@II@std@@@std@@YAPEAU?$pair@II@0@PEAU10@@Z
	??$_Unfancy_maybe_null@U?$pair@PEAUggml_context@@V?$unordered_map@IPEAUggml_backend_buffer@@U?$hash@I@std@@U?$equal_to@I@3@V?$allocator@U?$pair@$$CBIPEAUggml_backend_buffer@@@std@@@3@@std@@@std@@@std@@YAPEAU?$pair@PEAUggml_context@@V?$unordered_map@IPEAUggml_backend_buffer@@U?$hash@I@std@@U?$equal_to@I@3@V?$allocator@U?$pair@$$CBIPEAUggml_backend_buffer@@@std@@@3@@std@@@0@PEAU10@@Z
	??$_Unfancy_maybe_null@U?$pair@V?$basic_string@DU?$char_traits@D@std@@V?$allocator@D@2@@std@@PEAUggml_tensor@@@std@@@std@@YAPEAU?$pair@V?$basic_string@DU?$char_traits@D@std@@V?$allocator@D@2@@std@@PEAUggml_tensor@@@0@PEAU10@@Z
	??$_Unfancy_maybe_null@U?$pair@W4llm_kv@@AEAH@std@@@std@@YAPEAU?$pair@W4llm_kv@@AEAH@0@PEAU10@@Z
	??$_Unfancy_maybe_null@Ullama_grammar_candidate@@@std@@YAPEAUllama_grammar_candidate@@PEAU1@@Z
	??$_Unfancy_maybe_null@Ullama_grammar_element@@@std@@YAPEAUllama_grammar_element@@PEAU1@@Z
	??$_Unfancy_maybe_null@Ullama_model_kv_override@@@std@@YAPEAUllama_model_kv_override@@PEAU1@@Z
	??$_Unfancy_maybe_null@Ullama_sbatch_seq@@@std@@YAPEAUllama_sbatch_seq@@PEAU1@@Z
	??$_Unfancy_maybe_null@Ullama_tensor_weight@llama_model_loader@@@std@@YAPEAUllama_tensor_weight@llama_model_loader@@PEAU12@@Z
	??$_Unfancy_maybe_null@Ullama_token_data@@@std@@YAPEAUllama_token_data@@PEAU1@@Z
	??$_Unfancy_maybe_null@Ullm_bigram_bpe@@@std@@YAPEAUllm_bigram_bpe@@PEAU1@@Z
	??$_Unfancy_maybe_null@Ullm_bigram_spm@@@std@@YAPEAUllm_bigram_spm@@PEAU1@@Z
	??$_Unfancy_maybe_null@Ullm_symbol@@@std@@YAPEAUllm_symbol@@PEAU1@@Z
	??$_Unfancy_maybe_null@Urange_nfd@@@std@@YAPEAUrange_nfd@@PEAU1@@Z
	??$_Unfancy_maybe_null@V?$basic_string@DU?$char_traits@D@std@@V?$allocator@D@2@@std@@@std@@YAPEAV?$basic_string@DU?$char_traits@D@std@@V?$allocator@D@2@@0@PEAV10@@Z
	??$_Unfancy_maybe_null@V?$future@U?$pair@PEAUggml_tensor@@_N@std@@@std@@@std@@YAPEAV?$future@U?$pair@PEAUggml_tensor@@_N@std@@@0@PEAV10@@Z
	??$_Unfancy_maybe_null@V?$unique_ptr@Ullama_file@@U?$default_delete@Ullama_file@@@std@@@std@@@std@@YAPEAV?$unique_ptr@Ullama_file@@U?$default_delete@Ullama_file@@@std@@@0@PEAV10@@Z
	??$_Unfancy_maybe_null@V?$unique_ptr@Ullama_mmap@@U?$default_delete@Ullama_mmap@@@std@@@std@@@std@@YAPEAV?$unique_ptr@Ullama_mmap@@U?$default_delete@Ullama_mmap@@@std@@@0@PEAV10@@Z
	??$_Unfancy_maybe_null@V?$vector@PEBUllama_grammar_element@@V?$allocator@PEBUllama_grammar_element@@@std@@@std@@@std@@YAPEAV?$vector@PEBUllama_grammar_element@@V?$allocator@PEBUllama_grammar_element@@@std@@@0@PEAV10@@Z
	??$_Unfancy_maybe_null@Vthread@std@@@std@@YAPEAVthread@0@PEAV10@@Z
	??$_Unfancy_maybe_null@_K@std@@YAPEA_KPEA_K@Z
	??$_Unfancy_maybe_null@_W@std@@YAPEA_WPEA_W@Z
	??$_Ungetc@D@std@@YA_NAEBDPEAU_iobuf@@@Z
	??$_Uninitialized_copy@PEADPEADV?$allocator@D@std@@@std@@YAPEADPEAD00AEAV?$allocator@D@0@@Z
	??$_Uninitialized_copy@PEAIPEAIV?$allocator@I@std@@@std@@YAPEAIPEAI00AEAV?$allocator@I@0@@Z
	??$_Uninitialized_copy@PEAMPEAMV?$allocator@N@std@@@std@@YAPEANPEAM0PEANAEAV?$allocator@N@0@@Z
	??$_Uninitialized_copy@PEAPEAXPEAPEAXV?$allocator@PEAX@std@@@std@@YAPEAPEAXPEAPEAX00AEAV?$allocator@PEAX@0@@Z
	??$_Uninitialized_copy@PEAPEBUllama_grammar_element@@PEAPEBU1@V?$allocator@PEBUllama_grammar_element@@@std@@@std@@YAPEAPEBUllama_grammar_element@@PEAPEBU1@00AEAV?$allocator@PEBUllama_grammar_element@@@0@@Z
	??$_Uninitialized_copy@PEAU?$pair@PEAUggml_context@@V?$unordered_map@IPEAUggml_backend_buffer@@U?$hash@I@std@@U?$equal_to@I@3@V?$allocator@U?$pair@$$CBIPEAUggml_backend_buffer@@@std@@@3@@std@@@std@@PEAU12@V?$allocator@U?$pair@PEAUggml_context@@V?$unordered_map@IPEAUggml_backend_buffer@@U?$hash@I@std@@U?$equal_to@I@3@V?$allocator@U?$pair@$$CBIPEAUggml_backend_buffer@@@std@@@3@@std@@@std@@@2@@std@@YAPEAU?$pair@PEAUggml_context@@V?$unordered_map@IPEAUggml_backend_buffer@@U?$hash@I@std@@U?$equal_to@I@3@V?$allocator@U?$pair@$$CBIPEAUggml_backend_buffer@@@std@@@3@@std@@@0@PEAU10@00AEAV?$allocator@U?$pair@PEAUggml_context@@V?$unordered_map@IPEAUggml_backend_buffer@@U?$hash@I@std@@U?$equal_to@I@3@V?$allocator@U?$pair@$$CBIPEAUggml_backend_buffer@@@std@@@3@@std@@@std@@@0@@Z
	??$_Uninitialized_copy@PEAU_Grp_t@?$_Tgt_state_t@PEBD@std@@PEAU123@V?$allocator@U_Grp_t@?$_Tgt_state_t@PEBD@std@@@3@@std@@YAPEAU_Grp_t@?$_Tgt_state_t@PEBD@0@PEAU120@00AEAV?$allocator@U_Grp_t@?$_Tgt_state_t@PEBD@std@@@0@@Z
	??$_Uninitialized_copy@PEAU_Grp_t@?$_Tgt_state_t@PEB_W@std@@PEAU123@V?$allocator@U_Grp_t@?$_Tgt_state_t@PEB_W@std@@@3@@std@@YAPEAU_Grp_t@?$_Tgt_state_t@PEB_W@0@PEAU120@00AEAV?$allocator@U_Grp_t@?$_Tgt_state_t@PEB_W@std@@@0@@Z
	??$_Uninitialized_copy@PEAUllama_grammar_element@@PEAU1@V?$allocator@Ullama_grammar_element@@@std@@@std@@YAPEAUllama_grammar_element@@PEAU1@00AEAV?$allocator@Ullama_grammar_element@@@0@@Z
	??$_Uninitialized_copy@PEAUllama_kv_cell@@PEAU1@V?$allocator@Ullama_kv_cell@@@std@@@std@@YAPEAUllama_kv_cell@@PEAU1@00AEAV?$allocator@Ullama_kv_cell@@@0@@Z
	??$_Uninitialized_copy@PEAV?$set@HU?$less@H@std@@V?$allocator@H@2@@std@@PEAV12@V?$allocator@V?$set@HU?$less@H@std@@V?$allocator@H@2@@std@@@2@@std@@YAPEAV?$set@HU?$less@H@std@@V?$allocator@H@2@@0@PEAV10@00AEAV?$allocator@V?$set@HU?$less@H@std@@V?$allocator@H@2@@std@@@0@@Z
	??$_Uninitialized_copy@PEAV?$sub_match@PEBD@std@@PEAV12@V?$allocator@V?$sub_match@PEBD@std@@@2@@std@@YAPEAV?$sub_match@PEBD@0@PEAV10@00AEAV?$allocator@V?$sub_match@PEBD@std@@@0@@Z
	??$_Uninitialized_copy@PEAV?$sub_match@PEB_W@std@@PEAV12@V?$allocator@V?$sub_match@PEB_W@std@@@2@@std@@YAPEAV?$sub_match@PEB_W@0@PEAV10@00AEAV?$allocator@V?$sub_match@PEB_W@std@@@0@@Z
	??$_Uninitialized_copy@PEAV?$vector@PEBUllama_grammar_element@@V?$allocator@PEBUllama_grammar_element@@@std@@@std@@PEAV12@V?$allocator@V?$vector@PEBUllama_grammar_element@@V?$allocator@PEBUllama_grammar_element@@@std@@@std@@@2@@std@@YAPEAV?$vector@PEBUllama_grammar_element@@V?$allocator@PEBUllama_grammar_element@@@std@@@0@PEAV10@00AEAV?$allocator@V?$vector@PEBUllama_grammar_element@@V?$allocator@PEBUllama_grammar_element@@@std@@@std@@@0@@Z
	??$_Uninitialized_copy@PEAV?$vector@Ullama_grammar_element@@V?$allocator@Ullama_grammar_element@@@std@@@std@@PEAV12@V?$allocator@V?$vector@Ullama_grammar_element@@V?$allocator@Ullama_grammar_element@@@std@@@std@@@2@@std@@YAPEAV?$vector@Ullama_grammar_element@@V?$allocator@Ullama_grammar_element@@@std@@@0@PEAV10@00AEAV?$allocator@V?$vector@Ullama_grammar_element@@V?$allocator@Ullama_grammar_element@@@std@@@std@@@0@@Z
	??$_Uninitialized_copy@PEA_WPEA_WV?$allocator@_W@std@@@std@@YAPEA_WPEA_W00AEAV?$allocator@_W@0@@Z
	??$_Uninitialized_copy@PEBDPEBDV?$allocator@D@std@@@std@@YAPEADPEBD0PEADAEAV?$allocator@D@0@@Z
	??$_Uninitialized_copy@PEBQEBUllama_grammar_element@@PEBQEBU1@V?$allocator@PEBUllama_grammar_element@@@std@@@std@@YAPEAPEBUllama_grammar_element@@PEBQEBU1@0PEAPEBU1@AEAV?$allocator@PEBUllama_grammar_element@@@0@@Z
	??$_Uninitialized_copy@PEBU?$pair@IG@std@@PEBU12@V?$allocator@U?$pair@IG@std@@@2@@std@@YAPEAU?$pair@IG@0@PEBU10@0PEAU10@AEAV?$allocator@U?$pair@IG@std@@@0@@Z
	??$_Uninitialized_copy@PEBU?$pair@W4llm_kv@@AEAH@std@@PEBU12@V?$allocator@U?$pair@W4llm_kv@@AEAH@std@@@2@@std@@YAPEAU?$pair@W4llm_kv@@AEAH@0@PEBU10@0PEAU10@AEAV?$allocator@U?$pair@W4llm_kv@@AEAH@std@@@0@@Z
	??$_Uninitialized_copy@PEBUrange_nfd@@PEBU1@V?$allocator@Urange_nfd@@@std@@@std@@YAPEAUrange_nfd@@PEBU1@0PEAU1@AEAV?$allocator@Urange_nfd@@@0@@Z
	??$_Uninitialized_copy@PEBV?$basic_string@DU?$char_traits@D@std@@V?$allocator@D@2@@std@@PEBV12@V?$allocator@V?$basic_string@DU?$char_traits@D@std@@V?$allocator@D@2@@std@@@2@@std@@YAPEAV?$basic_string@DU?$char_traits@D@std@@V?$allocator@D@2@@0@PEBV10@0PEAV10@AEAV?$allocator@V?$basic_string@DU?$char_traits@D@std@@V?$allocator@D@2@@std@@@0@@Z
	??$_Uninitialized_copy@PEB_JPEB_JV?$allocator@_J@std@@@std@@YAPEA_JPEB_J0PEA_JAEAV?$allocator@_J@0@@Z
	??$_Uninitialized_copy@PEB_KPEB_KV?$allocator@_K@std@@@std@@YAPEA_KPEB_K0PEA_KAEAV?$allocator@_K@0@@Z
	??$_Uninitialized_copy@PEB_WPEB_WV?$allocator@_W@std@@@std@@YAPEA_WPEB_W0PEA_WAEAV?$allocator@_W@0@@Z
	??$_Uninitialized_copy_n@PEAIV?$allocator@I@std@@@std@@YAPEAIPEAI_K0AEAV?$allocator@I@0@@Z
	??$_Uninitialized_copy_n@PEAPEAXV?$allocator@PEAX@std@@@std@@YAPEAPEAXPEAPEAX_K0AEAV?$allocator@PEAX@0@@Z
	??$_Uninitialized_copy_n@PEAPEBUllama_grammar_element@@V?$allocator@PEBUllama_grammar_element@@@std@@@std@@YAPEAPEBUllama_grammar_element@@PEAPEBU1@_K0AEAV?$allocator@PEBUllama_grammar_element@@@0@@Z
	??$_Uninitialized_copy_n@PEAU_Grp_t@?$_Tgt_state_t@PEBD@std@@V?$allocator@U_Grp_t@?$_Tgt_state_t@PEBD@std@@@3@@std@@YAPEAU_Grp_t@?$_Tgt_state_t@PEBD@0@PEAU120@_K0AEAV?$allocator@U_Grp_t@?$_Tgt_state_t@PEBD@std@@@0@@Z
	??$_Uninitialized_copy_n@PEAU_Grp_t@?$_Tgt_state_t@PEB_W@std@@V?$allocator@U_Grp_t@?$_Tgt_state_t@PEB_W@std@@@3@@std@@YAPEAU_Grp_t@?$_Tgt_state_t@PEB_W@0@PEAU120@_K0AEAV?$allocator@U_Grp_t@?$_Tgt_state_t@PEB_W@std@@@0@@Z
	??$_Uninitialized_copy_n@PEAUllm_symbol@@V?$allocator@Ullm_symbol@@@std@@@std@@YAPEAUllm_symbol@@PEAU1@_K0AEAV?$allocator@Ullm_symbol@@@0@@Z
	??$_Uninitialized_copy_n@PEAV?$vector@PEBUllama_grammar_element@@V?$allocator@PEBUllama_grammar_element@@@std@@@std@@V?$allocator@V?$vector@PEBUllama_grammar_element@@V?$allocator@PEBUllama_grammar_element@@@std@@@std@@@2@@std@@YAPEAV?$vector@PEBUllama_grammar_element@@V?$allocator@PEBUllama_grammar_element@@@std@@@0@PEAV10@_K0AEAV?$allocator@V?$vector@PEBUllama_grammar_element@@V?$allocator@PEBUllama_grammar_element@@@std@@@std@@@0@@Z
	??$_Uninitialized_copy_n@PEBDV?$allocator@D@std@@@std@@YAPEADPEBD_KPEADAEAV?$allocator@D@0@@Z
	??$_Uninitialized_copy_n@PEBV?$basic_string@DU?$char_traits@D@std@@V?$allocator@D@2@@std@@V?$allocator@V?$basic_string@DU?$char_traits@D@std@@V?$allocator@D@2@@std@@@2@@std@@YAPEAV?$basic_string@DU?$char_traits@D@std@@V?$allocator@D@2@@0@PEBV10@_KPEAV10@AEAV?$allocator@V?$basic_string@DU?$char_traits@D@std@@V?$allocator@D@2@@std@@@0@@Z
	??$_Uninitialized_fill_n@V?$allocator@D@std@@@std@@YAPEADPEAD_KAEBDAEAV?$allocator@D@0@@Z
	??$_Uninitialized_fill_n@V?$allocator@H@std@@@std@@YAPEAHPEAH_KAEBHAEAV?$allocator@H@0@@Z
	??$_Uninitialized_fill_n@V?$allocator@I@std@@@std@@YAPEAIPEAI_KAEBIAEAV?$allocator@I@0@@Z
	??$_Uninitialized_fill_n@V?$allocator@M@std@@@std@@YAPEAMPEAM_KAEBMAEAV?$allocator@M@0@@Z
	??$_Uninitialized_fill_n@V?$allocator@N@std@@@std@@YAPEANPEAN_KAEBNAEAV?$allocator@N@0@@Z
	??$_Uninitialized_fill_n@V?$allocator@PEAUgguf_context@@@std@@@std@@YAPEAPEAUgguf_context@@PEAPEAU1@_KAEBQEAU1@AEAV?$allocator@PEAUgguf_context@@@0@@Z
	??$_Uninitialized_fill_n@V?$allocator@Ubest_tokenization@llm_tokenizer_ugm@@@std@@@std@@YAPEAUbest_tokenization@llm_tokenizer_ugm@@PEAU12@_KAEBU12@AEAV?$allocator@Ubest_tokenization@llm_tokenizer_ugm@@@0@@Z
	??$_Uninitialized_fill_n@V?$allocator@Ucodepoint_flags@@@std@@@std@@YAPEAUcodepoint_flags@@PEAU1@_KAEBU1@AEAV?$allocator@Ucodepoint_flags@@@0@@Z
	??$_Uninitialized_fill_n@V?$allocator@V?$basic_string@DU?$char_traits@D@std@@V?$allocator@D@2@@std@@@std@@@std@@YAPEAV?$basic_string@DU?$char_traits@D@std@@V?$allocator@D@2@@0@PEAV10@_KAEBV10@AEAV?$allocator@V?$basic_string@DU?$char_traits@D@std@@V?$allocator@D@2@@std@@@0@@Z
	??$_Uninitialized_fill_n@V?$allocator@_K@std@@@std@@YAPEA_KPEA_K_KAEB_KAEAV?$allocator@_K@0@@Z
	??$_Uninitialized_move@PEACV?$allocator@C@std@@@std@@YAPEACQEAC0PEACAEAV?$allocator@C@0@@Z
	??$_Uninitialized_move@PEAEV?$allocator@E@std@@@std@@YAPEAEQEAE0PEAEAEAV?$allocator@E@0@@Z
	??$_Uninitialized_move@PEAHV?$allocator@H@std@@@std@@YAPEAHQEAH0PEAHAEAV?$allocator@H@0@@Z
	??$_Uninitialized_move@PEAIV?$allocator@I@std@@@std@@YAPEAIQEAI0PEAIAEAV?$allocator@I@0@@Z
	??$_Uninitialized_move@PEAMV?$allocator@M@std@@@std@@YAPEAMQEAM0PEAMAEAV?$allocator@M@0@@Z
	??$_Uninitialized_move@PEANV?$allocator@N@std@@@std@@YAPEANQEAN0PEANAEAV?$allocator@N@0@@Z
	??$_Uninitialized_move@PEAPEAHV?$allocator@PEAH@std@@@std@@YAPEAPEAHQEAPEAH0PEAPEAHAEAV?$allocator@PEAH@0@@Z
	??$_Uninitialized_move@PEAPEAUggml_backend@@V?$allocator@PEAUggml_backend@@@std@@@std@@YAPEAPEAUggml_backend@@QEAPEAU1@0PEAPEAU1@AEAV?$allocator@PEAUggml_backend@@@0@@Z
	??$_Uninitialized_move@PEAPEAUggml_backend_buffer@@V?$allocator@PEAUggml_backend_buffer@@@std@@@std@@YAPEAPEAUggml_backend_buffer@@QEAPEAU1@0PEAPEAU1@AEAV?$allocator@PEAUggml_backend_buffer@@@0@@Z
	??$_Uninitialized_move@PEAPEAUggml_backend_buffer_type@@V?$allocator@PEAUggml_backend_buffer_type@@@std@@@std@@YAPEAPEAUggml_backend_buffer_type@@QEAPEAU1@0PEAPEAU1@AEAV?$allocator@PEAUggml_backend_buffer_type@@@0@@Z
	??$_Uninitialized_move@PEAPEAUggml_context@@V?$allocator@PEAUggml_context@@@std@@@std@@YAPEAPEAUggml_context@@QEAPEAU1@0PEAPEAU1@AEAV?$allocator@PEAUggml_context@@@0@@Z
	??$_Uninitialized_move@PEAPEAUggml_tensor@@V?$allocator@PEAUggml_tensor@@@std@@@std@@YAPEAPEAUggml_tensor@@QEAPEAU1@0PEAPEAU1@AEAV?$allocator@PEAUggml_tensor@@@0@@Z
	??$_Uninitialized_move@PEAPEAUllama_token_data@@V?$allocator@PEAUllama_token_data@@@std@@@std@@YAPEAPEAUllama_token_data@@QEAPEAU1@0PEAPEAU1@AEAV?$allocator@PEAUllama_token_data@@@0@@Z
	??$_Uninitialized_move@PEAPEAXV?$allocator@PEAX@std@@@std@@YAPEAPEAXQEAPEAX0PEAPEAXAEAV?$allocator@PEAX@0@@Z
	??$_Uninitialized_move@PEAPEBUllama_chat_message@@V?$allocator@PEBUllama_chat_message@@@std@@@std@@YAPEAPEBUllama_chat_message@@QEAPEBU1@0PEAPEBU1@AEAV?$allocator@PEBUllama_chat_message@@@0@@Z
	??$_Uninitialized_move@PEAPEBUllama_grammar_element@@V?$allocator@PEBUllama_grammar_element@@@std@@@std@@YAPEAPEBUllama_grammar_element@@QEAPEBU1@0PEAPEBU1@AEAV?$allocator@PEBUllama_grammar_element@@@0@@Z
